
program.elf:     file format elf32-littleriscv

SYMBOL TABLE:
20010000 l    d  .init	00000000 .init
20010180 l    d  .text	00000000 .text
2001dbc8 l    d  .rodata	00000000 .rodata
2001f3c8 l    d  .init_array	00000000 .init_array
2001f3d4 l    d  .litimalign	00000000 .litimalign
80000000 l    d  .ditimalign	00000000 .ditimalign
2001f3d4 l    d  .lalign	00000000 .lalign
80000000 l    d  .dalign	00000000 .dalign
80000000 l    d  .data	00000000 .data
8000124c l    d  .bss	00000000 .bss
80001284 l    d  .stack	00000000 .stack
80001684 l    d  .heap	00000000 .heap
00000000 l    d  .comment	00000000 .comment
00000000 l    d  .riscv.attributes	00000000 .riscv.attributes
00000000 l    d  .debug_info	00000000 .debug_info
00000000 l    d  .debug_abbrev	00000000 .debug_abbrev
00000000 l    d  .debug_loc	00000000 .debug_loc
00000000 l    d  .debug_aranges	00000000 .debug_aranges
00000000 l    d  .debug_ranges	00000000 .debug_ranges
00000000 l    d  .debug_line	00000000 .debug_line
00000000 l    d  .debug_str	00000000 .debug_str
00000000 l    d  .debug_frame	00000000 .debug_frame
00000000 l    df *ABS*	00000000 libriscv__mmachine__sifive-hifive1-revb_a-entry.o
2001b528 l       .text	00000000 early_trap_vector
00000000 l    df *ABS*	00000000 crt0.o
2001e8dc l       .rodata	00000000 argv
2001e8e0 l       .rodata	00000000 envp
2001e8e4 l       .rodata	00000000 name
00000000 l    df *ABS*	00000000 test.c
00000000 l    df *ABS*	00000000 printf.c
00000000 l    df *ABS*	00000000 vfprintf.c
20011a0a l     F .text	0000008a __sbprintf
2001dd70 l     O .rodata	00000010 blanks.4513
2001dd80 l     O .rodata	00000010 zeroes.4514
00000000 l    df *ABS*	00000000 wsetup.c
00000000 l    df *ABS*	00000000 fflush.c
00000000 l    df *ABS*	00000000 findfp.c
20011d18 l     F .text	00000004 __fp_lock
20011d1c l     F .text	0000006a std
20011d90 l     F .text	00000004 __fp_unlock
00000000 l    df *ABS*	00000000 mallocr.c
00000000 l    df *ABS*	00000000 fwalk.c
00000000 l    df *ABS*	00000000 ldtoa.c
2001226c l     F .text	00000010 eclear
2001227c l     F .text	0000001c emov
20012298 l     F .text	00000010 ecleaz
200122a8 l     F .text	00000020 emovz
200122c8 l     F .text	0000002c ecmpm
200122f4 l     F .text	00000036 eshdn1
2001232a l     F .text	0000003c eshup1
20012366 l     F .text	00000026 eshdn8
2001238c l     F .text	00000020 eshup8
200123ac l     F .text	0000001c eshup6
200123c8 l     F .text	0000001c eshdn6
200123e4 l     F .text	00000028 eaddm
2001240c l     F .text	00000028 esubm
20012434 l     F .text	00000074 m16m
200124a8 l     F .text	00000026 eisnan
200124ce l     F .text	0000001e eisneg
200124ec l     F .text	00000098 emovi
20012584 l     F .text	0000009c ecmp
20012620 l     F .text	00000022 eisinf
20012642 l     F .text	00000020 einfin.isra.2
20012662 l     F .text	000000d2 eshift.part.3
20012734 l     F .text	0000008c enormlz
200127c0 l     F .text	00000018 enan.constprop.12
200127d8 l     F .text	0000004e emovo.isra.6
20012826 l     F .text	000000aa e113toe.isra.8
200128d0 l     F .text	00000230 emdnorm
20012b00 l     F .text	0000008c eiremain
20012b8c l     F .text	0000019c emul
20012d28 l     F .text	00000222 ediv
2001ddcc l     O .rodata	00000014 ezero
2001dde0 l     O .rodata	00000104 etens
2001dee4 l     O .rodata	00000014 eone
2001def8 l     O .rodata	00000022 bmask
2001df1c l     O .rodata	00000104 emtens
00000000 l    df *ABS*	00000000 localeconv.c
00000000 l    df *ABS*	00000000 locale.c
00000000 l    df *ABS*	00000000 makebuf.c
00000000 l    df *ABS*	00000000 mallocr.c
00000000 l    df *ABS*	00000000 mbtowc_r.c
00000000 l    df *ABS*	00000000 memchr.c
00000000 l    df *ABS*	00000000 mlock.c
00000000 l    df *ABS*	00000000 mprec.c
2001e058 l     O .rodata	0000000c p05.3308
00000000 l    df *ABS*	00000000 sbrkr.c
00000000 l    df *ABS*	00000000 s_frexp.c
00000000 l    df *ABS*	00000000 sprintf.c
00000000 l    df *ABS*	00000000 stdio.c
00000000 l    df *ABS*	00000000 strcpy.c
00000000 l    df *ABS*	00000000 strlen.c
00000000 l    df *ABS*	00000000 strncpy.c
00000000 l    df *ABS*	00000000 vfprintf.c
2001e2ec l     O .rodata	00000010 blanks.4498
2001e2fc l     O .rodata	00000010 zeroes.4499
00000000 l    df *ABS*	00000000 vfprintf.c
20016c9a l     F .text	0000008c __sbprintf
2001e478 l     O .rodata	00000010 blanks.4489
2001e488 l     O .rodata	00000010 zeroes.4490
00000000 l    df *ABS*	00000000 wctomb_r.c
00000000 l    df *ABS*	00000000 writer.c
00000000 l    df *ABS*	00000000 mallocr.c
00000000 l    df *ABS*	00000000 closer.c
00000000 l    df *ABS*	00000000 fclose.c
00000000 l    df *ABS*	00000000 fputwc.c
00000000 l    df *ABS*	00000000 fstatr.c
00000000 l    df *ABS*	00000000 fvwrite.c
00000000 l    df *ABS*	00000000 isattyr.c
00000000 l    df *ABS*	00000000 lseekr.c
00000000 l    df *ABS*	00000000 memcpy.c
00000000 l    df *ABS*	00000000 memmove.c
00000000 l    df *ABS*	00000000 readr.c
00000000 l    df *ABS*	00000000 mallocr.c
00000000 l    df *ABS*	00000000 vfprintf.c
2001e708 l     O .rodata	00000010 blanks.4475
2001e718 l     O .rodata	00000010 zeroes.4476
00000000 l    df *ABS*	00000000 wbuf.c
00000000 l    df *ABS*	00000000 wcrtomb.c
00000000 l    df *ABS*	00000000 libgcc2.c
00000000 l    df *ABS*	00000000 libgcc2.c
00000000 l    df *ABS*	00000000 divdf3.c
00000000 l    df *ABS*	00000000 muldf3.c
00000000 l    df *ABS*	00000000 eqtf2.c
00000000 l    df *ABS*	00000000 getf2.c
00000000 l    df *ABS*	00000000 letf2.c
00000000 l    df *ABS*	00000000 multf3.c
00000000 l    df *ABS*	00000000 subtf3.c
00000000 l    df *ABS*	00000000 fixtfsi.c
00000000 l    df *ABS*	00000000 floatsitf.c
00000000 l    df *ABS*	00000000 extenddftf2.c
00000000 l    df *ABS*	00000000 trunctfdf2.c
00000000 l    df *ABS*	00000000 libgcc2.c
00000000 l    df *ABS*	00000000 sys_close.c
00000000 l    df *ABS*	00000000 sys_fstat.c
00000000 l    df *ABS*	00000000 sys_isatty.c
00000000 l    df *ABS*	00000000 sys_lseek.c
00000000 l    df *ABS*	00000000 sys_read.c
00000000 l    df *ABS*	00000000 sys_sbrk.c
80001204 l     O .data	00000004 brk
00000000 l    df *ABS*	00000000 sys_write.c
00000000 l    df *ABS*	00000000 atexit.c
00000000 l    df *ABS*	00000000 errno.c
00000000 l    df *ABS*	00000000 exit.c
00000000 l    df *ABS*	00000000 fini.c
00000000 l    df *ABS*	00000000 init.c
00000000 l    df *ABS*	00000000 __atexit.c
00000000 l    df *ABS*	00000000 __call_atexit.c
00000000 l    df *ABS*	00000000 tty.c
2001b8f4 l     F .text	00000022 metal_tty_init
00000000 l    df *ABS*	00000000 uart.c
00000000 l    df *ABS*	00000000 fixed-clock.c
00000000 l    df *ABS*	00000000 riscv,clint0.c
00000000 l    df *ABS*	00000000 riscv,cpu.c
00000000 l    df *ABS*	00000000 riscv,plic0.c
00000000 l    df *ABS*	00000000 sifive,fe310-g000,hfrosc.c
00000000 l    df *ABS*	00000000 sifive,fe310-g000,hfxosc.c
00000000 l    df *ABS*	00000000 sifive,fe310-g000,pll.c
2001eb48 l     O .rodata	00000880 pll_configs
2001cfe4 l     F .text	0000004e get_pll_config_freq
2001d032 l     F .text	00000028 metal_sifive_fe310_g000_pll_init
2001d25a l     F .text	000000aa find_closest_config
2001d304 l     F .text	00000132 configure_pll
2001d57a l     F .text	00000028 use_hfxosc
00000000 l    df *ABS*	00000000 sifive,fe310-g000,prci.c
00000000 l    df *ABS*	00000000 sifive,gpio0.c
00000000 l    df *ABS*	00000000 sifive,uart0.c
2001d926 l     F .text	000000d0 pre_rate_change_callback
2001d9f6 l     F .text	00000030 post_rate_change_callback
00000000 l    df *ABS*	00000000 clock.c
00000000 l    df *ABS*	00000000 shutdown.c
00000000 l    df *ABS*	00000000 sys_exit.c
00000000 l    df *ABS*	00000000 ctype_.c
00000000 l    df *ABS*	00000000 libgcc2.c
00000000 l    df *ABS*	00000000 impure.c
80000000 l     O .data	00000428 impure_data
00000000 l    df *ABS*	00000000 
2001f3d4 l       .init_array	00000000 __init_array_end
2001f3c8 l       .init_array	00000000 __preinit_array_end
2001f3c8 l       .init_array	00000000 __init_array_start
2001f3c8 l       .init_array	00000000 __preinit_array_start
2001e9a0  w    O .rodata	0000001c __metal_driver_vtable_sifive_uart0
200148f4 g     F .text	0000005a _mprec_log10
20014984 g     F .text	00000046 __any_on
200172da g     F .text	0000002a _isatty_r
2001e130 g     O .rodata	00000028 __mprec_tinytens
20014cda g     F .text	00000012 strcpy
20017304 g     F .text	0000002e _lseek_r
2001daba g     F .text	00000026 metal_clock_get_rate_hz
2001d88e g     F .text	00000098 __metal_driver_sifive_uart0_set_baud_rate
200193f8 g     F .text	000000fa .hidden __getf2
2001c220 g     F .text	00000038 __metal_valid_interrupt_id
20019352 g     F .text	000000a6 .hidden __eqtf2
200103b4 g     F .text	0000002e printf
800019f8 g       .data	00000000 __global_pointer$
20018298 g     F .text	0000005e _wcrtomb_r
2001cabc g     F .text	0000002c __metal_plic0_complete_interrupt
2001c452 g     F .text	0000014a __metal_driver_riscv_cpu_controller_interrupt_register
20014b7c g     F .text	00000038 __sseek
20011de4 g     F .text	0000004e __sinit
200181ce g     F .text	000000ba __swbuf_r
200138ba g     F .text	00000058 _setlocale_r
20011d94 g     F .text	00000048 __sfmoreglue
2001408c g     F .text	00000002 __malloc_unlock
2001b070 g     F .text	000000f8 .hidden __floatsitf
80001140  w    O .data	00000030 __metal_dt_serial_10013000
2001e94c  w    O .rodata	0000001c __metal_driver_vtable_riscv_clint0
80001288 g       .bss	00000000 metal_segment_bss_target_end
2001b9e4 g     F .text	00000076 __metal_clint0_mtime_get
2001ca34 g     F .text	00000028 __metal_driver_cpu_get_instruction_length
200173e8 g     F .text	0000004a memmove
20011ddc g     F .text	00000008 _cleanup
20013934 g     F .text	0000001c __locale_ctype_ptr
2001408e g     F .text	00000066 _Balloc
2001d5f4 g     F .text	00000040 __metal_driver_sifive_gpio0_disable_input
2001b6c2 g     F .text	0000000c __errno
2001ba5a g     F .text	00000058 __metal_clint0_mtime_set
80000000 g       .ditimalign	00000000 metal_segment_itim_target_start
2001387c g     F .text	00000006 __localeconv_l
8000124c g       .bss	00000000 metal_segment_bss_target_start
20016fd4 g     F .text	0000002c _fstat_r
2001c5f4 g     F .text	00000066 __metal_driver_riscv_cpu_controller_interrupt_enable_vector
80001280 g     O .bss	00000004 errno
2001d104 g     F .text	00000156 __metal_driver_sifive_fe310_g000_pll_get_rate_hz
200102ac g       .text	00000000 securemul
20014b26 g     F .text	00000004 __seofread
00000400 g       *ABS*	00000000 __stack_size
2001db44 g     F .text	0000002e metal_clock_register_pre_rate_change_callback
2001e968  w    O .rodata	0000001c __metal_driver_vtable_riscv_plic0
2001e90c  w    O .rodata	00000040 __metal_driver_vtable_cpu
2001b972 g     F .text	0000002e metal_uart_set_baud_rate
2001da26 g     F .text	00000094 __metal_driver_sifive_uart0_init
20017332 g     F .text	000000b6 memcpy
2001e9bc  w    O .rodata	0000000c __metal_driver_vtable_sifive_fe310_g000_pll
80001684 g       .heap	00000000 metal_segment_heap_target_start
20011d86 g     F .text	0000000a _cleanup_r
20014d22 g     F .text	000015da _svfprintf_r
800009f8  w    O .data	00000010 __metal_dt_cpu_0
2001d436 g     F .text	00000144 __metal_driver_sifive_fe310_g000_pll_set_rate_hz
20014884 g     F .text	00000070 __ratio
2001bece g     F .text	00000018 __metal_default_exception_handler
20010394 g     F .text	00000020 _printf_r
200194f2 g     F .text	000000fa .hidden __letf2
2001b54c g     F .text	00000026 _fstat
2001e068 g     O .rodata	000000c8 __mprec_tens
2001cb12 g     F .text	00000048 __metal_plic0_set_priority
2001bd64 g     F .text	0000002c __metal_driver_cpu_get
2001e8f0  w    O .rodata	0000001c __metal_driver_vtable_riscv_cpu_intc
80001254 g     O .bss	00000004 __malloc_top_pad
2001bdc2 g     F .text	00000018 __metal_interrupt_global_disable
20013882 g     F .text	0000001c _localeconv_r
20017000 g     F .text	000002da __sfvwrite_r
200142ec g     F .text	0000001a __i2b
200149ca g     F .text	0000002a _sbrk_r
2001c30e g     F .text	0000004e __metal_exception_register
2001ceb0 g     F .text	00000044 __metal_driver_riscv_plic0_disable
20017432 g     F .text	0000002e _read_r
2001c834 g     F .text	0000001a __metal_driver_cpu_timer_controller_interrupt
2001d658 g     F .text	0000003a __metal_driver_sifive_gpio0_enable_output
20016e32 g     F .text	0000008e _fclose_r
2001c6b2 g     F .text	00000072 __metal_driver_cpu_timer_get
20011cf8 g     F .text	00000020 fflush
80001250 g     O .bss	00000004 __malloc_max_sbrked_mem
2001befe g     F .text	00000066 __metal_default_sw_handler
2001db72 g     F .text	0000002e metal_clock_register_post_rate_change_callback
20014706 g     F .text	000000b2 __b2d
800009b8  w    O .data	0000001c __metal_dt_clock_2
2001d7ac g     F .text	00000020 __metal_driver_sifive_uart0_interrupt_controller
20018666 g     F .text	00000352 .hidden __umoddi3
2001b572 g     F .text	00000020 _isatty
2001d70c g     F .text	0000003a __metal_driver_sifive_gpio0_output_toggle
2001c65a g     F .text	0000003c __metal_driver_riscv_cpu_controller_interrupt_disable_vector
80001208  w    O .data	00000008 __metal_driver_vtable_fixed_clock
80001248 g     O .data	00000004 _global_impure_ptr
20017460 g     F .text	000003a0 _realloc_r
2001b726 g     F .text	0000006e __libc_init_array
2001d692 g     F .text	0000003a __metal_driver_sifive_gpio0_output_set
20018308 g     F .text	0000035e .hidden __udivdi3
2001cfc0 g     F .text	00000024 __metal_driver_sifive_fe310_g000_hfxosc_set_rate_hz
20016f82 g     F .text	0000001e _fputwc_r
2001e158 g     O .rodata	00000028 __mprec_bigtens
2001419c g     F .text	000000a0 __s2b
2001c59c g     F .text	0000002c __metal_driver_riscv_cpu_controller_interrupt_enable
2001b5e6 g     F .text	00000064 _sbrk
200145a2 g     F .text	00000032 __mcmp
20011ed6 g     F .text	00000014 __fp_lock_all
2001012e g     F .init	00000002 _init
2001be24 g     F .text	0000001a __metal_interrupt_timer_disable
2001c8fa g     F .text	0000006a __metal_driver_cpu_clear_sw_ipi
2001e984  w    O .rodata	0000001c __metal_driver_vtable_sifive_gpio0
2001d746 g     F .text	00000066 __metal_driver_sifive_gpio0_enable_io
2001b6ec g     F .text	0000003a __libc_fini_array
800011b8  w    O .data	00000034 __metal_dt_clock_4
2001c87c g     F .text	00000014 __metal_driver_cpu_get_sw_interrupt_id
2001423c g     F .text	00000046 __hi0bits
80000000 g       .dalign	00000000 metal_segment_data_target_start
2001be76 g     F .text	0000002c __metal_interrupt_local_enable
2001b8a4 g     F .text	00000050 metal_tty_putc
2001cbe4 g     F .text	00000018 __metal_plic0_default_handler
8000099c  w    O .data	0000001c __metal_dt_clock_0
2001af84 g     F .text	000000ec .hidden __fixtfsi
20010374 g       .text	00000000 add
00000400 g       *ABS*	00000000 __heap_size
20014448 g     F .text	00000090 __pow5mult
2001be5a g     F .text	0000001c __metal_interrupt_external_disable
2001d7cc g     F .text	00000024 __metal_driver_sifive_uart0_get_interrupt_id
2001c696 g     F .text	0000001c __metal_driver_riscv_cpu_controller_command_request
2001c35c g     F .text	000000f6 __metal_driver_riscv_cpu_controller_interrupt_init
2001b4ea g     F .text	0000003c .hidden __clzsi2
2001c9ec g     F .text	00000048 __metal_driver_cpu_exception_register
2001bdda g     F .text	00000018 __metal_interrupt_software_enable
20011ece g     F .text	00000002 __sfp_lock_acquire
20013fc8 g     F .text	0000001a memchr
20014a72 g     F .text	0000003a _sprintf_r
20011fce g     F .text	000001d0 _free_r
20013912 g     F .text	0000001c __locale_mb_cur_max
2001b7f6 g     F .text	000000ae __call_exitprocs
20010054 g     F .init	00000000 _start
800011fc g     O .data	00000004 __malloc_sbrk_base
2001cef4 g     F .text	0000005c __metal_driver_sifive_fe310_g000_hfrosc_get_rate_hz
2001b592 g     F .text	0000002a _lseek
200144d8 g     F .text	000000ca __lshift
200194f2 g     F .text	000000fa .hidden __lttf2
2001c9cc g     F .text	00000020 __metal_driver_cpu_controller_interrupt
2001ca5c g     F .text	0000001e __metal_driver_cpu_get_exception_pc
20019352 g     F .text	000000a6 .hidden __netf2
20017800 g     F .text	00000134 __ssprint_r
2001be3e g     F .text	0000001c __metal_interrupt_external_enable
2001b794 g     F .text	00000062 __register_exitproc
2001d7f0 g     F .text	00000036 __metal_driver_sifive_uart0_putc
2001cc8a g     F .text	00000120 __metal_driver_riscv_plic0_init
2001ce6c g     F .text	00000044 __metal_driver_riscv_plic0_enable
2001383e g     F .text	0000003e _ldcheck
20014306 g     F .text	00000142 __multiply
2001d634 g     F .text	00000024 __metal_driver_sifive_gpio0_output
20014cfe g     F .text	00000024 strncpy
80001258 g     O .bss	00000028 __malloc_current_mallinfo
2001bd90 g     F .text	0000001a __metal_myhart_id
200147b8 g     F .text	000000cc __d2b
2001b168 g     F .text	00000152 .hidden __extenddftf2
2001c5c8 g     F .text	0000002c __metal_driver_riscv_cpu_controller_interrupt_disable
20016e08 g     F .text	0000002a _close_r
2001d86e g     F .text	00000020 __metal_driver_sifive_uart0_get_baud_rate
2001bb30 g     F .text	00000062 __metal_driver_riscv_clint0_register
800009d4  w    O .data	00000024 __metal_dt_clint_2000000
20011a94 g     F .text	000000dc __swsetup_r
200189b8 g     F .text	0000054a .hidden __divdf3
20011e32 g     F .text	0000009c __sfp
2001494e g     F .text	00000036 __copybits
80000594 g     O .data	00000408 __malloc_av_
20011ed4 g     F .text	00000002 __sinit_lock_release
2001dae0 g     F .text	00000064 metal_clock_set_rate_hz
20018f02 g     F .text	00000450 .hidden __muldf3
20014af4 g     F .text	00000032 __sread
2001408a g     F .text	00000002 __malloc_lock
20011cca g     F .text	0000002e _fflush_r
20016d90 g     F .text	00000078 _calloc_r
2001d5a2 g     F .text	00000024 __metal_driver_sifive_fe310_g000_prci_get_reg
2001c258 g     F .text	000000b6 __metal_local_interrupt_enable
2001bc3e g     F .text	00000126 __metal_driver_riscv_clint0_command_request
20013fe2 g     F .text	000000a8 memset
20010180 g     F .text	0000012c main
20010380 g       .text	00000000 getcycles
8000124c g     O .bss	00000004 __malloc_max_total_mem
8000124c g       .bss	00000000 metal_segment_data_target_end
20018288 g     F .text	00000010 __swbuf
80001218  w    O .data	00000008 __metal_driver_vtable_sifive_fe310_g000_hfrosc
2001c890 g     F .text	0000006a __metal_driver_cpu_set_sw_ipi
2001c964 g     F .text	00000068 __metal_driver_cpu_get_msip
2001dba0 g     F .text	0000000e metal_shutdown
80000000 g       .init_array	00000000 metal_segment_itim_target_end
2001ca7a g     F .text	00000020 __metal_driver_cpu_set_exception_pc
2001ca9a g     F .text	00000022 __metal_plic0_claim_interrupt
20014bb4 g     F .text	00000008 __sclose
20016ec0 g     F .text	0000000e fclose
20013a64 g     F .text	0000050e _malloc_r
20016d42 g     F .text	00000020 __ascii_wctomb
80001684 g       .stack	00000000 metal_segment_stack_end
2001219e g     F .text	00000062 _fwalk
800011ec  w    O .data	0000000c __metal_dt_prci_10008000
20013f72 g     F .text	0000001c _mbtowc_r
2001c724 g     F .text	00000034 __metal_driver_cpu_timebase_get
20011efe g     F .text	000000d0 _malloc_trim_r
20010000 g       .init	00000000 _enter
20014bbc g     F .text	0000011e strcmp
2001cf74 g     F .text	0000004c __metal_driver_sifive_fe310_g000_hfxosc_get_rate_hz
2001f3d4 g       .litimalign	00000000 metal_segment_itim_source_start
20016c86 g     F .text	00000014 vfiprintf
80001228  w    O .data	00000004 __metal_cpu_table
200195ec g     F .text	00000b3c .hidden __multf3
2001012e g     F .init	00000002 _fini
20014aac g     F .text	00000048 sprintf
2001e7dc g     O .rodata	00000100 .hidden __clz_tab
2001bdaa g     F .text	00000018 __metal_interrupt_global_enable
2001b6b8 g     F .text	0000000a atexit
20016d62 g     F .text	0000002e _write_r
20013950 g     F .text	00000010 setlocale
2001be0a g     F .text	0000001a __metal_interrupt_timer_enable
2001d826 g     F .text	00000048 __metal_driver_sifive_uart0_getc
2001bbe8 g     F .text	00000056 __metal_driver_riscv_clint0_disable
800011f8 g     O .data	00000004 _impure_ptr
2001c7c6 g     F .text	0000006e __metal_driver_cpu_mtimecmp_set
20011b70 g     F .text	0000015a __sflush_r
200193f8 g     F .text	000000fa .hidden __gttf2
2001d05a g     F .text	000000aa __metal_driver_sifive_fe310_g000_pll_init
20017934 g     F .text	0000089a _svfiprintf_r
20013f8e g     F .text	0000003a __ascii_mbtowc
2001a128 g     F .text	00000e5c .hidden __subtf3
200146c0 g     F .text	00000046 __ulp
20011eea g     F .text	00000014 __fp_unlock_all
2001d5c6 g     F .text	0000002e __metal_driver_sifive_fe310_g000_prci_set_reg
2001b9a0 g     F .text	00000020 __metal_driver_fixed_clock_get_rate_hz
2001bb92 g     F .text	00000056 __metal_driver_riscv_clint0_enable
2001f3d4 g       .lalign	00000000 metal_segment_data_source_start
80004000 g       .heap	00000000 metal_segment_heap_target_end
2001c17a g     F .text	000000a6 __metal_controller_interrupt_vector
80001194  w    O .data	00000024 __metal_dt_clock_1
2001389e g     F .text	0000001c localeconv
80000dc8  w    O .data	00000320 __metal_dt_interrupt_controller_c000000
20013960 g     F .text	00000066 __swhatbuf_r
2001d6cc g     F .text	00000040 __metal_driver_sifive_gpio0_output_clear
80000a08  w    O .data	000003c0 __metal_dt_interrupt_controller
2001bf64 g     F .text	0000006a __metal_default_timer_handler
2001b64a g     F .text	0000006e _write
2001cbfc g     F .text	0000008e __metal_plic0_handler
20016ece g     F .text	000000b4 __fputwc
20014b2a g     F .text	00000052 __swrite
80001200 g     O .data	00000004 __malloc_trim_threshold
2001b6ce g     F .text	0000001e exit
20016398 g     F .text	000008ee _vfiprintf_r
20012200 g     F .text	0000006c _fwalk_reent
200145d4 g     F .text	000000ec __mdiff
2001b9c0 g     F .text	00000024 __metal_driver_fixed_clock_set_rate_hz
20011ed0 g     F .text	00000002 __sfp_lock_release
20012f4a g     F .text	000008f4 _ldtoa_r
800010e8  w    O .data	00000058 __metal_dt_gpio_10012000
2001bee6 g     F .text	00000018 __metal_default_interrupt_handler
2001e498 g     O .rodata	00000101 _ctype_
2001b940 g     F .text	00000032 metal_uart_putc
2001b5bc g     F .text	0000002a _read
2001c000 g     F .text	0000014c __metal_exception_handler
2001dbae g     F .text	00000014 _exit
2001c758 g     F .text	0000006e __metal_driver_cpu_mtime_get
200139c6 g     F .text	0000009e __smakebuf_r
20014cec g     F .text	00000012 strlen
2001392e g     F .text	00000006 __locale_ctype_ptr_l
80001220  w    O .data	00000008 __metal_driver_vtable_sifive_fe310_g000_hfxosc
200162fc g     F .text	0000009c __sprint_r
2001bab2 g     F .text	0000007e __metal_driver_riscv_clint0_init
20016d26 g     F .text	0000001c _wctomb_r
200103e2 g     F .text	00001614 _vfprintf_r
20014282 g     F .text	0000006a __lo0bits
2001c84e g     F .text	00000014 __metal_driver_cpu_get_timer_interrupt_id
2001cb5a g     F .text	0000008a __metal_plic0_enable
2001cf50 g     F .text	00000024 __metal_driver_sifive_fe310_g000_hfrosc_set_rate_hz
2001c862 g     F .text	0000001a __metal_driver_cpu_sw_controller_interrupt
200182f6 g     F .text	00000012 wcrtomb
2001bea2 g     F .text	0000002c __metal_interrupt_local_disable
2001bdf2 g     F .text	00000018 __metal_interrupt_software_disable
200149f4 g     F .text	0000007e frexp
2001b916 g     F .text	0000002a metal_uart_init
80000428 g     O .data	0000016c __global_locale
80001170  w    O .data	00000024 __metal_dt_clock_3
2001cae8 g     F .text	0000002a __metal_plic0_set_threshold
200119f6 g     F .text	00000014 vfprintf
2001b2ba g     F .text	00000230 .hidden __trunctfdf2
20016fa0 g     F .text	00000034 fputwc
2001b52a g     F .text	00000022 _close
80001210  w    O .data	00000008 __metal_driver_vtable_sifive_fe310_g000_prci
20011ed2 g     F .text	00000002 __sinit_lock_acquire
20014108 g     F .text	00000094 __multadd
200140f4 g     F .text	00000014 _Bfree
2001cdaa g     F .text	000000c2 __metal_driver_riscv_plic0_register



Disassembly of section .init:

20010000 <_enter>:
20010000:	5fff2197          	auipc	gp,0x5fff2
20010004:	9f818193          	addi	gp,gp,-1544 # 800019f8 <__global_pointer$>
20010008:	0000b297          	auipc	t0,0xb
2001000c:	52028293          	addi	t0,t0,1312 # 2001b528 <early_trap_vector>
20010010:	30529073          	csrw	mtvec,t0
20010014:	dfff0117          	auipc	sp,0xdfff0
20010018:	fec10113          	addi	sp,sp,-20 # 0 <__heap_size-0x400>
2001001c:	dfff0097          	auipc	ra,0xdfff0
20010020:	fe408093          	addi	ra,ra,-28 # 0 <__heap_size-0x400>
20010024:	00008363          	beqz	ra,2001002a <_enter+0x2a>
20010028:	9082                	jalr	ra
2001002a:	f1402573          	csrr	a0,mhartid
2001002e:	4581                	li	a1,0
20010030:	4601                	li	a2,0
20010032:	200d                	jal	20010054 <_start>
20010034:	dfff0097          	auipc	ra,0xdfff0
20010038:	fcc08093          	addi	ra,ra,-52 # 0 <__heap_size-0x400>
2001003c:	00008363          	beqz	ra,20010042 <_enter+0x42>
20010040:	9082                	jalr	ra
20010042:	00000297          	auipc	t0,0x0
20010046:	00c28293          	addi	t0,t0,12 # 2001004e <_enter+0x4e>
2001004a:	30529073          	csrw	mtvec,t0
2001004e:	00002303          	lw	t1,0(zero) # 0 <__heap_size-0x400>
20010052:	bff5                	j	2001004e <_enter+0x4e>

20010054 <_start>:
20010054:	8406                	mv	s0,ra
20010056:	5fff2197          	auipc	gp,0x5fff2
2001005a:	9a218193          	addi	gp,gp,-1630 # 800019f8 <__global_pointer$>
2001005e:	c8c18113          	addi	sp,gp,-884 # 80001684 <metal_segment_stack_end>
20010062:	ff017113          	andi	sp,sp,-16
20010066:	e101                	bnez	a0,20010066 <_start+0x12>
20010068:	0000f297          	auipc	t0,0xf
2001006c:	36c28293          	addi	t0,t0,876 # 2001f3d4 <__init_array_end>
20010070:	5fff0317          	auipc	t1,0x5fff0
20010074:	f9030313          	addi	t1,t1,-112 # 80000000 <metal_segment_itim_target_end>
20010078:	5fff1397          	auipc	t2,0x5fff1
2001007c:	1d438393          	addi	t2,t2,468 # 8000124c <__malloc_max_total_mem>
20010080:	00628c63          	beq	t0,t1,20010098 <_start+0x44>
20010084:	00735a63          	bge	t1,t2,20010098 <_start+0x44>
20010088:	0002a503          	lw	a0,0(t0)
2001008c:	0291                	addi	t0,t0,4
2001008e:	00a32023          	sw	a0,0(t1)
20010092:	0311                	addi	t1,t1,4
20010094:	fe734ae3          	blt	t1,t2,20010088 <_start+0x34>
20010098:	0000f297          	auipc	t0,0xf
2001009c:	33c28293          	addi	t0,t0,828 # 2001f3d4 <__init_array_end>
200100a0:	5fff0317          	auipc	t1,0x5fff0
200100a4:	f6030313          	addi	t1,t1,-160 # 80000000 <metal_segment_itim_target_end>
200100a8:	5fff0397          	auipc	t2,0x5fff0
200100ac:	f5838393          	addi	t2,t2,-168 # 80000000 <metal_segment_itim_target_end>
200100b0:	00628c63          	beq	t0,t1,200100c8 <_start+0x74>
200100b4:	00735a63          	bge	t1,t2,200100c8 <_start+0x74>
200100b8:	0002a503          	lw	a0,0(t0)
200100bc:	0291                	addi	t0,t0,4
200100be:	00a32023          	sw	a0,0(t1)
200100c2:	0311                	addi	t1,t1,4
200100c4:	fe734ae3          	blt	t1,t2,200100b8 <_start+0x64>
200100c8:	5fff1317          	auipc	t1,0x5fff1
200100cc:	18430313          	addi	t1,t1,388 # 8000124c <__malloc_max_total_mem>
200100d0:	89018393          	addi	t2,gp,-1904 # 80001288 <metal_segment_bss_target_end>
200100d4:	00735763          	bge	t1,t2,200100e2 <_start+0x8e>
200100d8:	00032023          	sw	zero,0(t1)
200100dc:	0311                	addi	t1,t1,4
200100de:	fe734de3          	blt	t1,t2,200100d8 <_start+0x84>
200100e2:	c211                	beqz	a2,200100e6 <_start+0x92>
200100e4:	9602                	jalr	a2
200100e6:	0000b517          	auipc	a0,0xb
200100ea:	60650513          	addi	a0,a0,1542 # 2001b6ec <__libc_fini_array>
200100ee:	5ca0b0ef          	jal	ra,2001b6b8 <atexit>
200100f2:	6340b0ef          	jal	ra,2001b726 <__libc_init_array>
200100f6:	301027f3          	csrr	a5,misa
200100fa:	00010737          	lui	a4,0x10
200100fe:	02870713          	addi	a4,a4,40 # 10028 <__heap_size+0xfc28>
20010102:	8ff9                	and	a5,a5,a4
20010104:	c799                	beqz	a5,20010112 <_start+0xbe>
20010106:	300027f3          	csrr	a5,mstatus
2001010a:	6709                	lui	a4,0x2
2001010c:	8fd9                	or	a5,a5,a4
2001010e:	30079073          	csrw	mstatus,a5
20010112:	4505                	li	a0,1
20010114:	0000e597          	auipc	a1,0xe
20010118:	7c858593          	addi	a1,a1,1992 # 2001e8dc <argv>
2001011c:	0000e617          	auipc	a2,0xe
20010120:	7c460613          	addi	a2,a2,1988 # 2001e8e0 <envp>
20010124:	28b1                	jal	20010180 <main>
20010126:	5a80b0ef          	jal	ra,2001b6ce <exit>
2001012a:	80a2                	mv	ra,s0
2001012c:	8082                	ret

2001012e <_fini>:
2001012e:	8082                	ret

Disassembly of section .text:

20010180 <main>:
20010180:	fa010113          	addi	sp,sp,-96
20010184:	04112e23          	sw	ra,92(sp)
20010188:	04812c23          	sw	s0,88(sp)
2001018c:	06010413          	addi	s0,sp,96
20010190:	00000513          	li	a0,0
20010194:	fea42a23          	sw	a0,-12(s0)
20010198:	00a00593          	li	a1,10
2001019c:	fcb42e23          	sw	a1,-36(s0)
200101a0:	03200593          	li	a1,50
200101a4:	fcb42c23          	sw	a1,-40(s0)
200101a8:	fca42823          	sw	a0,-48(s0)
200101ac:	00000097          	auipc	ra,0x0
200101b0:	100080e7          	jalr	256(ra) # 200102ac <securemul>
200101b4:	fca42623          	sw	a0,-52(s0)
200101b8:	00000097          	auipc	ra,0x0
200101bc:	0f4080e7          	jalr	244(ra) # 200102ac <securemul>
200101c0:	fca42423          	sw	a0,-56(s0)
200101c4:	00000097          	auipc	ra,0x0
200101c8:	1bc080e7          	jalr	444(ra) # 20010380 <getcycles>
200101cc:	fca42223          	sw	a0,-60(s0)
200101d0:	fcb42023          	sw	a1,-64(s0)
200101d4:	00000097          	auipc	ra,0x0
200101d8:	0d8080e7          	jalr	216(ra) # 200102ac <securemul>
200101dc:	faa42e23          	sw	a0,-68(s0)
200101e0:	00000097          	auipc	ra,0x0
200101e4:	1a0080e7          	jalr	416(ra) # 20010380 <getcycles>
200101e8:	faa42c23          	sw	a0,-72(s0)
200101ec:	fab42a23          	sw	a1,-76(s0)
200101f0:	00000097          	auipc	ra,0x0
200101f4:	0bc080e7          	jalr	188(ra) # 200102ac <securemul>
200101f8:	faa42823          	sw	a0,-80(s0)
200101fc:	00000097          	auipc	ra,0x0
20010200:	184080e7          	jalr	388(ra) # 20010380 <getcycles>
20010204:	feb42623          	sw	a1,-20(s0)
20010208:	fea42423          	sw	a0,-24(s0)
2001020c:	00000097          	auipc	ra,0x0
20010210:	0a0080e7          	jalr	160(ra) # 200102ac <securemul>
20010214:	fca42a23          	sw	a0,-44(s0)
20010218:	00000097          	auipc	ra,0x0
2001021c:	168080e7          	jalr	360(ra) # 20010380 <getcycles>
20010220:	feb42223          	sw	a1,-28(s0)
20010224:	fea42023          	sw	a0,-32(s0)
20010228:	fe442503          	lw	a0,-28(s0)
2001022c:	fe042583          	lw	a1,-32(s0)
20010230:	fec42603          	lw	a2,-20(s0)
20010234:	fe842683          	lw	a3,-24(s0)
20010238:	00d5b733          	sltu	a4,a1,a3
2001023c:	40c50533          	sub	a0,a0,a2
20010240:	40e50533          	sub	a0,a0,a4
20010244:	40d58633          	sub	a2,a1,a3
20010248:	2001e5b7          	lui	a1,0x2001e
2001024c:	bc858593          	addi	a1,a1,-1080 # 2001dbc8 <_exit+0x1a>
20010250:	faa42623          	sw	a0,-84(s0)
20010254:	00058513          	mv	a0,a1
20010258:	fac42683          	lw	a3,-84(s0)
2001025c:	00000097          	auipc	ra,0x0
20010260:	158080e7          	jalr	344(ra) # 200103b4 <printf>
20010264:	fdc42583          	lw	a1,-36(s0)
20010268:	fd842603          	lw	a2,-40(s0)
2001026c:	fd442683          	lw	a3,-44(s0)
20010270:	2001e737          	lui	a4,0x2001e
20010274:	bdf70713          	addi	a4,a4,-1057 # 2001dbdf <_exit+0x31>
20010278:	faa42423          	sw	a0,-88(s0)
2001027c:	00070513          	mv	a0,a4
20010280:	fad42223          	sw	a3,-92(s0)
20010284:	fa442703          	lw	a4,-92(s0)
20010288:	00000097          	auipc	ra,0x0
2001028c:	12c080e7          	jalr	300(ra) # 200103b4 <printf>
20010290:	fd042583          	lw	a1,-48(s0)
20010294:	faa42023          	sw	a0,-96(s0)
20010298:	00058513          	mv	a0,a1
2001029c:	05812403          	lw	s0,88(sp)
200102a0:	05c12083          	lw	ra,92(sp)
200102a4:	06010113          	addi	sp,sp,96
200102a8:	00008067          	ret

200102ac <securemul>:
200102ac:	00a00293          	li	t0,10
200102b0:	03200313          	li	t1,50
200102b4:	00000513          	li	a0,0
200102b8:	0012f393          	andi	t2,t0,1
200102bc:	407003b3          	neg	t2,t2
200102c0:	00737e33          	and	t3,t1,t2
200102c4:	01c50533          	add	a0,a0,t3
200102c8:	0012d293          	srli	t0,t0,0x1
200102cc:	00131313          	slli	t1,t1,0x1
200102d0:	0012f393          	andi	t2,t0,1
200102d4:	407003b3          	neg	t2,t2
200102d8:	00737e33          	and	t3,t1,t2
200102dc:	01c50533          	add	a0,a0,t3
200102e0:	0012d293          	srli	t0,t0,0x1
200102e4:	00131313          	slli	t1,t1,0x1
200102e8:	0012f393          	andi	t2,t0,1
200102ec:	407003b3          	neg	t2,t2
200102f0:	00737e33          	and	t3,t1,t2
200102f4:	01c50533          	add	a0,a0,t3
200102f8:	0012d293          	srli	t0,t0,0x1
200102fc:	00131313          	slli	t1,t1,0x1
20010300:	0012f393          	andi	t2,t0,1
20010304:	407003b3          	neg	t2,t2
20010308:	00737e33          	and	t3,t1,t2
2001030c:	01c50533          	add	a0,a0,t3
20010310:	0012d293          	srli	t0,t0,0x1
20010314:	00131313          	slli	t1,t1,0x1
20010318:	0012f393          	andi	t2,t0,1
2001031c:	407003b3          	neg	t2,t2
20010320:	00737e33          	and	t3,t1,t2
20010324:	01c50533          	add	a0,a0,t3
20010328:	0012d293          	srli	t0,t0,0x1
2001032c:	00131313          	slli	t1,t1,0x1
20010330:	0012f393          	andi	t2,t0,1
20010334:	407003b3          	neg	t2,t2
20010338:	00737e33          	and	t3,t1,t2
2001033c:	01c50533          	add	a0,a0,t3
20010340:	0012d293          	srli	t0,t0,0x1
20010344:	00131313          	slli	t1,t1,0x1
20010348:	0012f393          	andi	t2,t0,1
2001034c:	407003b3          	neg	t2,t2
20010350:	00737e33          	and	t3,t1,t2
20010354:	01c50533          	add	a0,a0,t3
20010358:	0012d293          	srli	t0,t0,0x1
2001035c:	00131313          	slli	t1,t1,0x1
20010360:	0012f393          	andi	t2,t0,1
20010364:	407003b3          	neg	t2,t2
20010368:	00737e33          	and	t3,t1,t2
2001036c:	01c50533          	add	a0,a0,t3
20010370:	00008067          	ret

20010374 <add>:
20010374:	00b50533          	add	a0,a0,a1
20010378:	006282b3          	add	t0,t0,t1
2001037c:	00008067          	ret

20010380 <getcycles>:
20010380:	b80025f3          	csrr	a1,mcycleh
20010384:	b0002573          	csrr	a0,mcycle
20010388:	b8002673          	csrr	a2,mcycleh
2001038c:	fec59ae3          	bne	a1,a2,20010380 <getcycles>
20010390:	00008067          	ret

20010394 <_printf_r>:
20010394:	7139                	addi	sp,sp,-64
20010396:	d432                	sw	a2,40(sp)
20010398:	d636                	sw	a3,44(sp)
2001039a:	d83a                	sw	a4,48(sp)
2001039c:	da3e                	sw	a5,52(sp)
2001039e:	dc42                	sw	a6,56(sp)
200103a0:	de46                	sw	a7,60(sp)
200103a2:	862e                	mv	a2,a1
200103a4:	450c                	lw	a1,8(a0)
200103a6:	1034                	addi	a3,sp,40
200103a8:	ce06                	sw	ra,28(sp)
200103aa:	c636                	sw	a3,12(sp)
200103ac:	281d                	jal	200103e2 <_vfprintf_r>
200103ae:	40f2                	lw	ra,28(sp)
200103b0:	6121                	addi	sp,sp,64
200103b2:	8082                	ret

200103b4 <printf>:
200103b4:	7139                	addi	sp,sp,-64
200103b6:	d432                	sw	a2,40(sp)
200103b8:	d636                	sw	a3,44(sp)
200103ba:	da3e                	sw	a5,52(sp)
200103bc:	d22e                	sw	a1,36(sp)
200103be:	d83a                	sw	a4,48(sp)
200103c0:	dc42                	sw	a6,56(sp)
200103c2:	de46                	sw	a7,60(sp)
200103c4:	5fff1797          	auipc	a5,0x5fff1
200103c8:	e3478793          	addi	a5,a5,-460 # 800011f8 <_impure_ptr>
200103cc:	439c                	lw	a5,0(a5)
200103ce:	1054                	addi	a3,sp,36
200103d0:	862a                	mv	a2,a0
200103d2:	478c                	lw	a1,8(a5)
200103d4:	853e                	mv	a0,a5
200103d6:	ce06                	sw	ra,28(sp)
200103d8:	c636                	sw	a3,12(sp)
200103da:	2021                	jal	200103e2 <_vfprintf_r>
200103dc:	40f2                	lw	ra,28(sp)
200103de:	6121                	addi	sp,sp,64
200103e0:	8082                	ret

200103e2 <_vfprintf_r>:
200103e2:	7145                	addi	sp,sp,-464
200103e4:	1c112623          	sw	ra,460(sp)
200103e8:	1c912223          	sw	s1,452(sp)
200103ec:	1d212023          	sw	s2,448(sp)
200103f0:	1b312e23          	sw	s3,444(sp)
200103f4:	1b612823          	sw	s6,432(sp)
200103f8:	892e                	mv	s2,a1
200103fa:	84b2                	mv	s1,a2
200103fc:	8b36                	mv	s6,a3
200103fe:	1c812423          	sw	s0,456(sp)
20010402:	1b412c23          	sw	s4,440(sp)
20010406:	1b512a23          	sw	s5,436(sp)
2001040a:	1b712623          	sw	s7,428(sp)
2001040e:	1b812423          	sw	s8,424(sp)
20010412:	1b912223          	sw	s9,420(sp)
20010416:	1ba12023          	sw	s10,416(sp)
2001041a:	19b12e23          	sw	s11,412(sp)
2001041e:	89aa                	mv	s3,a0
20010420:	462030ef          	jal	ra,20013882 <_localeconv_r>
20010424:	411c                	lw	a5,0(a0)
20010426:	853e                	mv	a0,a5
20010428:	d43e                	sw	a5,40(sp)
2001042a:	0c3040ef          	jal	ra,20014cec <strlen>
2001042e:	ca2a                	sw	a0,20(sp)
20010430:	c982                	sw	zero,208(sp)
20010432:	cb82                	sw	zero,212(sp)
20010434:	cd82                	sw	zero,216(sp)
20010436:	cf82                	sw	zero,220(sp)
20010438:	00098863          	beqz	s3,20010448 <_vfprintf_r+0x66>
2001043c:	0389a783          	lw	a5,56(s3)
20010440:	e781                	bnez	a5,20010448 <_vfprintf_r+0x66>
20010442:	854e                	mv	a0,s3
20010444:	1a1010ef          	jal	ra,20011de4 <__sinit>
20010448:	00c91783          	lh	a5,12(s2)
2001044c:	01279713          	slli	a4,a5,0x12
20010450:	00074d63          	bltz	a4,2001046a <_vfprintf_r+0x88>
20010454:	6689                	lui	a3,0x2
20010456:	06492703          	lw	a4,100(s2)
2001045a:	8fd5                	or	a5,a5,a3
2001045c:	00f91623          	sh	a5,12(s2)
20010460:	77f9                	lui	a5,0xffffe
20010462:	17fd                	addi	a5,a5,-1
20010464:	8ff9                	and	a5,a5,a4
20010466:	06f92223          	sw	a5,100(s2)
2001046a:	00c95783          	lhu	a5,12(s2)
2001046e:	8ba1                	andi	a5,a5,8
20010470:	c795                	beqz	a5,2001049c <_vfprintf_r+0xba>
20010472:	01092783          	lw	a5,16(s2)
20010476:	c39d                	beqz	a5,2001049c <_vfprintf_r+0xba>
20010478:	00c95783          	lhu	a5,12(s2)
2001047c:	4729                	li	a4,10
2001047e:	8be9                	andi	a5,a5,26
20010480:	06e79263          	bne	a5,a4,200104e4 <_vfprintf_r+0x102>
20010484:	00e91783          	lh	a5,14(s2)
20010488:	0407ce63          	bltz	a5,200104e4 <_vfprintf_r+0x102>
2001048c:	86da                	mv	a3,s6
2001048e:	8626                	mv	a2,s1
20010490:	85ca                	mv	a1,s2
20010492:	854e                	mv	a0,s3
20010494:	576010ef          	jal	ra,20011a0a <__sbprintf>
20010498:	cc2a                	sw	a0,24(sp)
2001049a:	a801                	j	200104aa <_vfprintf_r+0xc8>
2001049c:	85ca                	mv	a1,s2
2001049e:	854e                	mv	a0,s3
200104a0:	5f4010ef          	jal	ra,20011a94 <__swsetup_r>
200104a4:	d971                	beqz	a0,20010478 <_vfprintf_r+0x96>
200104a6:	57fd                	li	a5,-1
200104a8:	cc3e                	sw	a5,24(sp)
200104aa:	1cc12083          	lw	ra,460(sp)
200104ae:	1c812403          	lw	s0,456(sp)
200104b2:	4562                	lw	a0,24(sp)
200104b4:	1c412483          	lw	s1,452(sp)
200104b8:	1c012903          	lw	s2,448(sp)
200104bc:	1bc12983          	lw	s3,444(sp)
200104c0:	1b812a03          	lw	s4,440(sp)
200104c4:	1b412a83          	lw	s5,436(sp)
200104c8:	1b012b03          	lw	s6,432(sp)
200104cc:	1ac12b83          	lw	s7,428(sp)
200104d0:	1a812c03          	lw	s8,424(sp)
200104d4:	1a412c83          	lw	s9,420(sp)
200104d8:	1a012d03          	lw	s10,416(sp)
200104dc:	19c12d83          	lw	s11,412(sp)
200104e0:	6179                	addi	sp,sp,464
200104e2:	8082                	ret
200104e4:	11fc                	addi	a5,sp,236
200104e6:	c3be                	sw	a5,196(sp)
200104e8:	c782                	sw	zero,204(sp)
200104ea:	c582                	sw	zero,200(sp)
200104ec:	4a01                	li	s4,0
200104ee:	8c3e                	mv	s8,a5
200104f0:	da02                	sw	zero,52(sp)
200104f2:	d802                	sw	zero,48(sp)
200104f4:	c202                	sw	zero,4(sp)
200104f6:	d202                	sw	zero,36(sp)
200104f8:	d602                	sw	zero,44(sp)
200104fa:	cc02                	sw	zero,24(sp)
200104fc:	8426                	mv	s0,s1
200104fe:	02500713          	li	a4,37
20010502:	00044783          	lbu	a5,0(s0)
20010506:	c399                	beqz	a5,2001050c <_vfprintf_r+0x12a>
20010508:	08e79463          	bne	a5,a4,20010590 <_vfprintf_r+0x1ae>
2001050c:	40940ab3          	sub	s5,s0,s1
20010510:	020a8c63          	beqz	s5,20010548 <_vfprintf_r+0x166>
20010514:	47be                	lw	a5,204(sp)
20010516:	009c2023          	sw	s1,0(s8)
2001051a:	015c2223          	sw	s5,4(s8)
2001051e:	97d6                	add	a5,a5,s5
20010520:	c7be                	sw	a5,204(sp)
20010522:	47ae                	lw	a5,200(sp)
20010524:	471d                	li	a4,7
20010526:	0c21                	addi	s8,s8,8
20010528:	0785                	addi	a5,a5,1
2001052a:	c5be                	sw	a5,200(sp)
2001052c:	00f75b63          	bge	a4,a5,20010542 <_vfprintf_r+0x160>
20010530:	01d0                	addi	a2,sp,196
20010532:	85ca                	mv	a1,s2
20010534:	854e                	mv	a0,s3
20010536:	5c7050ef          	jal	ra,200162fc <__sprint_r>
2001053a:	50051f63          	bnez	a0,20010a58 <_vfprintf_r+0x676>
2001053e:	0ec10c13          	addi	s8,sp,236
20010542:	47e2                	lw	a5,24(sp)
20010544:	97d6                	add	a5,a5,s5
20010546:	cc3e                	sw	a5,24(sp)
20010548:	00044783          	lbu	a5,0(s0)
2001054c:	e399                	bnez	a5,20010552 <_vfprintf_r+0x170>
2001054e:	4720106f          	j	200119c0 <_vfprintf_r+0x15de>
20010552:	00140793          	addi	a5,s0,1
20010556:	0a0103a3          	sb	zero,167(sp)
2001055a:	5dfd                	li	s11,-1
2001055c:	ce02                	sw	zero,28(sp)
2001055e:	4401                	li	s0,0
20010560:	4ba9                	li	s7,10
20010562:	4d25                	li	s10,9
20010564:	02a00c93          	li	s9,42
20010568:	0007ca83          	lbu	s5,0(a5) # ffffe000 <metal_segment_heap_target_end+0x7fffa000>
2001056c:	00178713          	addi	a4,a5,1
20010570:	c83a                	sw	a4,16(sp)
20010572:	05a00693          	li	a3,90
20010576:	fe0a8793          	addi	a5,s5,-32
2001057a:	4cf6e7e3          	bltu	a3,a5,20011248 <_vfprintf_r+0xe66>
2001057e:	0000d717          	auipc	a4,0xd
20010582:	68670713          	addi	a4,a4,1670 # 2001dc04 <_exit+0x56>
20010586:	078a                	slli	a5,a5,0x2
20010588:	97ba                	add	a5,a5,a4
2001058a:	439c                	lw	a5,0(a5)
2001058c:	97ba                	add	a5,a5,a4
2001058e:	8782                	jr	a5
20010590:	0405                	addi	s0,s0,1
20010592:	bf85                	j	20010502 <_vfprintf_r+0x120>
20010594:	854e                	mv	a0,s3
20010596:	2ec030ef          	jal	ra,20013882 <_localeconv_r>
2001059a:	415c                	lw	a5,4(a0)
2001059c:	853e                	mv	a0,a5
2001059e:	d63e                	sw	a5,44(sp)
200105a0:	74c040ef          	jal	ra,20014cec <strlen>
200105a4:	d22a                	sw	a0,36(sp)
200105a6:	854e                	mv	a0,s3
200105a8:	2da030ef          	jal	ra,20013882 <_localeconv_r>
200105ac:	451c                	lw	a5,8(a0)
200105ae:	c23e                	sw	a5,4(sp)
200105b0:	5792                	lw	a5,36(sp)
200105b2:	cb81                	beqz	a5,200105c2 <_vfprintf_r+0x1e0>
200105b4:	4792                	lw	a5,4(sp)
200105b6:	c791                	beqz	a5,200105c2 <_vfprintf_r+0x1e0>
200105b8:	0007c783          	lbu	a5,0(a5)
200105bc:	c399                	beqz	a5,200105c2 <_vfprintf_r+0x1e0>
200105be:	40046413          	ori	s0,s0,1024
200105c2:	47c2                	lw	a5,16(sp)
200105c4:	b755                	j	20010568 <_vfprintf_r+0x186>
200105c6:	0a714783          	lbu	a5,167(sp)
200105ca:	ffe5                	bnez	a5,200105c2 <_vfprintf_r+0x1e0>
200105cc:	02000793          	li	a5,32
200105d0:	0af103a3          	sb	a5,167(sp)
200105d4:	b7fd                	j	200105c2 <_vfprintf_r+0x1e0>
200105d6:	00146413          	ori	s0,s0,1
200105da:	b7e5                	j	200105c2 <_vfprintf_r+0x1e0>
200105dc:	000b2783          	lw	a5,0(s6)
200105e0:	0b11                	addi	s6,s6,4
200105e2:	ce3e                	sw	a5,28(sp)
200105e4:	fc07dfe3          	bgez	a5,200105c2 <_vfprintf_r+0x1e0>
200105e8:	40f007b3          	neg	a5,a5
200105ec:	ce3e                	sw	a5,28(sp)
200105ee:	00446413          	ori	s0,s0,4
200105f2:	bfc1                	j	200105c2 <_vfprintf_r+0x1e0>
200105f4:	02b00793          	li	a5,43
200105f8:	bfe1                	j	200105d0 <_vfprintf_r+0x1ee>
200105fa:	4742                	lw	a4,16(sp)
200105fc:	47c2                	lw	a5,16(sp)
200105fe:	00074a83          	lbu	s5,0(a4)
20010602:	0785                	addi	a5,a5,1
20010604:	039a9963          	bne	s5,s9,20010636 <_vfprintf_r+0x254>
20010608:	000b2d83          	lw	s11,0(s6)
2001060c:	004b0713          	addi	a4,s6,4
20010610:	000dd363          	bgez	s11,20010616 <_vfprintf_r+0x234>
20010614:	5dfd                	li	s11,-1
20010616:	8b3a                	mv	s6,a4
20010618:	c83e                	sw	a5,16(sp)
2001061a:	b765                	j	200105c2 <_vfprintf_r+0x1e0>
2001061c:	037d8333          	mul	t1,s11,s7
20010620:	0785                	addi	a5,a5,1
20010622:	fff7ca83          	lbu	s5,-1(a5)
20010626:	00e30db3          	add	s11,t1,a4
2001062a:	fd0a8713          	addi	a4,s5,-48
2001062e:	feed77e3          	bgeu	s10,a4,2001061c <_vfprintf_r+0x23a>
20010632:	c83e                	sw	a5,16(sp)
20010634:	b789                	j	20010576 <_vfprintf_r+0x194>
20010636:	4d81                	li	s11,0
20010638:	bfcd                	j	2001062a <_vfprintf_r+0x248>
2001063a:	08046413          	ori	s0,s0,128
2001063e:	b751                	j	200105c2 <_vfprintf_r+0x1e0>
20010640:	47c2                	lw	a5,16(sp)
20010642:	ce02                	sw	zero,28(sp)
20010644:	4772                	lw	a4,28(sp)
20010646:	fd0a8a93          	addi	s5,s5,-48
2001064a:	0785                	addi	a5,a5,1
2001064c:	03770733          	mul	a4,a4,s7
20010650:	9756                	add	a4,a4,s5
20010652:	fff7ca83          	lbu	s5,-1(a5)
20010656:	ce3a                	sw	a4,28(sp)
20010658:	fd0a8713          	addi	a4,s5,-48
2001065c:	feed74e3          	bgeu	s10,a4,20010644 <_vfprintf_r+0x262>
20010660:	bfc9                	j	20010632 <_vfprintf_r+0x250>
20010662:	00846413          	ori	s0,s0,8
20010666:	bfb1                	j	200105c2 <_vfprintf_r+0x1e0>
20010668:	47c2                	lw	a5,16(sp)
2001066a:	0007c703          	lbu	a4,0(a5)
2001066e:	06800793          	li	a5,104
20010672:	00f71863          	bne	a4,a5,20010682 <_vfprintf_r+0x2a0>
20010676:	47c2                	lw	a5,16(sp)
20010678:	20046413          	ori	s0,s0,512
2001067c:	0785                	addi	a5,a5,1
2001067e:	c83e                	sw	a5,16(sp)
20010680:	b789                	j	200105c2 <_vfprintf_r+0x1e0>
20010682:	04046413          	ori	s0,s0,64
20010686:	bf35                	j	200105c2 <_vfprintf_r+0x1e0>
20010688:	47c2                	lw	a5,16(sp)
2001068a:	0007c703          	lbu	a4,0(a5)
2001068e:	06c00793          	li	a5,108
20010692:	00f71863          	bne	a4,a5,200106a2 <_vfprintf_r+0x2c0>
20010696:	47c2                	lw	a5,16(sp)
20010698:	0785                	addi	a5,a5,1
2001069a:	c83e                	sw	a5,16(sp)
2001069c:	02046413          	ori	s0,s0,32
200106a0:	b70d                	j	200105c2 <_vfprintf_r+0x1e0>
200106a2:	01046413          	ori	s0,s0,16
200106a6:	bf31                	j	200105c2 <_vfprintf_r+0x1e0>
200106a8:	004b0793          	addi	a5,s6,4
200106ac:	c63e                	sw	a5,12(sp)
200106ae:	000b2783          	lw	a5,0(s6)
200106b2:	0a0103a3          	sb	zero,167(sp)
200106b6:	12f10623          	sb	a5,300(sp)
200106ba:	4b01                	li	s6,0
200106bc:	4d85                	li	s11,1
200106be:	4d01                	li	s10,0
200106c0:	c402                	sw	zero,8(sp)
200106c2:	4b81                	li	s7,0
200106c4:	4c81                	li	s9,0
200106c6:	1264                	addi	s1,sp,300
200106c8:	d06a                	sw	s10,32(sp)
200106ca:	01bd5363          	bge	s10,s11,200106d0 <_vfprintf_r+0x2ee>
200106ce:	d06e                	sw	s11,32(sp)
200106d0:	0a714703          	lbu	a4,167(sp)
200106d4:	c701                	beqz	a4,200106dc <_vfprintf_r+0x2fa>
200106d6:	5782                	lw	a5,32(sp)
200106d8:	0785                	addi	a5,a5,1
200106da:	d03e                	sw	a5,32(sp)
200106dc:	00247793          	andi	a5,s0,2
200106e0:	dc3e                	sw	a5,56(sp)
200106e2:	c781                	beqz	a5,200106ea <_vfprintf_r+0x308>
200106e4:	5782                	lw	a5,32(sp)
200106e6:	0789                	addi	a5,a5,2
200106e8:	d03e                	sw	a5,32(sp)
200106ea:	08447793          	andi	a5,s0,132
200106ee:	de3e                	sw	a5,60(sp)
200106f0:	eba9                	bnez	a5,20010742 <_vfprintf_r+0x360>
200106f2:	47f2                	lw	a5,28(sp)
200106f4:	5702                	lw	a4,32(sp)
200106f6:	40e78733          	sub	a4,a5,a4
200106fa:	04e05463          	blez	a4,20010742 <_vfprintf_r+0x360>
200106fe:	4ec1                	li	t4,16
20010700:	0000de17          	auipc	t3,0xd
20010704:	670e0e13          	addi	t3,t3,1648 # 2001dd70 <blanks.4513>
20010708:	4f1d                	li	t5,7
2001070a:	46ae                	lw	a3,200(sp)
2001070c:	01cc2023          	sw	t3,0(s8)
20010710:	463e                	lw	a2,204(sp)
20010712:	0685                	addi	a3,a3,1
20010714:	008c0593          	addi	a1,s8,8
20010718:	34eec1e3          	blt	t4,a4,2001125a <_vfprintf_r+0xe78>
2001071c:	00ec2223          	sw	a4,4(s8)
20010720:	9732                	add	a4,a4,a2
20010722:	c7ba                	sw	a4,204(sp)
20010724:	c5b6                	sw	a3,200(sp)
20010726:	471d                	li	a4,7
20010728:	8c2e                	mv	s8,a1
2001072a:	00d75c63          	bge	a4,a3,20010742 <_vfprintf_r+0x360>
2001072e:	01d0                	addi	a2,sp,196
20010730:	85ca                	mv	a1,s2
20010732:	854e                	mv	a0,s3
20010734:	3c9050ef          	jal	ra,200162fc <__sprint_r>
20010738:	c119                	beqz	a0,2001073e <_vfprintf_r+0x35c>
2001073a:	24a0106f          	j	20011984 <_vfprintf_r+0x15a2>
2001073e:	0ec10c13          	addi	s8,sp,236
20010742:	0a714703          	lbu	a4,167(sp)
20010746:	cf05                	beqz	a4,2001077e <_vfprintf_r+0x39c>
20010748:	0a710713          	addi	a4,sp,167
2001074c:	00ec2023          	sw	a4,0(s8)
20010750:	4705                	li	a4,1
20010752:	00ec2223          	sw	a4,4(s8)
20010756:	473e                	lw	a4,204(sp)
20010758:	469d                	li	a3,7
2001075a:	0c21                	addi	s8,s8,8
2001075c:	0705                	addi	a4,a4,1
2001075e:	c7ba                	sw	a4,204(sp)
20010760:	472e                	lw	a4,200(sp)
20010762:	0705                	addi	a4,a4,1
20010764:	c5ba                	sw	a4,200(sp)
20010766:	00e6dc63          	bge	a3,a4,2001077e <_vfprintf_r+0x39c>
2001076a:	01d0                	addi	a2,sp,196
2001076c:	85ca                	mv	a1,s2
2001076e:	854e                	mv	a0,s3
20010770:	38d050ef          	jal	ra,200162fc <__sprint_r>
20010774:	c119                	beqz	a0,2001077a <_vfprintf_r+0x398>
20010776:	20e0106f          	j	20011984 <_vfprintf_r+0x15a2>
2001077a:	0ec10c13          	addi	s8,sp,236
2001077e:	57e2                	lw	a5,56(sp)
20010780:	cb9d                	beqz	a5,200107b6 <_vfprintf_r+0x3d4>
20010782:	1138                	addi	a4,sp,168
20010784:	00ec2023          	sw	a4,0(s8)
20010788:	4709                	li	a4,2
2001078a:	00ec2223          	sw	a4,4(s8)
2001078e:	473e                	lw	a4,204(sp)
20010790:	469d                	li	a3,7
20010792:	0c21                	addi	s8,s8,8
20010794:	0709                	addi	a4,a4,2
20010796:	c7ba                	sw	a4,204(sp)
20010798:	472e                	lw	a4,200(sp)
2001079a:	0705                	addi	a4,a4,1
2001079c:	c5ba                	sw	a4,200(sp)
2001079e:	00e6dc63          	bge	a3,a4,200107b6 <_vfprintf_r+0x3d4>
200107a2:	01d0                	addi	a2,sp,196
200107a4:	85ca                	mv	a1,s2
200107a6:	854e                	mv	a0,s3
200107a8:	355050ef          	jal	ra,200162fc <__sprint_r>
200107ac:	c119                	beqz	a0,200107b2 <_vfprintf_r+0x3d0>
200107ae:	1d60106f          	j	20011984 <_vfprintf_r+0x15a2>
200107b2:	0ec10c13          	addi	s8,sp,236
200107b6:	57f2                	lw	a5,60(sp)
200107b8:	08000713          	li	a4,128
200107bc:	04e79963          	bne	a5,a4,2001080e <_vfprintf_r+0x42c>
200107c0:	47f2                	lw	a5,28(sp)
200107c2:	5702                	lw	a4,32(sp)
200107c4:	8f99                	sub	a5,a5,a4
200107c6:	04f05463          	blez	a5,2001080e <_vfprintf_r+0x42c>
200107ca:	4841                	li	a6,16
200107cc:	4e1d                	li	t3,7
200107ce:	472e                	lw	a4,200(sp)
200107d0:	0000d597          	auipc	a1,0xd
200107d4:	5b058593          	addi	a1,a1,1456 # 2001dd80 <zeroes.4514>
200107d8:	00bc2023          	sw	a1,0(s8)
200107dc:	46be                	lw	a3,204(sp)
200107de:	0705                	addi	a4,a4,1
200107e0:	008c0613          	addi	a2,s8,8
200107e4:	2af846e3          	blt	a6,a5,20011290 <_vfprintf_r+0xeae>
200107e8:	00fc2223          	sw	a5,4(s8)
200107ec:	97b6                	add	a5,a5,a3
200107ee:	c7be                	sw	a5,204(sp)
200107f0:	c5ba                	sw	a4,200(sp)
200107f2:	469d                	li	a3,7
200107f4:	8c32                	mv	s8,a2
200107f6:	00e6dc63          	bge	a3,a4,2001080e <_vfprintf_r+0x42c>
200107fa:	01d0                	addi	a2,sp,196
200107fc:	85ca                	mv	a1,s2
200107fe:	854e                	mv	a0,s3
20010800:	2fd050ef          	jal	ra,200162fc <__sprint_r>
20010804:	c119                	beqz	a0,2001080a <_vfprintf_r+0x428>
20010806:	17e0106f          	j	20011984 <_vfprintf_r+0x15a2>
2001080a:	0ec10c13          	addi	s8,sp,236
2001080e:	41bd0d33          	sub	s10,s10,s11
20010812:	05a05463          	blez	s10,2001085a <_vfprintf_r+0x478>
20010816:	47c1                	li	a5,16
20010818:	481d                	li	a6,7
2001081a:	472e                	lw	a4,200(sp)
2001081c:	46be                	lw	a3,204(sp)
2001081e:	008c0613          	addi	a2,s8,8
20010822:	0705                	addi	a4,a4,1
20010824:	29a7cde3          	blt	a5,s10,200112be <_vfprintf_r+0xedc>
20010828:	01ac2223          	sw	s10,4(s8)
2001082c:	0000d797          	auipc	a5,0xd
20010830:	55478793          	addi	a5,a5,1364 # 2001dd80 <zeroes.4514>
20010834:	9d36                	add	s10,s10,a3
20010836:	00fc2023          	sw	a5,0(s8)
2001083a:	c7ea                	sw	s10,204(sp)
2001083c:	c5ba                	sw	a4,200(sp)
2001083e:	469d                	li	a3,7
20010840:	8c32                	mv	s8,a2
20010842:	00e6dc63          	bge	a3,a4,2001085a <_vfprintf_r+0x478>
20010846:	01d0                	addi	a2,sp,196
20010848:	85ca                	mv	a1,s2
2001084a:	854e                	mv	a0,s3
2001084c:	2b1050ef          	jal	ra,200162fc <__sprint_r>
20010850:	c119                	beqz	a0,20010856 <_vfprintf_r+0x474>
20010852:	1320106f          	j	20011984 <_vfprintf_r+0x15a2>
20010856:	0ec10c13          	addi	s8,sp,236
2001085a:	10047713          	andi	a4,s0,256
2001085e:	4d3e                	lw	s10,204(sp)
20010860:	28071ae3          	bnez	a4,200112f4 <_vfprintf_r+0xf12>
20010864:	47ae                	lw	a5,200(sp)
20010866:	01ad8333          	add	t1,s11,s10
2001086a:	009c2023          	sw	s1,0(s8)
2001086e:	0785                	addi	a5,a5,1
20010870:	01bc2223          	sw	s11,4(s8)
20010874:	c79a                	sw	t1,204(sp)
20010876:	c5be                	sw	a5,200(sp)
20010878:	471d                	li	a4,7
2001087a:	0c21                	addi	s8,s8,8
2001087c:	44f75fe3          	bge	a4,a5,200114da <_vfprintf_r+0x10f8>
20010880:	01d0                	addi	a2,sp,196
20010882:	85ca                	mv	a1,s2
20010884:	854e                	mv	a0,s3
20010886:	277050ef          	jal	ra,200162fc <__sprint_r>
2001088a:	c119                	beqz	a0,20010890 <_vfprintf_r+0x4ae>
2001088c:	0f80106f          	j	20011984 <_vfprintf_r+0x15a2>
20010890:	0ec10c13          	addi	s8,sp,236
20010894:	4470006f          	j	200114da <_vfprintf_r+0x10f8>
20010898:	01046413          	ori	s0,s0,16
2001089c:	02047793          	andi	a5,s0,32
200108a0:	cfa9                	beqz	a5,200108fa <_vfprintf_r+0x518>
200108a2:	0b1d                	addi	s6,s6,7
200108a4:	ff8b7b13          	andi	s6,s6,-8
200108a8:	000b2d03          	lw	s10,0(s6)
200108ac:	004b2c83          	lw	s9,4(s6)
200108b0:	008b0793          	addi	a5,s6,8
200108b4:	c63e                	sw	a5,12(sp)
200108b6:	000cc463          	bltz	s9,200108be <_vfprintf_r+0x4dc>
200108ba:	11c0106f          	j	200119d6 <_vfprintf_r+0x15f4>
200108be:	41a00d33          	neg	s10,s10
200108c2:	01a037b3          	snez	a5,s10
200108c6:	41900cb3          	neg	s9,s9
200108ca:	40fc8cb3          	sub	s9,s9,a5
200108ce:	02d00793          	li	a5,45
200108d2:	0af103a3          	sb	a5,167(sp)
200108d6:	4785                	li	a5,1
200108d8:	577d                	li	a4,-1
200108da:	04ed86e3          	beq	s11,a4,20011126 <_vfprintf_r+0xd44>
200108de:	8722                	mv	a4,s0
200108e0:	019d66b3          	or	a3,s10,s9
200108e4:	f7f47413          	andi	s0,s0,-129
200108e8:	02069fe3          	bnez	a3,20011126 <_vfprintf_r+0xd44>
200108ec:	140d84e3          	beqz	s11,20011234 <_vfprintf_r+0xe52>
200108f0:	4705                	li	a4,1
200108f2:	02e79de3          	bne	a5,a4,2001112c <_vfprintf_r+0xd4a>
200108f6:	0f00106f          	j	200119e6 <_vfprintf_r+0x1604>
200108fa:	004b0793          	addi	a5,s6,4
200108fe:	c63e                	sw	a5,12(sp)
20010900:	01047793          	andi	a5,s0,16
20010904:	c791                	beqz	a5,20010910 <_vfprintf_r+0x52e>
20010906:	000b2d03          	lw	s10,0(s6)
2001090a:	41fd5c93          	srai	s9,s10,0x1f
2001090e:	b765                	j	200108b6 <_vfprintf_r+0x4d4>
20010910:	04047793          	andi	a5,s0,64
20010914:	000b2d03          	lw	s10,0(s6)
20010918:	c789                	beqz	a5,20010922 <_vfprintf_r+0x540>
2001091a:	0d42                	slli	s10,s10,0x10
2001091c:	410d5d13          	srai	s10,s10,0x10
20010920:	b7ed                	j	2001090a <_vfprintf_r+0x528>
20010922:	20047793          	andi	a5,s0,512
20010926:	d3f5                	beqz	a5,2001090a <_vfprintf_r+0x528>
20010928:	0d62                	slli	s10,s10,0x18
2001092a:	418d5d13          	srai	s10,s10,0x18
2001092e:	bff1                	j	2001090a <_vfprintf_r+0x528>
20010930:	00847793          	andi	a5,s0,8
20010934:	cfb5                	beqz	a5,200109b0 <_vfprintf_r+0x5ce>
20010936:	004b0793          	addi	a5,s6,4
2001093a:	c63e                	sw	a5,12(sp)
2001093c:	000b2783          	lw	a5,0(s6)
20010940:	4390                	lw	a2,0(a5)
20010942:	43d4                	lw	a3,4(a5)
20010944:	4798                	lw	a4,8(a5)
20010946:	47dc                	lw	a5,12(a5)
20010948:	c9b2                	sw	a2,208(sp)
2001094a:	cbb6                	sw	a3,212(sp)
2001094c:	cdba                	sw	a4,216(sp)
2001094e:	0988                	addi	a0,sp,208
20010950:	cfbe                	sw	a5,220(sp)
20010952:	6ed020ef          	jal	ra,2001383e <_ldcheck>
20010956:	d72a                	sw	a0,172(sp)
20010958:	4789                	li	a5,2
2001095a:	08f51063          	bne	a0,a5,200109da <_vfprintf_r+0x5f8>
2001095e:	47ce                	lw	a5,208(sp)
20010960:	010c                	addi	a1,sp,128
20010962:	0908                	addi	a0,sp,144
20010964:	c93e                	sw	a5,144(sp)
20010966:	47de                	lw	a5,212(sp)
20010968:	c102                	sw	zero,128(sp)
2001096a:	c302                	sw	zero,132(sp)
2001096c:	cb3e                	sw	a5,148(sp)
2001096e:	47ee                	lw	a5,216(sp)
20010970:	c502                	sw	zero,136(sp)
20010972:	c702                	sw	zero,140(sp)
20010974:	cd3e                	sw	a5,152(sp)
20010976:	47fe                	lw	a5,220(sp)
20010978:	cf3e                	sw	a5,156(sp)
2001097a:	379080ef          	jal	ra,200194f2 <__letf2>
2001097e:	00055663          	bgez	a0,2001098a <_vfprintf_r+0x5a8>
20010982:	02d00793          	li	a5,45
20010986:	0af103a3          	sb	a5,167(sp)
2001098a:	04700793          	li	a5,71
2001098e:	0000d497          	auipc	s1,0xd
20010992:	40248493          	addi	s1,s1,1026 # 2001dd90 <zeroes.4514+0x10>
20010996:	0157d663          	bge	a5,s5,200109a2 <_vfprintf_r+0x5c0>
2001099a:	0000d497          	auipc	s1,0xd
2001099e:	3fa48493          	addi	s1,s1,1018 # 2001dd94 <zeroes.4514+0x14>
200109a2:	f7f47413          	andi	s0,s0,-129
200109a6:	4b01                	li	s6,0
200109a8:	4d8d                	li	s11,3
200109aa:	4d01                	li	s10,0
200109ac:	7ce0006f          	j	2001117a <_vfprintf_r+0xd98>
200109b0:	0b1d                	addi	s6,s6,7
200109b2:	ff8b7b13          	andi	s6,s6,-8
200109b6:	000b2583          	lw	a1,0(s6)
200109ba:	004b2603          	lw	a2,4(s6)
200109be:	008b0793          	addi	a5,s6,8
200109c2:	0908                	addi	a0,sp,144
200109c4:	c63e                	sw	a5,12(sp)
200109c6:	7a20a0ef          	jal	ra,2001b168 <__extenddftf2>
200109ca:	47ca                	lw	a5,144(sp)
200109cc:	c9be                	sw	a5,208(sp)
200109ce:	47da                	lw	a5,148(sp)
200109d0:	cbbe                	sw	a5,212(sp)
200109d2:	47ea                	lw	a5,152(sp)
200109d4:	cdbe                	sw	a5,216(sp)
200109d6:	47fa                	lw	a5,156(sp)
200109d8:	bf9d                	j	2001094e <_vfprintf_r+0x56c>
200109da:	4785                	li	a5,1
200109dc:	02f51663          	bne	a0,a5,20010a08 <_vfprintf_r+0x626>
200109e0:	47fe                	lw	a5,220(sp)
200109e2:	0007d663          	bgez	a5,200109ee <_vfprintf_r+0x60c>
200109e6:	02d00793          	li	a5,45
200109ea:	0af103a3          	sb	a5,167(sp)
200109ee:	04700793          	li	a5,71
200109f2:	0000d497          	auipc	s1,0xd
200109f6:	3a648493          	addi	s1,s1,934 # 2001dd98 <zeroes.4514+0x18>
200109fa:	fb57d4e3          	bge	a5,s5,200109a2 <_vfprintf_r+0x5c0>
200109fe:	0000d497          	auipc	s1,0xd
20010a02:	39e48493          	addi	s1,s1,926 # 2001dd9c <zeroes.4514+0x1c>
20010a06:	bf71                	j	200109a2 <_vfprintf_r+0x5c0>
20010a08:	fdfafb93          	andi	s7,s5,-33
20010a0c:	04100793          	li	a5,65
20010a10:	04fb9b63          	bne	s7,a5,20010a66 <_vfprintf_r+0x684>
20010a14:	03000793          	li	a5,48
20010a18:	0af10423          	sb	a5,168(sp)
20010a1c:	06100713          	li	a4,97
20010a20:	07800793          	li	a5,120
20010a24:	00ea8463          	beq	s5,a4,20010a2c <_vfprintf_r+0x64a>
20010a28:	05800793          	li	a5,88
20010a2c:	0af104a3          	sb	a5,169(sp)
20010a30:	06300793          	li	a5,99
20010a34:	00246413          	ori	s0,s0,2
20010a38:	33b7d063          	bge	a5,s11,20010d58 <_vfprintf_r+0x976>
20010a3c:	001d8593          	addi	a1,s11,1
20010a40:	854e                	mv	a0,s3
20010a42:	022030ef          	jal	ra,20013a64 <_malloc_r>
20010a46:	84aa                	mv	s1,a0
20010a48:	30051b63          	bnez	a0,20010d5e <_vfprintf_r+0x97c>
20010a4c:	00c95783          	lhu	a5,12(s2)
20010a50:	0407e793          	ori	a5,a5,64
20010a54:	00f91623          	sh	a5,12(s2)
20010a58:	00c95783          	lhu	a5,12(s2)
20010a5c:	0407f793          	andi	a5,a5,64
20010a60:	a40785e3          	beqz	a5,200104aa <_vfprintf_r+0xc8>
20010a64:	b489                	j	200104a6 <_vfprintf_r+0xc4>
20010a66:	57fd                	li	a5,-1
20010a68:	2efd8d63          	beq	s11,a5,20010d62 <_vfprintf_r+0x980>
20010a6c:	04700793          	li	a5,71
20010a70:	4b01                	li	s6,0
20010a72:	00fb9663          	bne	s7,a5,20010a7e <_vfprintf_r+0x69c>
20010a76:	000d9463          	bnez	s11,20010a7e <_vfprintf_r+0x69c>
20010a7a:	8b6e                	mv	s6,s11
20010a7c:	4d85                	li	s11,1
20010a7e:	4a7e                	lw	s4,220(sp)
20010a80:	10046793          	ori	a5,s0,256
20010a84:	d03e                	sw	a5,32(sp)
20010a86:	dc02                	sw	zero,56(sp)
20010a88:	4e4e                	lw	t3,208(sp)
20010a8a:	48de                	lw	a7,212(sp)
20010a8c:	4d6e                	lw	s10,216(sp)
20010a8e:	000a5963          	bgez	s4,20010aa0 <_vfprintf_r+0x6be>
20010a92:	800007b7          	lui	a5,0x80000
20010a96:	0147ca33          	xor	s4,a5,s4
20010a9a:	02d00793          	li	a5,45
20010a9e:	dc3e                	sw	a5,56(sp)
20010aa0:	04100793          	li	a5,65
20010aa4:	2efb9763          	bne	s7,a5,20010d92 <_vfprintf_r+0x9b0>
20010aa8:	0908                	addi	a0,sp,144
20010aaa:	c972                	sw	t3,144(sp)
20010aac:	cb46                	sw	a7,148(sp)
20010aae:	cd6a                	sw	s10,152(sp)
20010ab0:	cf52                	sw	s4,156(sp)
20010ab2:	0090a0ef          	jal	ra,2001b2ba <__trunctfdf2>
20010ab6:	1170                	addi	a2,sp,172
20010ab8:	73d030ef          	jal	ra,200149f4 <frexp>
20010abc:	862e                	mv	a2,a1
20010abe:	85aa                	mv	a1,a0
20010ac0:	0908                	addi	a0,sp,144
20010ac2:	6a60a0ef          	jal	ra,2001b168 <__extenddftf2>
20010ac6:	47ca                	lw	a5,144(sp)
20010ac8:	1090                	addi	a2,sp,96
20010aca:	188c                	addi	a1,sp,112
20010acc:	d8be                	sw	a5,112(sp)
20010ace:	47da                	lw	a5,148(sp)
20010ad0:	0108                	addi	a0,sp,128
20010ad2:	d082                	sw	zero,96(sp)
20010ad4:	dabe                	sw	a5,116(sp)
20010ad6:	47ea                	lw	a5,152(sp)
20010ad8:	d282                	sw	zero,100(sp)
20010ada:	d482                	sw	zero,104(sp)
20010adc:	dcbe                	sw	a5,120(sp)
20010ade:	47fa                	lw	a5,156(sp)
20010ae0:	debe                	sw	a5,124(sp)
20010ae2:	3ffc07b7          	lui	a5,0x3ffc0
20010ae6:	d6be                	sw	a5,108(sp)
20010ae8:	305080ef          	jal	ra,200195ec <__multf3>
20010aec:	480a                	lw	a6,128(sp)
20010aee:	461a                	lw	a2,132(sp)
20010af0:	46aa                	lw	a3,136(sp)
20010af2:	4d3a                	lw	s10,140(sp)
20010af4:	010c                	addi	a1,sp,128
20010af6:	0908                	addi	a0,sp,144
20010af8:	c942                	sw	a6,144(sp)
20010afa:	c0c2                	sw	a6,64(sp)
20010afc:	cb32                	sw	a2,148(sp)
20010afe:	de32                	sw	a2,60(sp)
20010b00:	cd36                	sw	a3,152(sp)
20010b02:	c436                	sw	a3,8(sp)
20010b04:	cf6a                	sw	s10,156(sp)
20010b06:	c102                	sw	zero,128(sp)
20010b08:	c302                	sw	zero,132(sp)
20010b0a:	c502                	sw	zero,136(sp)
20010b0c:	c702                	sw	zero,140(sp)
20010b0e:	045080ef          	jal	ra,20019352 <__eqtf2>
20010b12:	46a2                	lw	a3,8(sp)
20010b14:	5672                	lw	a2,60(sp)
20010b16:	4806                	lw	a6,64(sp)
20010b18:	e119                	bnez	a0,20010b1e <_vfprintf_r+0x73c>
20010b1a:	4705                	li	a4,1
20010b1c:	d73a                	sw	a4,172(sp)
20010b1e:	0000d797          	auipc	a5,0xd
20010b22:	28278793          	addi	a5,a5,642 # 2001dda0 <zeroes.4514+0x20>
20010b26:	06100713          	li	a4,97
20010b2a:	c43e                	sw	a5,8(sp)
20010b2c:	00ea8763          	beq	s5,a4,20010b3a <_vfprintf_r+0x758>
20010b30:	0000d797          	auipc	a5,0xd
20010b34:	28478793          	addi	a5,a5,644 # 2001ddb4 <zeroes.4514+0x34>
20010b38:	c43e                	sw	a5,8(sp)
20010b3a:	fffd8e13          	addi	t3,s11,-1
20010b3e:	8ca6                	mv	s9,s1
20010b40:	400307b7          	lui	a5,0x40030
20010b44:	010c                	addi	a1,sp,128
20010b46:	c332                	sw	a2,132(sp)
20010b48:	0908                	addi	a0,sp,144
20010b4a:	1890                	addi	a2,sp,112
20010b4c:	c4f2                	sw	t3,72(sp)
20010b4e:	c142                	sw	a6,128(sp)
20010b50:	c536                	sw	a3,136(sp)
20010b52:	c76a                	sw	s10,140(sp)
20010b54:	debe                	sw	a5,124(sp)
20010b56:	d882                	sw	zero,112(sp)
20010b58:	da82                	sw	zero,116(sp)
20010b5a:	dc82                	sw	zero,120(sp)
20010b5c:	291080ef          	jal	ra,200195ec <__multf3>
20010b60:	464a                	lw	a2,144(sp)
20010b62:	46da                	lw	a3,148(sp)
20010b64:	47ea                	lw	a5,152(sp)
20010b66:	0908                	addi	a0,sp,144
20010b68:	c2b2                	sw	a2,68(sp)
20010b6a:	c0b6                	sw	a3,64(sp)
20010b6c:	de3e                	sw	a5,60(sp)
20010b6e:	4160a0ef          	jal	ra,2001af84 <__fixtfsi>
20010b72:	85aa                	mv	a1,a0
20010b74:	8a2a                	mv	s4,a0
20010b76:	0908                	addi	a0,sp,144
20010b78:	4d7a                	lw	s10,156(sp)
20010b7a:	4f60a0ef          	jal	ra,2001b070 <__floatsitf>
20010b7e:	57f2                	lw	a5,60(sp)
20010b80:	4616                	lw	a2,68(sp)
20010b82:	4686                	lw	a3,64(sp)
20010b84:	dcbe                	sw	a5,120(sp)
20010b86:	47ca                	lw	a5,144(sp)
20010b88:	d8b2                	sw	a2,112(sp)
20010b8a:	188c                	addi	a1,sp,112
20010b8c:	d0be                	sw	a5,96(sp)
20010b8e:	47da                	lw	a5,148(sp)
20010b90:	1090                	addi	a2,sp,96
20010b92:	0108                	addi	a0,sp,128
20010b94:	d2be                	sw	a5,100(sp)
20010b96:	47ea                	lw	a5,152(sp)
20010b98:	deea                	sw	s10,124(sp)
20010b9a:	dab6                	sw	a3,116(sp)
20010b9c:	d4be                	sw	a5,104(sp)
20010b9e:	47fa                	lw	a5,156(sp)
20010ba0:	0c85                	addi	s9,s9,1
20010ba2:	d6be                	sw	a5,108(sp)
20010ba4:	584090ef          	jal	ra,2001a128 <__subtf3>
20010ba8:	47a2                	lw	a5,8(sp)
20010baa:	4e26                	lw	t3,72(sp)
20010bac:	4eba                	lw	t4,140(sp)
20010bae:	014785b3          	add	a1,a5,s4
20010bb2:	0005c583          	lbu	a1,0(a1)
20010bb6:	428a                	lw	t0,128(sp)
20010bb8:	4f9a                	lw	t6,132(sp)
20010bba:	4f2a                	lw	t5,136(sp)
20010bbc:	de72                	sw	t3,60(sp)
20010bbe:	febc8fa3          	sb	a1,-1(s9)
20010bc2:	57fd                	li	a5,-1
20010bc4:	8d76                	mv	s10,t4
20010bc6:	04fe0063          	beq	t3,a5,20010c06 <_vfprintf_r+0x824>
20010bca:	1e7d                	addi	t3,t3,-1
20010bcc:	010c                	addi	a1,sp,128
20010bce:	0908                	addi	a0,sp,144
20010bd0:	cef6                	sw	t4,92(sp)
20010bd2:	ccfa                	sw	t5,88(sp)
20010bd4:	cafe                	sw	t6,84(sp)
20010bd6:	c896                	sw	t0,80(sp)
20010bd8:	c6f2                	sw	t3,76(sp)
20010bda:	c916                	sw	t0,144(sp)
20010bdc:	c496                	sw	t0,72(sp)
20010bde:	cb7e                	sw	t6,148(sp)
20010be0:	c2fe                	sw	t6,68(sp)
20010be2:	cd7a                	sw	t5,152(sp)
20010be4:	c0fa                	sw	t5,64(sp)
20010be6:	cf76                	sw	t4,156(sp)
20010be8:	c102                	sw	zero,128(sp)
20010bea:	c302                	sw	zero,132(sp)
20010bec:	c502                	sw	zero,136(sp)
20010bee:	c702                	sw	zero,140(sp)
20010bf0:	762080ef          	jal	ra,20019352 <__eqtf2>
20010bf4:	4686                	lw	a3,64(sp)
20010bf6:	4616                	lw	a2,68(sp)
20010bf8:	4826                	lw	a6,72(sp)
20010bfa:	4e36                	lw	t3,76(sp)
20010bfc:	42c6                	lw	t0,80(sp)
20010bfe:	4fd6                	lw	t6,84(sp)
20010c00:	4f66                	lw	t5,88(sp)
20010c02:	4ef6                	lw	t4,92(sp)
20010c04:	fd15                	bnez	a0,20010b40 <_vfprintf_r+0x75e>
20010c06:	3ffe0d37          	lui	s10,0x3ffe0
20010c0a:	010c                	addi	a1,sp,128
20010c0c:	0908                	addi	a0,sp,144
20010c0e:	c916                	sw	t0,144(sp)
20010c10:	c696                	sw	t0,76(sp)
20010c12:	cb7e                	sw	t6,148(sp)
20010c14:	c4fe                	sw	t6,72(sp)
20010c16:	cd7a                	sw	t5,152(sp)
20010c18:	c2fa                	sw	t5,68(sp)
20010c1a:	cf76                	sw	t4,156(sp)
20010c1c:	c0f6                	sw	t4,64(sp)
20010c1e:	c102                	sw	zero,128(sp)
20010c20:	c302                	sw	zero,132(sp)
20010c22:	c502                	sw	zero,136(sp)
20010c24:	c76a                	sw	s10,140(sp)
20010c26:	7d2080ef          	jal	ra,200193f8 <__getf2>
20010c2a:	02a04863          	bgtz	a0,20010c5a <_vfprintf_r+0x878>
20010c2e:	42b6                	lw	t0,76(sp)
20010c30:	4fa6                	lw	t6,72(sp)
20010c32:	4f16                	lw	t5,68(sp)
20010c34:	4e86                	lw	t4,64(sp)
20010c36:	010c                	addi	a1,sp,128
20010c38:	0908                	addi	a0,sp,144
20010c3a:	c916                	sw	t0,144(sp)
20010c3c:	cb7e                	sw	t6,148(sp)
20010c3e:	cd7a                	sw	t5,152(sp)
20010c40:	cf76                	sw	t4,156(sp)
20010c42:	c102                	sw	zero,128(sp)
20010c44:	c302                	sw	zero,132(sp)
20010c46:	c502                	sw	zero,136(sp)
20010c48:	c76a                	sw	s10,140(sp)
20010c4a:	708080ef          	jal	ra,20019352 <__eqtf2>
20010c4e:	12051c63          	bnez	a0,20010d86 <_vfprintf_r+0x9a4>
20010c52:	001a7a13          	andi	s4,s4,1
20010c56:	120a0863          	beqz	s4,20010d86 <_vfprintf_r+0x9a4>
20010c5a:	47a2                	lw	a5,8(sp)
20010c5c:	df66                	sw	s9,188(sp)
20010c5e:	03000593          	li	a1,48
20010c62:	00f7c603          	lbu	a2,15(a5) # 4003000f <__init_array_end+0x20010c3b>
20010c66:	56fa                	lw	a3,188(sp)
20010c68:	fff68793          	addi	a5,a3,-1 # 1fff <__heap_size+0x1bff>
20010c6c:	df3e                	sw	a5,188(sp)
20010c6e:	fff6c783          	lbu	a5,-1(a3)
20010c72:	0ec78b63          	beq	a5,a2,20010d68 <_vfprintf_r+0x986>
20010c76:	03900613          	li	a2,57
20010c7a:	0ec79a63          	bne	a5,a2,20010d6e <_vfprintf_r+0x98c>
20010c7e:	47a2                	lw	a5,8(sp)
20010c80:	00a7c783          	lbu	a5,10(a5)
20010c84:	fef68fa3          	sb	a5,-1(a3)
20010c88:	8a66                	mv	s4,s9
20010c8a:	04700713          	li	a4,71
20010c8e:	409a0a33          	sub	s4,s4,s1
20010c92:	5cba                	lw	s9,172(sp)
20010c94:	1ceb9a63          	bne	s7,a4,20010e68 <_vfprintf_r+0xa86>
20010c98:	5775                	li	a4,-3
20010c9a:	00ecc463          	blt	s9,a4,20010ca2 <_vfprintf_r+0x8c0>
20010c9e:	239dd663          	bge	s11,s9,20010eca <_vfprintf_r+0xae8>
20010ca2:	1af9                	addi	s5,s5,-2
20010ca4:	fffc8693          	addi	a3,s9,-1
20010ca8:	d736                	sw	a3,172(sp)
20010caa:	fdfaf613          	andi	a2,s5,-33
20010cae:	04100513          	li	a0,65
20010cb2:	0ffaf713          	andi	a4,s5,255
20010cb6:	4581                	li	a1,0
20010cb8:	00a61663          	bne	a2,a0,20010cc4 <_vfprintf_r+0x8e2>
20010cbc:	073d                	addi	a4,a4,15
20010cbe:	0ff77713          	andi	a4,a4,255
20010cc2:	4585                	li	a1,1
20010cc4:	0ae10a23          	sb	a4,180(sp)
20010cc8:	02b00793          	li	a5,43
20010ccc:	0006d763          	bgez	a3,20010cda <_vfprintf_r+0x8f8>
20010cd0:	4685                	li	a3,1
20010cd2:	419686b3          	sub	a3,a3,s9
20010cd6:	02d00793          	li	a5,45
20010cda:	0af10aa3          	sb	a5,181(sp)
20010cde:	47a5                	li	a5,9
20010ce0:	1cd7d063          	bge	a5,a3,20010ea0 <_vfprintf_r+0xabe>
20010ce4:	0c310713          	addi	a4,sp,195
20010ce8:	853a                	mv	a0,a4
20010cea:	45a9                	li	a1,10
20010cec:	06300813          	li	a6,99
20010cf0:	02b6e7b3          	rem	a5,a3,a1
20010cf4:	fff70613          	addi	a2,a4,-1
20010cf8:	03078793          	addi	a5,a5,48
20010cfc:	fef70fa3          	sb	a5,-1(a4)
20010d00:	02b6c7b3          	div	a5,a3,a1
20010d04:	18d84463          	blt	a6,a3,20010e8c <_vfprintf_r+0xaaa>
20010d08:	03078793          	addi	a5,a5,48
20010d0c:	fef60fa3          	sb	a5,-1(a2)
20010d10:	1779                	addi	a4,a4,-2
20010d12:	0b610613          	addi	a2,sp,182
20010d16:	16a76e63          	bltu	a4,a0,20010e92 <_vfprintf_r+0xab0>
20010d1a:	195c                	addi	a5,sp,180
20010d1c:	40f607b3          	sub	a5,a2,a5
20010d20:	d83e                	sw	a5,48(sp)
20010d22:	01478db3          	add	s11,a5,s4
20010d26:	4785                	li	a5,1
20010d28:	0147c563          	blt	a5,s4,20010d32 <_vfprintf_r+0x950>
20010d2c:	00147793          	andi	a5,s0,1
20010d30:	c399                	beqz	a5,20010d36 <_vfprintf_r+0x954>
20010d32:	47d2                	lw	a5,20(sp)
20010d34:	9dbe                	add	s11,s11,a5
20010d36:	bff47413          	andi	s0,s0,-1025
20010d3a:	10046793          	ori	a5,s0,256
20010d3e:	d03e                	sw	a5,32(sp)
20010d40:	c402                	sw	zero,8(sp)
20010d42:	4b81                	li	s7,0
20010d44:	4c81                	li	s9,0
20010d46:	57e2                	lw	a5,56(sp)
20010d48:	c789                	beqz	a5,20010d52 <_vfprintf_r+0x970>
20010d4a:	02d00713          	li	a4,45
20010d4e:	0ae103a3          	sb	a4,167(sp)
20010d52:	5402                	lw	s0,32(sp)
20010d54:	4d01                	li	s10,0
20010d56:	ba8d                	j	200106c8 <_vfprintf_r+0x2e6>
20010d58:	4b01                	li	s6,0
20010d5a:	1264                	addi	s1,sp,300
20010d5c:	b30d                	j	20010a7e <_vfprintf_r+0x69c>
20010d5e:	8b2a                	mv	s6,a0
20010d60:	bb39                	j	20010a7e <_vfprintf_r+0x69c>
20010d62:	4b01                	li	s6,0
20010d64:	4d99                	li	s11,6
20010d66:	bb21                	j	20010a7e <_vfprintf_r+0x69c>
20010d68:	feb68fa3          	sb	a1,-1(a3)
20010d6c:	bded                	j	20010c66 <_vfprintf_r+0x884>
20010d6e:	0785                	addi	a5,a5,1
20010d70:	0ff7f793          	andi	a5,a5,255
20010d74:	bf01                	j	20010c84 <_vfprintf_r+0x8a2>
20010d76:	0a05                	addi	s4,s4,1
20010d78:	feea0fa3          	sb	a4,-1(s4)
20010d7c:	414c87b3          	sub	a5,s9,s4
20010d80:	fe07dbe3          	bgez	a5,20010d76 <_vfprintf_r+0x994>
20010d84:	b719                	j	20010c8a <_vfprintf_r+0x8a8>
20010d86:	57f2                	lw	a5,60(sp)
20010d88:	8a66                	mv	s4,s9
20010d8a:	03000713          	li	a4,48
20010d8e:	9cbe                	add	s9,s9,a5
20010d90:	b7f5                	j	20010d7c <_vfprintf_r+0x99a>
20010d92:	04600793          	li	a5,70
20010d96:	00fb8b63          	beq	s7,a5,20010dac <_vfprintf_r+0x9ca>
20010d9a:	04500793          	li	a5,69
20010d9e:	001d8313          	addi	t1,s11,1
20010da2:	00fb8363          	beq	s7,a5,20010da8 <_vfprintf_r+0x9c6>
20010da6:	836e                	mv	t1,s11
20010da8:	4609                	li	a2,2
20010daa:	a019                	j	20010db0 <_vfprintf_r+0x9ce>
20010dac:	836e                	mv	t1,s11
20010dae:	460d                	li	a2,3
20010db0:	191c                	addi	a5,sp,176
20010db2:	869a                	mv	a3,t1
20010db4:	0bc10813          	addi	a6,sp,188
20010db8:	1178                	addi	a4,sp,172
20010dba:	090c                	addi	a1,sp,144
20010dbc:	854e                	mv	a0,s3
20010dbe:	c972                	sw	t3,144(sp)
20010dc0:	c0f2                	sw	t3,64(sp)
20010dc2:	cb46                	sw	a7,148(sp)
20010dc4:	de46                	sw	a7,60(sp)
20010dc6:	c41a                	sw	t1,8(sp)
20010dc8:	cd6a                	sw	s10,152(sp)
20010dca:	cf52                	sw	s4,156(sp)
20010dcc:	17e020ef          	jal	ra,20012f4a <_ldtoa_r>
20010dd0:	04700793          	li	a5,71
20010dd4:	84aa                	mv	s1,a0
20010dd6:	4322                	lw	t1,8(sp)
20010dd8:	58f2                	lw	a7,60(sp)
20010dda:	4e06                	lw	t3,64(sp)
20010ddc:	00fb9763          	bne	s7,a5,20010dea <_vfprintf_r+0xa08>
20010de0:	00147793          	andi	a5,s0,1
20010de4:	e399                	bnez	a5,20010dea <_vfprintf_r+0xa08>
20010de6:	5a7a                	lw	s4,188(sp)
20010de8:	b54d                	j	20010c8a <_vfprintf_r+0x8a8>
20010dea:	04600793          	li	a5,70
20010dee:	00648cb3          	add	s9,s1,t1
20010df2:	04fb9163          	bne	s7,a5,20010e34 <_vfprintf_r+0xa52>
20010df6:	0004c703          	lbu	a4,0(s1)
20010dfa:	03000793          	li	a5,48
20010dfe:	02f71963          	bne	a4,a5,20010e30 <_vfprintf_r+0xa4e>
20010e02:	010c                	addi	a1,sp,128
20010e04:	0908                	addi	a0,sp,144
20010e06:	c972                	sw	t3,144(sp)
20010e08:	de72                	sw	t3,60(sp)
20010e0a:	cb46                	sw	a7,148(sp)
20010e0c:	c446                	sw	a7,8(sp)
20010e0e:	c09a                	sw	t1,64(sp)
20010e10:	cd6a                	sw	s10,152(sp)
20010e12:	cf52                	sw	s4,156(sp)
20010e14:	c102                	sw	zero,128(sp)
20010e16:	c302                	sw	zero,132(sp)
20010e18:	c502                	sw	zero,136(sp)
20010e1a:	c702                	sw	zero,140(sp)
20010e1c:	536080ef          	jal	ra,20019352 <__eqtf2>
20010e20:	48a2                	lw	a7,8(sp)
20010e22:	5e72                	lw	t3,60(sp)
20010e24:	c511                	beqz	a0,20010e30 <_vfprintf_r+0xa4e>
20010e26:	4306                	lw	t1,64(sp)
20010e28:	4785                	li	a5,1
20010e2a:	406787b3          	sub	a5,a5,t1
20010e2e:	d73e                	sw	a5,172(sp)
20010e30:	57ba                	lw	a5,172(sp)
20010e32:	9cbe                	add	s9,s9,a5
20010e34:	010c                	addi	a1,sp,128
20010e36:	0908                	addi	a0,sp,144
20010e38:	c972                	sw	t3,144(sp)
20010e3a:	cb46                	sw	a7,148(sp)
20010e3c:	cd6a                	sw	s10,152(sp)
20010e3e:	cf52                	sw	s4,156(sp)
20010e40:	c102                	sw	zero,128(sp)
20010e42:	c302                	sw	zero,132(sp)
20010e44:	c502                	sw	zero,136(sp)
20010e46:	c702                	sw	zero,140(sp)
20010e48:	50a080ef          	jal	ra,20019352 <__eqtf2>
20010e4c:	e111                	bnez	a0,20010e50 <_vfprintf_r+0xa6e>
20010e4e:	df66                	sw	s9,188(sp)
20010e50:	03000713          	li	a4,48
20010e54:	a031                	j	20010e60 <_vfprintf_r+0xa7e>
20010e56:	00178693          	addi	a3,a5,1
20010e5a:	df36                	sw	a3,188(sp)
20010e5c:	00e78023          	sb	a4,0(a5)
20010e60:	57fa                	lw	a5,188(sp)
20010e62:	ff97eae3          	bltu	a5,s9,20010e56 <_vfprintf_r+0xa74>
20010e66:	b741                	j	20010de6 <_vfprintf_r+0xa04>
20010e68:	04600713          	li	a4,70
20010e6c:	e2eb9ce3          	bne	s7,a4,20010ca4 <_vfprintf_r+0x8c2>
20010e70:	00147713          	andi	a4,s0,1
20010e74:	01b76733          	or	a4,a4,s11
20010e78:	05905463          	blez	s9,20010ec0 <_vfprintf_r+0xade>
20010e7c:	cb49                	beqz	a4,20010f0e <_vfprintf_r+0xb2c>
20010e7e:	47d2                	lw	a5,20(sp)
20010e80:	00fc8733          	add	a4,s9,a5
20010e84:	9dba                	add	s11,s11,a4
20010e86:	06600a93          	li	s5,102
20010e8a:	a0bd                	j	20010ef8 <_vfprintf_r+0xb16>
20010e8c:	8732                	mv	a4,a2
20010e8e:	86be                	mv	a3,a5
20010e90:	b585                	j	20010cf0 <_vfprintf_r+0x90e>
20010e92:	0705                	addi	a4,a4,1
20010e94:	fff74783          	lbu	a5,-1(a4)
20010e98:	0605                	addi	a2,a2,1
20010e9a:	fef60fa3          	sb	a5,-1(a2)
20010e9e:	bda5                	j	20010d16 <_vfprintf_r+0x934>
20010ea0:	0b610713          	addi	a4,sp,182
20010ea4:	e599                	bnez	a1,20010eb2 <_vfprintf_r+0xad0>
20010ea6:	03000793          	li	a5,48
20010eaa:	0af10b23          	sb	a5,182(sp)
20010eae:	0b710713          	addi	a4,sp,183
20010eb2:	03068793          	addi	a5,a3,48
20010eb6:	00170613          	addi	a2,a4,1
20010eba:	00f70023          	sb	a5,0(a4)
20010ebe:	bdb1                	j	20010d1a <_vfprintf_r+0x938>
20010ec0:	cb29                	beqz	a4,20010f12 <_vfprintf_r+0xb30>
20010ec2:	47d2                	lw	a5,20(sp)
20010ec4:	00178713          	addi	a4,a5,1
20010ec8:	bf75                	j	20010e84 <_vfprintf_r+0xaa2>
20010eca:	014ccc63          	blt	s9,s4,20010ee2 <_vfprintf_r+0xb00>
20010ece:	00147713          	andi	a4,s0,1
20010ed2:	8de6                	mv	s11,s9
20010ed4:	c701                	beqz	a4,20010edc <_vfprintf_r+0xafa>
20010ed6:	47d2                	lw	a5,20(sp)
20010ed8:	00fc8db3          	add	s11,s9,a5
20010edc:	06700a93          	li	s5,103
20010ee0:	a821                	j	20010ef8 <_vfprintf_r+0xb16>
20010ee2:	47d2                	lw	a5,20(sp)
20010ee4:	06700a93          	li	s5,103
20010ee8:	00fa0db3          	add	s11,s4,a5
20010eec:	01904663          	bgtz	s9,20010ef8 <_vfprintf_r+0xb16>
20010ef0:	419d8333          	sub	t1,s11,s9
20010ef4:	00130d93          	addi	s11,t1,1
20010ef8:	40047b93          	andi	s7,s0,1024
20010efc:	c402                	sw	zero,8(sp)
20010efe:	e40b84e3          	beqz	s7,20010d46 <_vfprintf_r+0x964>
20010f02:	4b81                	li	s7,0
20010f04:	e59051e3          	blez	s9,20010d46 <_vfprintf_r+0x964>
20010f08:	0ff00693          	li	a3,255
20010f0c:	a015                	j	20010f30 <_vfprintf_r+0xb4e>
20010f0e:	8de6                	mv	s11,s9
20010f10:	bf9d                	j	20010e86 <_vfprintf_r+0xaa4>
20010f12:	06600a93          	li	s5,102
20010f16:	4d85                	li	s11,1
20010f18:	b7c5                	j	20010ef8 <_vfprintf_r+0xb16>
20010f1a:	03975063          	bge	a4,s9,20010f3a <_vfprintf_r+0xb58>
20010f1e:	4792                	lw	a5,4(sp)
20010f20:	40ec8cb3          	sub	s9,s9,a4
20010f24:	0017c703          	lbu	a4,1(a5)
20010f28:	c30d                	beqz	a4,20010f4a <_vfprintf_r+0xb68>
20010f2a:	0785                	addi	a5,a5,1
20010f2c:	0b85                	addi	s7,s7,1
20010f2e:	c23e                	sw	a5,4(sp)
20010f30:	4792                	lw	a5,4(sp)
20010f32:	0007c703          	lbu	a4,0(a5)
20010f36:	fed712e3          	bne	a4,a3,20010f1a <_vfprintf_r+0xb38>
20010f3a:	47a2                	lw	a5,8(sp)
20010f3c:	00fb8733          	add	a4,s7,a5
20010f40:	5792                	lw	a5,36(sp)
20010f42:	02f70733          	mul	a4,a4,a5
20010f46:	9dba                	add	s11,s11,a4
20010f48:	bbfd                	j	20010d46 <_vfprintf_r+0x964>
20010f4a:	47a2                	lw	a5,8(sp)
20010f4c:	0785                	addi	a5,a5,1
20010f4e:	c43e                	sw	a5,8(sp)
20010f50:	b7c5                	j	20010f30 <_vfprintf_r+0xb4e>
20010f52:	004b0713          	addi	a4,s6,4
20010f56:	c63a                	sw	a4,12(sp)
20010f58:	02047713          	andi	a4,s0,32
20010f5c:	000b2783          	lw	a5,0(s6)
20010f60:	cb09                	beqz	a4,20010f72 <_vfprintf_r+0xb90>
20010f62:	4762                	lw	a4,24(sp)
20010f64:	c398                	sw	a4,0(a5)
20010f66:	877d                	srai	a4,a4,0x1f
20010f68:	c3d8                	sw	a4,4(a5)
20010f6a:	4b32                	lw	s6,12(sp)
20010f6c:	44c2                	lw	s1,16(sp)
20010f6e:	d8eff06f          	j	200104fc <_vfprintf_r+0x11a>
20010f72:	01047713          	andi	a4,s0,16
20010f76:	c701                	beqz	a4,20010f7e <_vfprintf_r+0xb9c>
20010f78:	4762                	lw	a4,24(sp)
20010f7a:	c398                	sw	a4,0(a5)
20010f7c:	b7fd                	j	20010f6a <_vfprintf_r+0xb88>
20010f7e:	04047713          	andi	a4,s0,64
20010f82:	c709                	beqz	a4,20010f8c <_vfprintf_r+0xbaa>
20010f84:	4762                	lw	a4,24(sp)
20010f86:	00e79023          	sh	a4,0(a5)
20010f8a:	b7c5                	j	20010f6a <_vfprintf_r+0xb88>
20010f8c:	20047413          	andi	s0,s0,512
20010f90:	d465                	beqz	s0,20010f78 <_vfprintf_r+0xb96>
20010f92:	4762                	lw	a4,24(sp)
20010f94:	00e78023          	sb	a4,0(a5)
20010f98:	bfc9                	j	20010f6a <_vfprintf_r+0xb88>
20010f9a:	01046413          	ori	s0,s0,16
20010f9e:	02047793          	andi	a5,s0,32
20010fa2:	c38d                	beqz	a5,20010fc4 <_vfprintf_r+0xbe2>
20010fa4:	0b1d                	addi	s6,s6,7
20010fa6:	ff8b7b13          	andi	s6,s6,-8
20010faa:	000b2d03          	lw	s10,0(s6)
20010fae:	004b2c83          	lw	s9,4(s6)
20010fb2:	008b0793          	addi	a5,s6,8
20010fb6:	c63e                	sw	a5,12(sp)
20010fb8:	bff47413          	andi	s0,s0,-1025
20010fbc:	4781                	li	a5,0
20010fbe:	0a0103a3          	sb	zero,167(sp)
20010fc2:	ba19                	j	200108d8 <_vfprintf_r+0x4f6>
20010fc4:	004b0793          	addi	a5,s6,4
20010fc8:	c63e                	sw	a5,12(sp)
20010fca:	01047793          	andi	a5,s0,16
20010fce:	c781                	beqz	a5,20010fd6 <_vfprintf_r+0xbf4>
20010fd0:	000b2d03          	lw	s10,0(s6)
20010fd4:	a031                	j	20010fe0 <_vfprintf_r+0xbfe>
20010fd6:	04047793          	andi	a5,s0,64
20010fda:	c789                	beqz	a5,20010fe4 <_vfprintf_r+0xc02>
20010fdc:	000b5d03          	lhu	s10,0(s6)
20010fe0:	4c81                	li	s9,0
20010fe2:	bfd9                	j	20010fb8 <_vfprintf_r+0xbd6>
20010fe4:	20047793          	andi	a5,s0,512
20010fe8:	d7e5                	beqz	a5,20010fd0 <_vfprintf_r+0xbee>
20010fea:	000b4d03          	lbu	s10,0(s6)
20010fee:	bfcd                	j	20010fe0 <_vfprintf_r+0xbfe>
20010ff0:	004b0793          	addi	a5,s6,4
20010ff4:	c63e                	sw	a5,12(sp)
20010ff6:	77e1                	lui	a5,0xffff8
20010ff8:	8307c793          	xori	a5,a5,-2000
20010ffc:	0af11423          	sh	a5,168(sp)
20011000:	0000d797          	auipc	a5,0xd
20011004:	da078793          	addi	a5,a5,-608 # 2001dda0 <zeroes.4514+0x20>
20011008:	da3e                	sw	a5,52(sp)
2001100a:	000b2d03          	lw	s10,0(s6)
2001100e:	4c81                	li	s9,0
20011010:	00246413          	ori	s0,s0,2
20011014:	4789                	li	a5,2
20011016:	07800a93          	li	s5,120
2001101a:	b755                	j	20010fbe <_vfprintf_r+0xbdc>
2001101c:	004b0793          	addi	a5,s6,4
20011020:	c63e                	sw	a5,12(sp)
20011022:	0a0103a3          	sb	zero,167(sp)
20011026:	57fd                	li	a5,-1
20011028:	000b2483          	lw	s1,0(s6)
2001102c:	00fd8e63          	beq	s11,a5,20011048 <_vfprintf_r+0xc66>
20011030:	866e                	mv	a2,s11
20011032:	4581                	li	a1,0
20011034:	8526                	mv	a0,s1
20011036:	793020ef          	jal	ra,20013fc8 <memchr>
2001103a:	8b2a                	mv	s6,a0
2001103c:	960507e3          	beqz	a0,200109aa <_vfprintf_r+0x5c8>
20011040:	40950db3          	sub	s11,a0,s1
20011044:	4b01                	li	s6,0
20011046:	b295                	j	200109aa <_vfprintf_r+0x5c8>
20011048:	8526                	mv	a0,s1
2001104a:	4a3030ef          	jal	ra,20014cec <strlen>
2001104e:	8daa                	mv	s11,a0
20011050:	bfd5                	j	20011044 <_vfprintf_r+0xc62>
20011052:	01046413          	ori	s0,s0,16
20011056:	02047793          	andi	a5,s0,32
2001105a:	cf89                	beqz	a5,20011074 <_vfprintf_r+0xc92>
2001105c:	0b1d                	addi	s6,s6,7
2001105e:	ff8b7b13          	andi	s6,s6,-8
20011062:	000b2d03          	lw	s10,0(s6)
20011066:	004b2c83          	lw	s9,4(s6)
2001106a:	008b0793          	addi	a5,s6,8
2001106e:	c63e                	sw	a5,12(sp)
20011070:	4785                	li	a5,1
20011072:	b7b1                	j	20010fbe <_vfprintf_r+0xbdc>
20011074:	004b0793          	addi	a5,s6,4
20011078:	c63e                	sw	a5,12(sp)
2001107a:	01047793          	andi	a5,s0,16
2001107e:	c781                	beqz	a5,20011086 <_vfprintf_r+0xca4>
20011080:	000b2d03          	lw	s10,0(s6)
20011084:	a031                	j	20011090 <_vfprintf_r+0xcae>
20011086:	04047793          	andi	a5,s0,64
2001108a:	c789                	beqz	a5,20011094 <_vfprintf_r+0xcb2>
2001108c:	000b5d03          	lhu	s10,0(s6)
20011090:	4c81                	li	s9,0
20011092:	bff9                	j	20011070 <_vfprintf_r+0xc8e>
20011094:	20047793          	andi	a5,s0,512
20011098:	d7e5                	beqz	a5,20011080 <_vfprintf_r+0xc9e>
2001109a:	000b4d03          	lbu	s10,0(s6)
2001109e:	bfcd                	j	20011090 <_vfprintf_r+0xcae>
200110a0:	0000d797          	auipc	a5,0xd
200110a4:	d1478793          	addi	a5,a5,-748 # 2001ddb4 <zeroes.4514+0x34>
200110a8:	da3e                	sw	a5,52(sp)
200110aa:	02047793          	andi	a5,s0,32
200110ae:	c3b1                	beqz	a5,200110f2 <_vfprintf_r+0xd10>
200110b0:	0b1d                	addi	s6,s6,7
200110b2:	ff8b7b13          	andi	s6,s6,-8
200110b6:	000b2d03          	lw	s10,0(s6)
200110ba:	004b2c83          	lw	s9,4(s6)
200110be:	008b0793          	addi	a5,s6,8
200110c2:	c63e                	sw	a5,12(sp)
200110c4:	00147793          	andi	a5,s0,1
200110c8:	cf81                	beqz	a5,200110e0 <_vfprintf_r+0xcfe>
200110ca:	019d67b3          	or	a5,s10,s9
200110ce:	cb89                	beqz	a5,200110e0 <_vfprintf_r+0xcfe>
200110d0:	03000793          	li	a5,48
200110d4:	0af10423          	sb	a5,168(sp)
200110d8:	0b5104a3          	sb	s5,169(sp)
200110dc:	00246413          	ori	s0,s0,2
200110e0:	bff47413          	andi	s0,s0,-1025
200110e4:	4789                	li	a5,2
200110e6:	bde1                	j	20010fbe <_vfprintf_r+0xbdc>
200110e8:	0000d797          	auipc	a5,0xd
200110ec:	cb878793          	addi	a5,a5,-840 # 2001dda0 <zeroes.4514+0x20>
200110f0:	bf65                	j	200110a8 <_vfprintf_r+0xcc6>
200110f2:	004b0793          	addi	a5,s6,4
200110f6:	c63e                	sw	a5,12(sp)
200110f8:	01047793          	andi	a5,s0,16
200110fc:	c781                	beqz	a5,20011104 <_vfprintf_r+0xd22>
200110fe:	000b2d03          	lw	s10,0(s6)
20011102:	a031                	j	2001110e <_vfprintf_r+0xd2c>
20011104:	04047793          	andi	a5,s0,64
20011108:	c789                	beqz	a5,20011112 <_vfprintf_r+0xd30>
2001110a:	000b5d03          	lhu	s10,0(s6)
2001110e:	4c81                	li	s9,0
20011110:	bf55                	j	200110c4 <_vfprintf_r+0xce2>
20011112:	20047793          	andi	a5,s0,512
20011116:	d7e5                	beqz	a5,200110fe <_vfprintf_r+0xd1c>
20011118:	000b4d03          	lbu	s10,0(s6)
2001111c:	bfcd                	j	2001110e <_vfprintf_r+0xd2c>
2001111e:	8722                	mv	a4,s0
20011120:	4785                	li	a5,1
20011122:	fbeff06f          	j	200108e0 <_vfprintf_r+0x4fe>
20011126:	4705                	li	a4,1
20011128:	0ae78ae3          	beq	a5,a4,200119dc <_vfprintf_r+0x15fa>
2001112c:	4709                	li	a4,2
2001112e:	0ce78d63          	beq	a5,a4,20011208 <_vfprintf_r+0xe26>
20011132:	0b1c                	addi	a5,sp,400
20011134:	01dc9693          	slli	a3,s9,0x1d
20011138:	007d7713          	andi	a4,s10,7
2001113c:	003d5d13          	srli	s10,s10,0x3
20011140:	03070713          	addi	a4,a4,48
20011144:	01a6ed33          	or	s10,a3,s10
20011148:	003cdc93          	srli	s9,s9,0x3
2001114c:	fee78fa3          	sb	a4,-1(a5)
20011150:	019d66b3          	or	a3,s10,s9
20011154:	fff78493          	addi	s1,a5,-1
20011158:	e695                	bnez	a3,20011184 <_vfprintf_r+0xda2>
2001115a:	00147693          	andi	a3,s0,1
2001115e:	ca89                	beqz	a3,20011170 <_vfprintf_r+0xd8e>
20011160:	03000693          	li	a3,48
20011164:	00d70663          	beq	a4,a3,20011170 <_vfprintf_r+0xd8e>
20011168:	fed48fa3          	sb	a3,-1(s1)
2001116c:	ffe78493          	addi	s1,a5,-2
20011170:	0b1c                	addi	a5,sp,400
20011172:	8d6e                	mv	s10,s11
20011174:	4b01                	li	s6,0
20011176:	40978db3          	sub	s11,a5,s1
2001117a:	c402                	sw	zero,8(sp)
2001117c:	4b81                	li	s7,0
2001117e:	4c81                	li	s9,0
20011180:	d48ff06f          	j	200106c8 <_vfprintf_r+0x2e6>
20011184:	87a6                	mv	a5,s1
20011186:	b77d                	j	20011134 <_vfprintf_r+0xd52>
20011188:	4a01                	li	s4,0
2001118a:	0b1c                	addi	a5,sp,400
2001118c:	40047b93          	andi	s7,s0,1024
20011190:	4b25                	li	s6,9
20011192:	4629                	li	a2,10
20011194:	4681                	li	a3,0
20011196:	856a                	mv	a0,s10
20011198:	85e6                	mv	a1,s9
2001119a:	fff78493          	addi	s1,a5,-1
2001119e:	c43e                	sw	a5,8(sp)
200111a0:	4c6070ef          	jal	ra,20018666 <__umoddi3>
200111a4:	47a2                	lw	a5,8(sp)
200111a6:	03050513          	addi	a0,a0,48
200111aa:	0a05                	addi	s4,s4,1
200111ac:	fea78fa3          	sb	a0,-1(a5)
200111b0:	020b8e63          	beqz	s7,200111ec <_vfprintf_r+0xe0a>
200111b4:	4792                	lw	a5,4(sp)
200111b6:	0007c783          	lbu	a5,0(a5)
200111ba:	02fa1963          	bne	s4,a5,200111ec <_vfprintf_r+0xe0a>
200111be:	0ff00793          	li	a5,255
200111c2:	02fa0563          	beq	s4,a5,200111ec <_vfprintf_r+0xe0a>
200111c6:	000c9463          	bnez	s9,200111ce <_vfprintf_r+0xdec>
200111ca:	03ab7163          	bgeu	s6,s10,200111ec <_vfprintf_r+0xe0a>
200111ce:	5792                	lw	a5,36(sp)
200111d0:	55b2                	lw	a1,44(sp)
200111d2:	4a01                	li	s4,0
200111d4:	8c9d                	sub	s1,s1,a5
200111d6:	863e                	mv	a2,a5
200111d8:	8526                	mv	a0,s1
200111da:	325030ef          	jal	ra,20014cfe <strncpy>
200111de:	4792                	lw	a5,4(sp)
200111e0:	0017c783          	lbu	a5,1(a5)
200111e4:	c781                	beqz	a5,200111ec <_vfprintf_r+0xe0a>
200111e6:	4792                	lw	a5,4(sp)
200111e8:	0785                	addi	a5,a5,1
200111ea:	c23e                	sw	a5,4(sp)
200111ec:	4629                	li	a2,10
200111ee:	4681                	li	a3,0
200111f0:	856a                	mv	a0,s10
200111f2:	85e6                	mv	a1,s9
200111f4:	114070ef          	jal	ra,20018308 <__udivdi3>
200111f8:	000c9463          	bnez	s9,20011200 <_vfprintf_r+0xe1e>
200111fc:	f7ab7ae3          	bgeu	s6,s10,20011170 <_vfprintf_r+0xd8e>
20011200:	8d2a                	mv	s10,a0
20011202:	8cae                	mv	s9,a1
20011204:	87a6                	mv	a5,s1
20011206:	b771                	j	20011192 <_vfprintf_r+0xdb0>
20011208:	0b04                	addi	s1,sp,400
2001120a:	5752                	lw	a4,52(sp)
2001120c:	00fd7793          	andi	a5,s10,15
20011210:	14fd                	addi	s1,s1,-1
20011212:	97ba                	add	a5,a5,a4
20011214:	0007c783          	lbu	a5,0(a5)
20011218:	004d5d13          	srli	s10,s10,0x4
2001121c:	00f48023          	sb	a5,0(s1)
20011220:	01cc9793          	slli	a5,s9,0x1c
20011224:	01a7ed33          	or	s10,a5,s10
20011228:	004cdc93          	srli	s9,s9,0x4
2001122c:	019d67b3          	or	a5,s10,s9
20011230:	ffe9                	bnez	a5,2001120a <_vfprintf_r+0xe28>
20011232:	bf3d                	j	20011170 <_vfprintf_r+0xd8e>
20011234:	0b04                	addi	s1,sp,400
20011236:	ff8d                	bnez	a5,20011170 <_vfprintf_r+0xd8e>
20011238:	8b05                	andi	a4,a4,1
2001123a:	db1d                	beqz	a4,20011170 <_vfprintf_r+0xd8e>
2001123c:	03000793          	li	a5,48
20011240:	18f107a3          	sb	a5,399(sp)
20011244:	7aa0006f          	j	200119ee <_vfprintf_r+0x160c>
20011248:	760a8c63          	beqz	s5,200119c0 <_vfprintf_r+0x15de>
2001124c:	13510623          	sb	s5,300(sp)
20011250:	0a0103a3          	sb	zero,167(sp)
20011254:	c65a                	sw	s6,12(sp)
20011256:	c64ff06f          	j	200106ba <_vfprintf_r+0x2d8>
2001125a:	0641                	addi	a2,a2,16
2001125c:	01dc2223          	sw	t4,4(s8)
20011260:	c7b2                	sw	a2,204(sp)
20011262:	c5b6                	sw	a3,200(sp)
20011264:	02df5263          	bge	t5,a3,20011288 <_vfprintf_r+0xea6>
20011268:	01d0                	addi	a2,sp,196
2001126a:	85ca                	mv	a1,s2
2001126c:	854e                	mv	a0,s3
2001126e:	c0ba                	sw	a4,64(sp)
20011270:	08c050ef          	jal	ra,200162fc <__sprint_r>
20011274:	70051863          	bnez	a0,20011984 <_vfprintf_r+0x15a2>
20011278:	4706                	lw	a4,64(sp)
2001127a:	11ec                	addi	a1,sp,236
2001127c:	4f1d                	li	t5,7
2001127e:	0000de17          	auipc	t3,0xd
20011282:	af2e0e13          	addi	t3,t3,-1294 # 2001dd70 <blanks.4513>
20011286:	4ec1                	li	t4,16
20011288:	1741                	addi	a4,a4,-16
2001128a:	8c2e                	mv	s8,a1
2001128c:	c7eff06f          	j	2001070a <_vfprintf_r+0x328>
20011290:	06c1                	addi	a3,a3,16
20011292:	010c2223          	sw	a6,4(s8)
20011296:	c7b6                	sw	a3,204(sp)
20011298:	c5ba                	sw	a4,200(sp)
2001129a:	00ee5e63          	bge	t3,a4,200112b6 <_vfprintf_r+0xed4>
2001129e:	01d0                	addi	a2,sp,196
200112a0:	85ca                	mv	a1,s2
200112a2:	854e                	mv	a0,s3
200112a4:	dc3e                	sw	a5,56(sp)
200112a6:	056050ef          	jal	ra,200162fc <__sprint_r>
200112aa:	6c051d63          	bnez	a0,20011984 <_vfprintf_r+0x15a2>
200112ae:	57e2                	lw	a5,56(sp)
200112b0:	11f0                	addi	a2,sp,236
200112b2:	4e1d                	li	t3,7
200112b4:	4841                	li	a6,16
200112b6:	17c1                	addi	a5,a5,-16
200112b8:	8c32                	mv	s8,a2
200112ba:	d14ff06f          	j	200107ce <_vfprintf_r+0x3ec>
200112be:	0000d597          	auipc	a1,0xd
200112c2:	ac258593          	addi	a1,a1,-1342 # 2001dd80 <zeroes.4514>
200112c6:	06c1                	addi	a3,a3,16
200112c8:	00bc2023          	sw	a1,0(s8)
200112cc:	00fc2223          	sw	a5,4(s8)
200112d0:	c7b6                	sw	a3,204(sp)
200112d2:	c5ba                	sw	a4,200(sp)
200112d4:	00e85c63          	bge	a6,a4,200112ec <_vfprintf_r+0xf0a>
200112d8:	01d0                	addi	a2,sp,196
200112da:	85ca                	mv	a1,s2
200112dc:	854e                	mv	a0,s3
200112de:	01e050ef          	jal	ra,200162fc <__sprint_r>
200112e2:	6a051163          	bnez	a0,20011984 <_vfprintf_r+0x15a2>
200112e6:	11f0                	addi	a2,sp,236
200112e8:	481d                	li	a6,7
200112ea:	47c1                	li	a5,16
200112ec:	1d41                	addi	s10,s10,-16
200112ee:	8c32                	mv	s8,a2
200112f0:	d2aff06f          	j	2001081a <_vfprintf_r+0x438>
200112f4:	06500713          	li	a4,101
200112f8:	4f575a63          	bge	a4,s5,200117ec <_vfprintf_r+0x140a>
200112fc:	474e                	lw	a4,208(sp)
200112fe:	010c                	addi	a1,sp,128
20011300:	0908                	addi	a0,sp,144
20011302:	c93a                	sw	a4,144(sp)
20011304:	475e                	lw	a4,212(sp)
20011306:	c102                	sw	zero,128(sp)
20011308:	c302                	sw	zero,132(sp)
2001130a:	cb3a                	sw	a4,148(sp)
2001130c:	476e                	lw	a4,216(sp)
2001130e:	c502                	sw	zero,136(sp)
20011310:	c702                	sw	zero,140(sp)
20011312:	cd3a                	sw	a4,152(sp)
20011314:	477e                	lw	a4,220(sp)
20011316:	cf3a                	sw	a4,156(sp)
20011318:	03a080ef          	jal	ra,20019352 <__eqtf2>
2001131c:	ed69                	bnez	a0,200113f6 <_vfprintf_r+0x1014>
2001131e:	0000d797          	auipc	a5,0xd
20011322:	aaa78793          	addi	a5,a5,-1366 # 2001ddc8 <zeroes.4514+0x48>
20011326:	00fc2023          	sw	a5,0(s8)
2001132a:	4785                	li	a5,1
2001132c:	00fc2223          	sw	a5,4(s8)
20011330:	47ae                	lw	a5,200(sp)
20011332:	0d05                	addi	s10,s10,1
20011334:	c7ea                	sw	s10,204(sp)
20011336:	0785                	addi	a5,a5,1
20011338:	c5be                	sw	a5,200(sp)
2001133a:	471d                	li	a4,7
2001133c:	0c21                	addi	s8,s8,8
2001133e:	00f75b63          	bge	a4,a5,20011354 <_vfprintf_r+0xf72>
20011342:	01d0                	addi	a2,sp,196
20011344:	85ca                	mv	a1,s2
20011346:	854e                	mv	a0,s3
20011348:	7b5040ef          	jal	ra,200162fc <__sprint_r>
2001134c:	62051c63          	bnez	a0,20011984 <_vfprintf_r+0x15a2>
20011350:	0ec10c13          	addi	s8,sp,236
20011354:	57ba                	lw	a5,172(sp)
20011356:	0147c663          	blt	a5,s4,20011362 <_vfprintf_r+0xf80>
2001135a:	00147793          	andi	a5,s0,1
2001135e:	16078e63          	beqz	a5,200114da <_vfprintf_r+0x10f8>
20011362:	57a2                	lw	a5,40(sp)
20011364:	4752                	lw	a4,20(sp)
20011366:	0c21                	addi	s8,s8,8
20011368:	fefc2c23          	sw	a5,-8(s8)
2001136c:	47d2                	lw	a5,20(sp)
2001136e:	fefc2e23          	sw	a5,-4(s8)
20011372:	47be                	lw	a5,204(sp)
20011374:	97ba                	add	a5,a5,a4
20011376:	c7be                	sw	a5,204(sp)
20011378:	47ae                	lw	a5,200(sp)
2001137a:	471d                	li	a4,7
2001137c:	0785                	addi	a5,a5,1
2001137e:	c5be                	sw	a5,200(sp)
20011380:	00f75b63          	bge	a4,a5,20011396 <_vfprintf_r+0xfb4>
20011384:	01d0                	addi	a2,sp,196
20011386:	85ca                	mv	a1,s2
20011388:	854e                	mv	a0,s3
2001138a:	773040ef          	jal	ra,200162fc <__sprint_r>
2001138e:	5e051b63          	bnez	a0,20011984 <_vfprintf_r+0x15a2>
20011392:	0ec10c13          	addi	s8,sp,236
20011396:	fffa0493          	addi	s1,s4,-1
2001139a:	14905063          	blez	s1,200114da <_vfprintf_r+0x10f8>
2001139e:	4ac1                	li	s5,16
200113a0:	4b9d                	li	s7,7
200113a2:	47ae                	lw	a5,200(sp)
200113a4:	0000d617          	auipc	a2,0xd
200113a8:	9dc60613          	addi	a2,a2,-1572 # 2001dd80 <zeroes.4514>
200113ac:	00cc2023          	sw	a2,0(s8)
200113b0:	473e                	lw	a4,204(sp)
200113b2:	0785                	addi	a5,a5,1
200113b4:	008c0693          	addi	a3,s8,8
200113b8:	009acd63          	blt	s5,s1,200113d2 <_vfprintf_r+0xff0>
200113bc:	009c2223          	sw	s1,4(s8)
200113c0:	94ba                	add	s1,s1,a4
200113c2:	c7a6                	sw	s1,204(sp)
200113c4:	c5be                	sw	a5,200(sp)
200113c6:	471d                	li	a4,7
200113c8:	8c36                	mv	s8,a3
200113ca:	10f75863          	bge	a4,a5,200114da <_vfprintf_r+0x10f8>
200113ce:	cb2ff06f          	j	20010880 <_vfprintf_r+0x49e>
200113d2:	0741                	addi	a4,a4,16
200113d4:	015c2223          	sw	s5,4(s8)
200113d8:	c7ba                	sw	a4,204(sp)
200113da:	c5be                	sw	a5,200(sp)
200113dc:	00fbda63          	bge	s7,a5,200113f0 <_vfprintf_r+0x100e>
200113e0:	01d0                	addi	a2,sp,196
200113e2:	85ca                	mv	a1,s2
200113e4:	854e                	mv	a0,s3
200113e6:	717040ef          	jal	ra,200162fc <__sprint_r>
200113ea:	58051d63          	bnez	a0,20011984 <_vfprintf_r+0x15a2>
200113ee:	11f4                	addi	a3,sp,236
200113f0:	14c1                	addi	s1,s1,-16
200113f2:	8c36                	mv	s8,a3
200113f4:	b77d                	j	200113a2 <_vfprintf_r+0xfc0>
200113f6:	573a                	lw	a4,172(sp)
200113f8:	12e04e63          	bgtz	a4,20011534 <_vfprintf_r+0x1152>
200113fc:	0000d797          	auipc	a5,0xd
20011400:	9cc78793          	addi	a5,a5,-1588 # 2001ddc8 <zeroes.4514+0x48>
20011404:	00fc2023          	sw	a5,0(s8)
20011408:	4785                	li	a5,1
2001140a:	00fc2223          	sw	a5,4(s8)
2001140e:	47ae                	lw	a5,200(sp)
20011410:	0d05                	addi	s10,s10,1
20011412:	c7ea                	sw	s10,204(sp)
20011414:	0785                	addi	a5,a5,1
20011416:	c5be                	sw	a5,200(sp)
20011418:	471d                	li	a4,7
2001141a:	0c21                	addi	s8,s8,8
2001141c:	00f75b63          	bge	a4,a5,20011432 <_vfprintf_r+0x1050>
20011420:	01d0                	addi	a2,sp,196
20011422:	85ca                	mv	a1,s2
20011424:	854e                	mv	a0,s3
20011426:	6d7040ef          	jal	ra,200162fc <__sprint_r>
2001142a:	54051d63          	bnez	a0,20011984 <_vfprintf_r+0x15a2>
2001142e:	0ec10c13          	addi	s8,sp,236
20011432:	57ba                	lw	a5,172(sp)
20011434:	00147693          	andi	a3,s0,1
20011438:	473e                	lw	a4,204(sp)
2001143a:	00fa67b3          	or	a5,s4,a5
2001143e:	8fd5                	or	a5,a5,a3
20011440:	cfc9                	beqz	a5,200114da <_vfprintf_r+0x10f8>
20011442:	57a2                	lw	a5,40(sp)
20011444:	008c0893          	addi	a7,s8,8
20011448:	00fc2023          	sw	a5,0(s8)
2001144c:	47d2                	lw	a5,20(sp)
2001144e:	00fc2223          	sw	a5,4(s8)
20011452:	97ba                	add	a5,a5,a4
20011454:	c7be                	sw	a5,204(sp)
20011456:	47ae                	lw	a5,200(sp)
20011458:	471d                	li	a4,7
2001145a:	0785                	addi	a5,a5,1
2001145c:	c5be                	sw	a5,200(sp)
2001145e:	00f75b63          	bge	a4,a5,20011474 <_vfprintf_r+0x1092>
20011462:	01d0                	addi	a2,sp,196
20011464:	85ca                	mv	a1,s2
20011466:	854e                	mv	a0,s3
20011468:	695040ef          	jal	ra,200162fc <__sprint_r>
2001146c:	50051c63          	bnez	a0,20011984 <_vfprintf_r+0x15a2>
20011470:	0ec10893          	addi	a7,sp,236
20011474:	5aba                	lw	s5,172(sp)
20011476:	040ad363          	bgez	s5,200114bc <_vfprintf_r+0x10da>
2001147a:	41500ab3          	neg	s5,s5
2001147e:	8746                	mv	a4,a7
20011480:	4bc1                	li	s7,16
20011482:	4c1d                	li	s8,7
20011484:	47ae                	lw	a5,200(sp)
20011486:	0000d617          	auipc	a2,0xd
2001148a:	8fa60613          	addi	a2,a2,-1798 # 2001dd80 <zeroes.4514>
2001148e:	c310                	sw	a2,0(a4)
20011490:	46be                	lw	a3,204(sp)
20011492:	0785                	addi	a5,a5,1
20011494:	08a1                	addi	a7,a7,8
20011496:	075bcc63          	blt	s7,s5,2001150e <_vfprintf_r+0x112c>
2001149a:	01572223          	sw	s5,4(a4)
2001149e:	9ab6                	add	s5,s5,a3
200114a0:	c7d6                	sw	s5,204(sp)
200114a2:	c5be                	sw	a5,200(sp)
200114a4:	471d                	li	a4,7
200114a6:	00f75b63          	bge	a4,a5,200114bc <_vfprintf_r+0x10da>
200114aa:	01d0                	addi	a2,sp,196
200114ac:	85ca                	mv	a1,s2
200114ae:	854e                	mv	a0,s3
200114b0:	64d040ef          	jal	ra,200162fc <__sprint_r>
200114b4:	4c051863          	bnez	a0,20011984 <_vfprintf_r+0x15a2>
200114b8:	0ec10893          	addi	a7,sp,236
200114bc:	47be                	lw	a5,204(sp)
200114be:	0098a023          	sw	s1,0(a7)
200114c2:	0148a223          	sw	s4,4(a7)
200114c6:	97d2                	add	a5,a5,s4
200114c8:	c7be                	sw	a5,204(sp)
200114ca:	47ae                	lw	a5,200(sp)
200114cc:	471d                	li	a4,7
200114ce:	00888c13          	addi	s8,a7,8
200114d2:	0785                	addi	a5,a5,1
200114d4:	c5be                	sw	a5,200(sp)
200114d6:	baf74563          	blt	a4,a5,20010880 <_vfprintf_r+0x49e>
200114da:	8811                	andi	s0,s0,4
200114dc:	46041263          	bnez	s0,20011940 <_vfprintf_r+0x155e>
200114e0:	4af2                	lw	s5,28(sp)
200114e2:	5782                	lw	a5,32(sp)
200114e4:	00fad363          	bge	s5,a5,200114ea <_vfprintf_r+0x1108>
200114e8:	8abe                	mv	s5,a5
200114ea:	47e2                	lw	a5,24(sp)
200114ec:	97d6                	add	a5,a5,s5
200114ee:	cc3e                	sw	a5,24(sp)
200114f0:	47be                	lw	a5,204(sp)
200114f2:	cb81                	beqz	a5,20011502 <_vfprintf_r+0x1120>
200114f4:	01d0                	addi	a2,sp,196
200114f6:	85ca                	mv	a1,s2
200114f8:	854e                	mv	a0,s3
200114fa:	603040ef          	jal	ra,200162fc <__sprint_r>
200114fe:	48051363          	bnez	a0,20011984 <_vfprintf_r+0x15a2>
20011502:	c582                	sw	zero,200(sp)
20011504:	4a0b1a63          	bnez	s6,200119b8 <_vfprintf_r+0x15d6>
20011508:	0ec10c13          	addi	s8,sp,236
2001150c:	bcb9                	j	20010f6a <_vfprintf_r+0xb88>
2001150e:	06c1                	addi	a3,a3,16
20011510:	01772223          	sw	s7,4(a4)
20011514:	c7b6                	sw	a3,204(sp)
20011516:	c5be                	sw	a5,200(sp)
20011518:	00fc5b63          	bge	s8,a5,2001152e <_vfprintf_r+0x114c>
2001151c:	01d0                	addi	a2,sp,196
2001151e:	85ca                	mv	a1,s2
20011520:	854e                	mv	a0,s3
20011522:	5db040ef          	jal	ra,200162fc <__sprint_r>
20011526:	44051f63          	bnez	a0,20011984 <_vfprintf_r+0x15a2>
2001152a:	0ec10893          	addi	a7,sp,236
2001152e:	1ac1                	addi	s5,s5,-16
20011530:	8746                	mv	a4,a7
20011532:	bf89                	j	20011484 <_vfprintf_r+0x10a2>
20011534:	8ae6                	mv	s5,s9
20011536:	019a5363          	bge	s4,s9,2001153c <_vfprintf_r+0x115a>
2001153a:	8ad2                	mv	s5,s4
2001153c:	03505863          	blez	s5,2001156c <_vfprintf_r+0x118a>
20011540:	472e                	lw	a4,200(sp)
20011542:	9d56                	add	s10,s10,s5
20011544:	009c2023          	sw	s1,0(s8)
20011548:	0705                	addi	a4,a4,1
2001154a:	015c2223          	sw	s5,4(s8)
2001154e:	c7ea                	sw	s10,204(sp)
20011550:	c5ba                	sw	a4,200(sp)
20011552:	469d                	li	a3,7
20011554:	0c21                	addi	s8,s8,8
20011556:	00e6db63          	bge	a3,a4,2001156c <_vfprintf_r+0x118a>
2001155a:	01d0                	addi	a2,sp,196
2001155c:	85ca                	mv	a1,s2
2001155e:	854e                	mv	a0,s3
20011560:	59d040ef          	jal	ra,200162fc <__sprint_r>
20011564:	42051063          	bnez	a0,20011984 <_vfprintf_r+0x15a2>
20011568:	0ec10c13          	addi	s8,sp,236
2001156c:	000ad363          	bgez	s5,20011572 <_vfprintf_r+0x1190>
20011570:	4a81                	li	s5,0
20011572:	415c8ab3          	sub	s5,s9,s5
20011576:	05505363          	blez	s5,200115bc <_vfprintf_r+0x11da>
2001157a:	4d41                	li	s10,16
2001157c:	4d9d                	li	s11,7
2001157e:	472e                	lw	a4,200(sp)
20011580:	0000d797          	auipc	a5,0xd
20011584:	80078793          	addi	a5,a5,-2048 # 2001dd80 <zeroes.4514>
20011588:	00fc2023          	sw	a5,0(s8)
2001158c:	46be                	lw	a3,204(sp)
2001158e:	0705                	addi	a4,a4,1
20011590:	008c0613          	addi	a2,s8,8
20011594:	135d4363          	blt	s10,s5,200116ba <_vfprintf_r+0x12d8>
20011598:	015c2223          	sw	s5,4(s8)
2001159c:	9ab6                	add	s5,s5,a3
2001159e:	c7d6                	sw	s5,204(sp)
200115a0:	c5ba                	sw	a4,200(sp)
200115a2:	469d                	li	a3,7
200115a4:	8c32                	mv	s8,a2
200115a6:	00e6db63          	bge	a3,a4,200115bc <_vfprintf_r+0x11da>
200115aa:	01d0                	addi	a2,sp,196
200115ac:	85ca                	mv	a1,s2
200115ae:	854e                	mv	a0,s3
200115b0:	54d040ef          	jal	ra,200162fc <__sprint_r>
200115b4:	3c051863          	bnez	a0,20011984 <_vfprintf_r+0x15a2>
200115b8:	0ec10c13          	addi	s8,sp,236
200115bc:	40047793          	andi	a5,s0,1024
200115c0:	01948ab3          	add	s5,s1,s9
200115c4:	cf91                	beqz	a5,200115e0 <_vfprintf_r+0x11fe>
200115c6:	4d1d                	li	s10,7
200115c8:	01448db3          	add	s11,s1,s4
200115cc:	47a2                	lw	a5,8(sp)
200115ce:	100b9863          	bnez	s7,200116de <_vfprintf_r+0x12fc>
200115d2:	10079763          	bnez	a5,200116e0 <_vfprintf_r+0x12fe>
200115d6:	014487b3          	add	a5,s1,s4
200115da:	0157f363          	bgeu	a5,s5,200115e0 <_vfprintf_r+0x11fe>
200115de:	8abe                	mv	s5,a5
200115e0:	57ba                	lw	a5,172(sp)
200115e2:	0147c563          	blt	a5,s4,200115ec <_vfprintf_r+0x120a>
200115e6:	00147793          	andi	a5,s0,1
200115ea:	cb9d                	beqz	a5,20011620 <_vfprintf_r+0x123e>
200115ec:	57a2                	lw	a5,40(sp)
200115ee:	4752                	lw	a4,20(sp)
200115f0:	0c21                	addi	s8,s8,8
200115f2:	fefc2c23          	sw	a5,-8(s8)
200115f6:	47d2                	lw	a5,20(sp)
200115f8:	fefc2e23          	sw	a5,-4(s8)
200115fc:	47be                	lw	a5,204(sp)
200115fe:	97ba                	add	a5,a5,a4
20011600:	c7be                	sw	a5,204(sp)
20011602:	47ae                	lw	a5,200(sp)
20011604:	471d                	li	a4,7
20011606:	0785                	addi	a5,a5,1
20011608:	c5be                	sw	a5,200(sp)
2001160a:	00f75b63          	bge	a4,a5,20011620 <_vfprintf_r+0x123e>
2001160e:	01d0                	addi	a2,sp,196
20011610:	85ca                	mv	a1,s2
20011612:	854e                	mv	a0,s3
20011614:	4e9040ef          	jal	ra,200162fc <__sprint_r>
20011618:	36051663          	bnez	a0,20011984 <_vfprintf_r+0x15a2>
2001161c:	0ec10c13          	addi	s8,sp,236
20011620:	94d2                	add	s1,s1,s4
20011622:	415487b3          	sub	a5,s1,s5
20011626:	54ba                	lw	s1,172(sp)
20011628:	409a04b3          	sub	s1,s4,s1
2001162c:	0097d363          	bge	a5,s1,20011632 <_vfprintf_r+0x1250>
20011630:	84be                	mv	s1,a5
20011632:	02905963          	blez	s1,20011664 <_vfprintf_r+0x1282>
20011636:	47be                	lw	a5,204(sp)
20011638:	015c2023          	sw	s5,0(s8)
2001163c:	009c2223          	sw	s1,4(s8)
20011640:	97a6                	add	a5,a5,s1
20011642:	c7be                	sw	a5,204(sp)
20011644:	47ae                	lw	a5,200(sp)
20011646:	471d                	li	a4,7
20011648:	0c21                	addi	s8,s8,8
2001164a:	0785                	addi	a5,a5,1
2001164c:	c5be                	sw	a5,200(sp)
2001164e:	00f75b63          	bge	a4,a5,20011664 <_vfprintf_r+0x1282>
20011652:	01d0                	addi	a2,sp,196
20011654:	85ca                	mv	a1,s2
20011656:	854e                	mv	a0,s3
20011658:	4a5040ef          	jal	ra,200162fc <__sprint_r>
2001165c:	32051463          	bnez	a0,20011984 <_vfprintf_r+0x15a2>
20011660:	0ec10c13          	addi	s8,sp,236
20011664:	87a6                	mv	a5,s1
20011666:	0004d363          	bgez	s1,2001166c <_vfprintf_r+0x128a>
2001166a:	4781                	li	a5,0
2001166c:	54ba                	lw	s1,172(sp)
2001166e:	409a04b3          	sub	s1,s4,s1
20011672:	8c9d                	sub	s1,s1,a5
20011674:	e69053e3          	blez	s1,200114da <_vfprintf_r+0x10f8>
20011678:	4ac1                	li	s5,16
2001167a:	4b9d                	li	s7,7
2001167c:	47ae                	lw	a5,200(sp)
2001167e:	0000c617          	auipc	a2,0xc
20011682:	70260613          	addi	a2,a2,1794 # 2001dd80 <zeroes.4514>
20011686:	00cc2023          	sw	a2,0(s8)
2001168a:	473e                	lw	a4,204(sp)
2001168c:	0785                	addi	a5,a5,1
2001168e:	008c0693          	addi	a3,s8,8
20011692:	d29ad5e3          	bge	s5,s1,200113bc <_vfprintf_r+0xfda>
20011696:	0741                	addi	a4,a4,16
20011698:	015c2223          	sw	s5,4(s8)
2001169c:	c7ba                	sw	a4,204(sp)
2001169e:	c5be                	sw	a5,200(sp)
200116a0:	00fbda63          	bge	s7,a5,200116b4 <_vfprintf_r+0x12d2>
200116a4:	01d0                	addi	a2,sp,196
200116a6:	85ca                	mv	a1,s2
200116a8:	854e                	mv	a0,s3
200116aa:	453040ef          	jal	ra,200162fc <__sprint_r>
200116ae:	2c051b63          	bnez	a0,20011984 <_vfprintf_r+0x15a2>
200116b2:	11f4                	addi	a3,sp,236
200116b4:	14c1                	addi	s1,s1,-16
200116b6:	8c36                	mv	s8,a3
200116b8:	b7d1                	j	2001167c <_vfprintf_r+0x129a>
200116ba:	06c1                	addi	a3,a3,16
200116bc:	01ac2223          	sw	s10,4(s8)
200116c0:	c7b6                	sw	a3,204(sp)
200116c2:	c5ba                	sw	a4,200(sp)
200116c4:	00edda63          	bge	s11,a4,200116d8 <_vfprintf_r+0x12f6>
200116c8:	01d0                	addi	a2,sp,196
200116ca:	85ca                	mv	a1,s2
200116cc:	854e                	mv	a0,s3
200116ce:	42f040ef          	jal	ra,200162fc <__sprint_r>
200116d2:	2a051963          	bnez	a0,20011984 <_vfprintf_r+0x15a2>
200116d6:	11f0                	addi	a2,sp,236
200116d8:	1ac1                	addi	s5,s5,-16
200116da:	8c32                	mv	s8,a2
200116dc:	b54d                	j	2001157e <_vfprintf_r+0x119c>
200116de:	cfd9                	beqz	a5,2001177c <_vfprintf_r+0x139a>
200116e0:	47a2                	lw	a5,8(sp)
200116e2:	17fd                	addi	a5,a5,-1
200116e4:	c43e                	sw	a5,8(sp)
200116e6:	57b2                	lw	a5,44(sp)
200116e8:	5712                	lw	a4,36(sp)
200116ea:	0c21                	addi	s8,s8,8
200116ec:	fefc2c23          	sw	a5,-8(s8)
200116f0:	5792                	lw	a5,36(sp)
200116f2:	fefc2e23          	sw	a5,-4(s8)
200116f6:	47be                	lw	a5,204(sp)
200116f8:	97ba                	add	a5,a5,a4
200116fa:	c7be                	sw	a5,204(sp)
200116fc:	47ae                	lw	a5,200(sp)
200116fe:	0785                	addi	a5,a5,1
20011700:	c5be                	sw	a5,200(sp)
20011702:	00fd5b63          	bge	s10,a5,20011718 <_vfprintf_r+0x1336>
20011706:	01d0                	addi	a2,sp,196
20011708:	85ca                	mv	a1,s2
2001170a:	854e                	mv	a0,s3
2001170c:	3f1040ef          	jal	ra,200162fc <__sprint_r>
20011710:	26051a63          	bnez	a0,20011984 <_vfprintf_r+0x15a2>
20011714:	0ec10c13          	addi	s8,sp,236
20011718:	4792                	lw	a5,4(sp)
2001171a:	415d8733          	sub	a4,s11,s5
2001171e:	0007c783          	lbu	a5,0(a5)
20011722:	00f75363          	bge	a4,a5,20011728 <_vfprintf_r+0x1346>
20011726:	87ba                	mv	a5,a4
20011728:	02f05a63          	blez	a5,2001175c <_vfprintf_r+0x137a>
2001172c:	473e                	lw	a4,204(sp)
2001172e:	015c2023          	sw	s5,0(s8)
20011732:	00fc2223          	sw	a5,4(s8)
20011736:	973e                	add	a4,a4,a5
20011738:	c7ba                	sw	a4,204(sp)
2001173a:	472e                	lw	a4,200(sp)
2001173c:	0c21                	addi	s8,s8,8
2001173e:	0705                	addi	a4,a4,1
20011740:	c5ba                	sw	a4,200(sp)
20011742:	00ed5d63          	bge	s10,a4,2001175c <_vfprintf_r+0x137a>
20011746:	01d0                	addi	a2,sp,196
20011748:	85ca                	mv	a1,s2
2001174a:	854e                	mv	a0,s3
2001174c:	dc3e                	sw	a5,56(sp)
2001174e:	3af040ef          	jal	ra,200162fc <__sprint_r>
20011752:	22051963          	bnez	a0,20011984 <_vfprintf_r+0x15a2>
20011756:	57e2                	lw	a5,56(sp)
20011758:	0ec10c13          	addi	s8,sp,236
2001175c:	873e                	mv	a4,a5
2001175e:	0007d363          	bgez	a5,20011764 <_vfprintf_r+0x1382>
20011762:	4701                	li	a4,0
20011764:	4792                	lw	a5,4(sp)
20011766:	4841                	li	a6,16
20011768:	0007c783          	lbu	a5,0(a5)
2001176c:	8f99                	sub	a5,a5,a4
2001176e:	04f04063          	bgtz	a5,200117ae <_vfprintf_r+0x13cc>
20011772:	4792                	lw	a5,4(sp)
20011774:	0007c783          	lbu	a5,0(a5)
20011778:	9abe                	add	s5,s5,a5
2001177a:	bd89                	j	200115cc <_vfprintf_r+0x11ea>
2001177c:	4792                	lw	a5,4(sp)
2001177e:	1bfd                	addi	s7,s7,-1
20011780:	17fd                	addi	a5,a5,-1
20011782:	c23e                	sw	a5,4(sp)
20011784:	b78d                	j	200116e6 <_vfprintf_r+0x1304>
20011786:	06c1                	addi	a3,a3,16
20011788:	010c2223          	sw	a6,4(s8)
2001178c:	c7b6                	sw	a3,204(sp)
2001178e:	c5ba                	sw	a4,200(sp)
20011790:	00ed5d63          	bge	s10,a4,200117aa <_vfprintf_r+0x13c8>
20011794:	01d0                	addi	a2,sp,196
20011796:	85ca                	mv	a1,s2
20011798:	854e                	mv	a0,s3
2001179a:	dc3e                	sw	a5,56(sp)
2001179c:	361040ef          	jal	ra,200162fc <__sprint_r>
200117a0:	1e051263          	bnez	a0,20011984 <_vfprintf_r+0x15a2>
200117a4:	57e2                	lw	a5,56(sp)
200117a6:	11f0                	addi	a2,sp,236
200117a8:	4841                	li	a6,16
200117aa:	17c1                	addi	a5,a5,-16
200117ac:	8c32                	mv	s8,a2
200117ae:	472e                	lw	a4,200(sp)
200117b0:	0000c597          	auipc	a1,0xc
200117b4:	5d058593          	addi	a1,a1,1488 # 2001dd80 <zeroes.4514>
200117b8:	00bc2023          	sw	a1,0(s8)
200117bc:	46be                	lw	a3,204(sp)
200117be:	0705                	addi	a4,a4,1
200117c0:	008c0613          	addi	a2,s8,8
200117c4:	fcf841e3          	blt	a6,a5,20011786 <_vfprintf_r+0x13a4>
200117c8:	00fc2223          	sw	a5,4(s8)
200117cc:	97b6                	add	a5,a5,a3
200117ce:	c7be                	sw	a5,204(sp)
200117d0:	c5ba                	sw	a4,200(sp)
200117d2:	8c32                	mv	s8,a2
200117d4:	f8ed5fe3          	bge	s10,a4,20011772 <_vfprintf_r+0x1390>
200117d8:	01d0                	addi	a2,sp,196
200117da:	85ca                	mv	a1,s2
200117dc:	854e                	mv	a0,s3
200117de:	31f040ef          	jal	ra,200162fc <__sprint_r>
200117e2:	1a051163          	bnez	a0,20011984 <_vfprintf_r+0x15a2>
200117e6:	0ec10c13          	addi	s8,sp,236
200117ea:	b761                	j	20011772 <_vfprintf_r+0x1390>
200117ec:	47ae                	lw	a5,200(sp)
200117ee:	4705                	li	a4,1
200117f0:	009c2023          	sw	s1,0(s8)
200117f4:	0d05                	addi	s10,s10,1
200117f6:	0785                	addi	a5,a5,1
200117f8:	008c0b93          	addi	s7,s8,8
200117fc:	01474663          	blt	a4,s4,20011808 <_vfprintf_r+0x1426>
20011800:	00147693          	andi	a3,s0,1
20011804:	12068663          	beqz	a3,20011930 <_vfprintf_r+0x154e>
20011808:	4705                	li	a4,1
2001180a:	00ec2223          	sw	a4,4(s8)
2001180e:	c7ea                	sw	s10,204(sp)
20011810:	c5be                	sw	a5,200(sp)
20011812:	471d                	li	a4,7
20011814:	00f75b63          	bge	a4,a5,2001182a <_vfprintf_r+0x1448>
20011818:	01d0                	addi	a2,sp,196
2001181a:	85ca                	mv	a1,s2
2001181c:	854e                	mv	a0,s3
2001181e:	2df040ef          	jal	ra,200162fc <__sprint_r>
20011822:	16051163          	bnez	a0,20011984 <_vfprintf_r+0x15a2>
20011826:	0ec10b93          	addi	s7,sp,236
2001182a:	57a2                	lw	a5,40(sp)
2001182c:	4752                	lw	a4,20(sp)
2001182e:	0ba1                	addi	s7,s7,8
20011830:	fefbac23          	sw	a5,-8(s7)
20011834:	47d2                	lw	a5,20(sp)
20011836:	fefbae23          	sw	a5,-4(s7)
2001183a:	47be                	lw	a5,204(sp)
2001183c:	97ba                	add	a5,a5,a4
2001183e:	c7be                	sw	a5,204(sp)
20011840:	47ae                	lw	a5,200(sp)
20011842:	471d                	li	a4,7
20011844:	0785                	addi	a5,a5,1
20011846:	c5be                	sw	a5,200(sp)
20011848:	00f75b63          	bge	a4,a5,2001185e <_vfprintf_r+0x147c>
2001184c:	01d0                	addi	a2,sp,196
2001184e:	85ca                	mv	a1,s2
20011850:	854e                	mv	a0,s3
20011852:	2ab040ef          	jal	ra,200162fc <__sprint_r>
20011856:	12051763          	bnez	a0,20011984 <_vfprintf_r+0x15a2>
2001185a:	0ec10b93          	addi	s7,sp,236
2001185e:	47ce                	lw	a5,208(sp)
20011860:	010c                	addi	a1,sp,128
20011862:	0908                	addi	a0,sp,144
20011864:	c93e                	sw	a5,144(sp)
20011866:	47de                	lw	a5,212(sp)
20011868:	fffa0a93          	addi	s5,s4,-1
2001186c:	c102                	sw	zero,128(sp)
2001186e:	cb3e                	sw	a5,148(sp)
20011870:	47ee                	lw	a5,216(sp)
20011872:	c302                	sw	zero,132(sp)
20011874:	c502                	sw	zero,136(sp)
20011876:	cd3e                	sw	a5,152(sp)
20011878:	47fe                	lw	a5,220(sp)
2001187a:	c702                	sw	zero,140(sp)
2001187c:	cf3e                	sw	a5,156(sp)
2001187e:	2d5070ef          	jal	ra,20019352 <__eqtf2>
20011882:	cd29                	beqz	a0,200118dc <_vfprintf_r+0x14fa>
20011884:	47be                	lw	a5,204(sp)
20011886:	472e                	lw	a4,200(sp)
20011888:	0485                	addi	s1,s1,1
2001188a:	17fd                	addi	a5,a5,-1
2001188c:	97d2                	add	a5,a5,s4
2001188e:	0705                	addi	a4,a4,1
20011890:	009ba023          	sw	s1,0(s7)
20011894:	015ba223          	sw	s5,4(s7)
20011898:	c7be                	sw	a5,204(sp)
2001189a:	c5ba                	sw	a4,200(sp)
2001189c:	479d                	li	a5,7
2001189e:	0ba1                	addi	s7,s7,8
200118a0:	00e7da63          	bge	a5,a4,200118b4 <_vfprintf_r+0x14d2>
200118a4:	01d0                	addi	a2,sp,196
200118a6:	85ca                	mv	a1,s2
200118a8:	854e                	mv	a0,s3
200118aa:	253040ef          	jal	ra,200162fc <__sprint_r>
200118ae:	e979                	bnez	a0,20011984 <_vfprintf_r+0x15a2>
200118b0:	0ec10b93          	addi	s7,sp,236
200118b4:	195c                	addi	a5,sp,180
200118b6:	00fba023          	sw	a5,0(s7)
200118ba:	57c2                	lw	a5,48(sp)
200118bc:	5742                	lw	a4,48(sp)
200118be:	008b8c13          	addi	s8,s7,8
200118c2:	00fba223          	sw	a5,4(s7)
200118c6:	47be                	lw	a5,204(sp)
200118c8:	97ba                	add	a5,a5,a4
200118ca:	c7be                	sw	a5,204(sp)
200118cc:	47ae                	lw	a5,200(sp)
200118ce:	471d                	li	a4,7
200118d0:	0785                	addi	a5,a5,1
200118d2:	c5be                	sw	a5,200(sp)
200118d4:	c0f753e3          	bge	a4,a5,200114da <_vfprintf_r+0x10f8>
200118d8:	fa9fe06f          	j	20010880 <_vfprintf_r+0x49e>
200118dc:	fd505ce3          	blez	s5,200118b4 <_vfprintf_r+0x14d2>
200118e0:	44c1                	li	s1,16
200118e2:	4c1d                	li	s8,7
200118e4:	472e                	lw	a4,200(sp)
200118e6:	0000c617          	auipc	a2,0xc
200118ea:	49a60613          	addi	a2,a2,1178 # 2001dd80 <zeroes.4514>
200118ee:	00cba023          	sw	a2,0(s7)
200118f2:	47be                	lw	a5,204(sp)
200118f4:	0705                	addi	a4,a4,1
200118f6:	008b8693          	addi	a3,s7,8
200118fa:	0154ca63          	blt	s1,s5,2001190e <_vfprintf_r+0x152c>
200118fe:	97d6                	add	a5,a5,s5
20011900:	015ba223          	sw	s5,4(s7)
20011904:	c7be                	sw	a5,204(sp)
20011906:	c5ba                	sw	a4,200(sp)
20011908:	479d                	li	a5,7
2001190a:	8bb6                	mv	s7,a3
2001190c:	bf51                	j	200118a0 <_vfprintf_r+0x14be>
2001190e:	07c1                	addi	a5,a5,16
20011910:	009ba223          	sw	s1,4(s7)
20011914:	c7be                	sw	a5,204(sp)
20011916:	c5ba                	sw	a4,200(sp)
20011918:	00ec5963          	bge	s8,a4,2001192a <_vfprintf_r+0x1548>
2001191c:	01d0                	addi	a2,sp,196
2001191e:	85ca                	mv	a1,s2
20011920:	854e                	mv	a0,s3
20011922:	1db040ef          	jal	ra,200162fc <__sprint_r>
20011926:	ed39                	bnez	a0,20011984 <_vfprintf_r+0x15a2>
20011928:	11f4                	addi	a3,sp,236
2001192a:	1ac1                	addi	s5,s5,-16
2001192c:	8bb6                	mv	s7,a3
2001192e:	bf5d                	j	200118e4 <_vfprintf_r+0x1502>
20011930:	00ec2223          	sw	a4,4(s8)
20011934:	c7ea                	sw	s10,204(sp)
20011936:	c5be                	sw	a5,200(sp)
20011938:	471d                	li	a4,7
2001193a:	f6f75de3          	bge	a4,a5,200118b4 <_vfprintf_r+0x14d2>
2001193e:	b79d                	j	200118a4 <_vfprintf_r+0x14c2>
20011940:	47f2                	lw	a5,28(sp)
20011942:	5702                	lw	a4,32(sp)
20011944:	40e78433          	sub	s0,a5,a4
20011948:	b8805ce3          	blez	s0,200114e0 <_vfprintf_r+0x10fe>
2001194c:	4ac1                	li	s5,16
2001194e:	0000c497          	auipc	s1,0xc
20011952:	42248493          	addi	s1,s1,1058 # 2001dd70 <blanks.4513>
20011956:	4b9d                	li	s7,7
20011958:	47ae                	lw	a5,200(sp)
2001195a:	009c2023          	sw	s1,0(s8)
2001195e:	473e                	lw	a4,204(sp)
20011960:	0785                	addi	a5,a5,1
20011962:	028ac963          	blt	s5,s0,20011994 <_vfprintf_r+0x15b2>
20011966:	008c2223          	sw	s0,4(s8)
2001196a:	943a                	add	s0,s0,a4
2001196c:	c7a2                	sw	s0,204(sp)
2001196e:	c5be                	sw	a5,200(sp)
20011970:	471d                	li	a4,7
20011972:	b6f757e3          	bge	a4,a5,200114e0 <_vfprintf_r+0x10fe>
20011976:	01d0                	addi	a2,sp,196
20011978:	85ca                	mv	a1,s2
2001197a:	854e                	mv	a0,s3
2001197c:	181040ef          	jal	ra,200162fc <__sprint_r>
20011980:	b60500e3          	beqz	a0,200114e0 <_vfprintf_r+0x10fe>
20011984:	8c0b0a63          	beqz	s6,20010a58 <_vfprintf_r+0x676>
20011988:	85da                	mv	a1,s6
2001198a:	854e                	mv	a0,s3
2001198c:	642000ef          	jal	ra,20011fce <_free_r>
20011990:	8c8ff06f          	j	20010a58 <_vfprintf_r+0x676>
20011994:	0741                	addi	a4,a4,16
20011996:	015c2223          	sw	s5,4(s8)
2001199a:	c7ba                	sw	a4,204(sp)
2001199c:	c5be                	sw	a5,200(sp)
2001199e:	0c21                	addi	s8,s8,8
200119a0:	00fbda63          	bge	s7,a5,200119b4 <_vfprintf_r+0x15d2>
200119a4:	01d0                	addi	a2,sp,196
200119a6:	85ca                	mv	a1,s2
200119a8:	854e                	mv	a0,s3
200119aa:	153040ef          	jal	ra,200162fc <__sprint_r>
200119ae:	f979                	bnez	a0,20011984 <_vfprintf_r+0x15a2>
200119b0:	0ec10c13          	addi	s8,sp,236
200119b4:	1441                	addi	s0,s0,-16
200119b6:	b74d                	j	20011958 <_vfprintf_r+0x1576>
200119b8:	85da                	mv	a1,s6
200119ba:	854e                	mv	a0,s3
200119bc:	2d09                	jal	20011fce <_free_r>
200119be:	b6a9                	j	20011508 <_vfprintf_r+0x1126>
200119c0:	47be                	lw	a5,204(sp)
200119c2:	e399                	bnez	a5,200119c8 <_vfprintf_r+0x15e6>
200119c4:	894ff06f          	j	20010a58 <_vfprintf_r+0x676>
200119c8:	01d0                	addi	a2,sp,196
200119ca:	85ca                	mv	a1,s2
200119cc:	854e                	mv	a0,s3
200119ce:	12f040ef          	jal	ra,200162fc <__sprint_r>
200119d2:	886ff06f          	j	20010a58 <_vfprintf_r+0x676>
200119d6:	57fd                	li	a5,-1
200119d8:	f4fd9363          	bne	s11,a5,2001111e <_vfprintf_r+0xd3c>
200119dc:	fa0c9663          	bnez	s9,20011188 <_vfprintf_r+0xda6>
200119e0:	47a5                	li	a5,9
200119e2:	fba7e363          	bltu	a5,s10,20011188 <_vfprintf_r+0xda6>
200119e6:	030d0d13          	addi	s10,s10,48 # 3ffe0030 <__init_array_end+0x1ffc0c5c>
200119ea:	19a107a3          	sb	s10,399(sp)
200119ee:	18f10493          	addi	s1,sp,399
200119f2:	f7eff06f          	j	20011170 <_vfprintf_r+0xd8e>

200119f6 <vfprintf>:
200119f6:	5fff0797          	auipc	a5,0x5fff0
200119fa:	80278793          	addi	a5,a5,-2046 # 800011f8 <_impure_ptr>
200119fe:	86b2                	mv	a3,a2
20011a00:	862e                	mv	a2,a1
20011a02:	85aa                	mv	a1,a0
20011a04:	4388                	lw	a0,0(a5)
20011a06:	9ddfe06f          	j	200103e2 <_vfprintf_r>

20011a0a <__sbprintf>:
20011a0a:	00c5d783          	lhu	a5,12(a1)
20011a0e:	b8010113          	addi	sp,sp,-1152
20011a12:	46812c23          	sw	s0,1144(sp)
20011a16:	9bf5                	andi	a5,a5,-3
20011a18:	00f11a23          	sh	a5,20(sp)
20011a1c:	51fc                	lw	a5,100(a1)
20011a1e:	842e                	mv	s0,a1
20011a20:	46912a23          	sw	s1,1140(sp)
20011a24:	d6be                	sw	a5,108(sp)
20011a26:	00e5d783          	lhu	a5,14(a1)
20011a2a:	47212823          	sw	s2,1136(sp)
20011a2e:	46112e23          	sw	ra,1148(sp)
20011a32:	00f11b23          	sh	a5,22(sp)
20011a36:	4ddc                	lw	a5,28(a1)
20011a38:	892a                	mv	s2,a0
20011a3a:	d002                	sw	zero,32(sp)
20011a3c:	d23e                	sw	a5,36(sp)
20011a3e:	51dc                	lw	a5,36(a1)
20011a40:	002c                	addi	a1,sp,8
20011a42:	d63e                	sw	a5,44(sp)
20011a44:	189c                	addi	a5,sp,112
20011a46:	c43e                	sw	a5,8(sp)
20011a48:	cc3e                	sw	a5,24(sp)
20011a4a:	40000793          	li	a5,1024
20011a4e:	c83e                	sw	a5,16(sp)
20011a50:	ce3e                	sw	a5,28(sp)
20011a52:	991fe0ef          	jal	ra,200103e2 <_vfprintf_r>
20011a56:	84aa                	mv	s1,a0
20011a58:	00054763          	bltz	a0,20011a66 <__sbprintf+0x5c>
20011a5c:	002c                	addi	a1,sp,8
20011a5e:	854a                	mv	a0,s2
20011a60:	24ad                	jal	20011cca <_fflush_r>
20011a62:	c111                	beqz	a0,20011a66 <__sbprintf+0x5c>
20011a64:	54fd                	li	s1,-1
20011a66:	01415783          	lhu	a5,20(sp)
20011a6a:	0407f793          	andi	a5,a5,64
20011a6e:	c799                	beqz	a5,20011a7c <__sbprintf+0x72>
20011a70:	00c45783          	lhu	a5,12(s0)
20011a74:	0407e793          	ori	a5,a5,64
20011a78:	00f41623          	sh	a5,12(s0)
20011a7c:	47c12083          	lw	ra,1148(sp)
20011a80:	47812403          	lw	s0,1144(sp)
20011a84:	8526                	mv	a0,s1
20011a86:	47012903          	lw	s2,1136(sp)
20011a8a:	47412483          	lw	s1,1140(sp)
20011a8e:	48010113          	addi	sp,sp,1152
20011a92:	8082                	ret

20011a94 <__swsetup_r>:
20011a94:	1141                	addi	sp,sp,-16
20011a96:	5ffef797          	auipc	a5,0x5ffef
20011a9a:	76278793          	addi	a5,a5,1890 # 800011f8 <_impure_ptr>
20011a9e:	c226                	sw	s1,4(sp)
20011aa0:	84aa                	mv	s1,a0
20011aa2:	4388                	lw	a0,0(a5)
20011aa4:	c422                	sw	s0,8(sp)
20011aa6:	c606                	sw	ra,12(sp)
20011aa8:	842e                	mv	s0,a1
20011aaa:	c501                	beqz	a0,20011ab2 <__swsetup_r+0x1e>
20011aac:	5d1c                	lw	a5,56(a0)
20011aae:	e391                	bnez	a5,20011ab2 <__swsetup_r+0x1e>
20011ab0:	2e15                	jal	20011de4 <__sinit>
20011ab2:	00c41703          	lh	a4,12(s0)
20011ab6:	01071793          	slli	a5,a4,0x10
20011aba:	83c1                	srli	a5,a5,0x10
20011abc:	0087f693          	andi	a3,a5,8
20011ac0:	eea1                	bnez	a3,20011b18 <__swsetup_r+0x84>
20011ac2:	0107f693          	andi	a3,a5,16
20011ac6:	ee89                	bnez	a3,20011ae0 <__swsetup_r+0x4c>
20011ac8:	47a5                	li	a5,9
20011aca:	c09c                	sw	a5,0(s1)
20011acc:	04076713          	ori	a4,a4,64
20011ad0:	00e41623          	sh	a4,12(s0)
20011ad4:	557d                	li	a0,-1
20011ad6:	40b2                	lw	ra,12(sp)
20011ad8:	4422                	lw	s0,8(sp)
20011ada:	4492                	lw	s1,4(sp)
20011adc:	0141                	addi	sp,sp,16
20011ade:	8082                	ret
20011ae0:	8b91                	andi	a5,a5,4
20011ae2:	c78d                	beqz	a5,20011b0c <__swsetup_r+0x78>
20011ae4:	580c                	lw	a1,48(s0)
20011ae6:	c989                	beqz	a1,20011af8 <__swsetup_r+0x64>
20011ae8:	04040793          	addi	a5,s0,64
20011aec:	00f58463          	beq	a1,a5,20011af4 <__swsetup_r+0x60>
20011af0:	8526                	mv	a0,s1
20011af2:	29f1                	jal	20011fce <_free_r>
20011af4:	02042823          	sw	zero,48(s0)
20011af8:	00c45783          	lhu	a5,12(s0)
20011afc:	00042223          	sw	zero,4(s0)
20011b00:	fdb7f793          	andi	a5,a5,-37
20011b04:	00f41623          	sh	a5,12(s0)
20011b08:	481c                	lw	a5,16(s0)
20011b0a:	c01c                	sw	a5,0(s0)
20011b0c:	00c45783          	lhu	a5,12(s0)
20011b10:	0087e793          	ori	a5,a5,8
20011b14:	00f41623          	sh	a5,12(s0)
20011b18:	481c                	lw	a5,16(s0)
20011b1a:	ef89                	bnez	a5,20011b34 <__swsetup_r+0xa0>
20011b1c:	00c45783          	lhu	a5,12(s0)
20011b20:	20000713          	li	a4,512
20011b24:	2807f793          	andi	a5,a5,640
20011b28:	00e78663          	beq	a5,a4,20011b34 <__swsetup_r+0xa0>
20011b2c:	85a2                	mv	a1,s0
20011b2e:	8526                	mv	a0,s1
20011b30:	697010ef          	jal	ra,200139c6 <__smakebuf_r>
20011b34:	00c45783          	lhu	a5,12(s0)
20011b38:	0017f713          	andi	a4,a5,1
20011b3c:	c705                	beqz	a4,20011b64 <__swsetup_r+0xd0>
20011b3e:	485c                	lw	a5,20(s0)
20011b40:	00042423          	sw	zero,8(s0)
20011b44:	40f007b3          	neg	a5,a5
20011b48:	cc1c                	sw	a5,24(s0)
20011b4a:	481c                	lw	a5,16(s0)
20011b4c:	4501                	li	a0,0
20011b4e:	f7c1                	bnez	a5,20011ad6 <__swsetup_r+0x42>
20011b50:	00c41783          	lh	a5,12(s0)
20011b54:	0807f713          	andi	a4,a5,128
20011b58:	df3d                	beqz	a4,20011ad6 <__swsetup_r+0x42>
20011b5a:	0407e793          	ori	a5,a5,64
20011b5e:	00f41623          	sh	a5,12(s0)
20011b62:	bf8d                	j	20011ad4 <__swsetup_r+0x40>
20011b64:	8b89                	andi	a5,a5,2
20011b66:	4701                	li	a4,0
20011b68:	e391                	bnez	a5,20011b6c <__swsetup_r+0xd8>
20011b6a:	4858                	lw	a4,20(s0)
20011b6c:	c418                	sw	a4,8(s0)
20011b6e:	bff1                	j	20011b4a <__swsetup_r+0xb6>

20011b70 <__sflush_r>:
20011b70:	00c59783          	lh	a5,12(a1)
20011b74:	1101                	addi	sp,sp,-32
20011b76:	cc22                	sw	s0,24(sp)
20011b78:	01079713          	slli	a4,a5,0x10
20011b7c:	8341                	srli	a4,a4,0x10
20011b7e:	ca26                	sw	s1,20(sp)
20011b80:	ce06                	sw	ra,28(sp)
20011b82:	c84a                	sw	s2,16(sp)
20011b84:	c64e                	sw	s3,12(sp)
20011b86:	00877693          	andi	a3,a4,8
20011b8a:	84aa                	mv	s1,a0
20011b8c:	842e                	mv	s0,a1
20011b8e:	eee5                	bnez	a3,20011c86 <__sflush_r+0x116>
20011b90:	6705                	lui	a4,0x1
20011b92:	80070713          	addi	a4,a4,-2048 # 800 <__heap_size+0x400>
20011b96:	8fd9                	or	a5,a5,a4
20011b98:	41d8                	lw	a4,4(a1)
20011b9a:	00f59623          	sh	a5,12(a1)
20011b9e:	00e04d63          	bgtz	a4,20011bb8 <__sflush_r+0x48>
20011ba2:	5dd8                	lw	a4,60(a1)
20011ba4:	00e04a63          	bgtz	a4,20011bb8 <__sflush_r+0x48>
20011ba8:	4501                	li	a0,0
20011baa:	40f2                	lw	ra,28(sp)
20011bac:	4462                	lw	s0,24(sp)
20011bae:	44d2                	lw	s1,20(sp)
20011bb0:	4942                	lw	s2,16(sp)
20011bb2:	49b2                	lw	s3,12(sp)
20011bb4:	6105                	addi	sp,sp,32
20011bb6:	8082                	ret
20011bb8:	5418                	lw	a4,40(s0)
20011bba:	d77d                	beqz	a4,20011ba8 <__sflush_r+0x38>
20011bbc:	0004a903          	lw	s2,0(s1)
20011bc0:	01379693          	slli	a3,a5,0x13
20011bc4:	0004a023          	sw	zero,0(s1)
20011bc8:	0806d563          	bgez	a3,20011c52 <__sflush_r+0xe2>
20011bcc:	4830                	lw	a2,80(s0)
20011bce:	00c45783          	lhu	a5,12(s0)
20011bd2:	8b91                	andi	a5,a5,4
20011bd4:	c799                	beqz	a5,20011be2 <__sflush_r+0x72>
20011bd6:	405c                	lw	a5,4(s0)
20011bd8:	8e1d                	sub	a2,a2,a5
20011bda:	581c                	lw	a5,48(s0)
20011bdc:	c399                	beqz	a5,20011be2 <__sflush_r+0x72>
20011bde:	5c5c                	lw	a5,60(s0)
20011be0:	8e1d                	sub	a2,a2,a5
20011be2:	541c                	lw	a5,40(s0)
20011be4:	4c4c                	lw	a1,28(s0)
20011be6:	4681                	li	a3,0
20011be8:	8526                	mv	a0,s1
20011bea:	9782                	jalr	a5
20011bec:	57fd                	li	a5,-1
20011bee:	00c45683          	lhu	a3,12(s0)
20011bf2:	00f51d63          	bne	a0,a5,20011c0c <__sflush_r+0x9c>
20011bf6:	409c                	lw	a5,0(s1)
20011bf8:	4775                	li	a4,29
20011bfa:	08f76063          	bltu	a4,a5,20011c7a <__sflush_r+0x10a>
20011bfe:	20400737          	lui	a4,0x20400
20011c02:	0705                	addi	a4,a4,1
20011c04:	00f75733          	srl	a4,a4,a5
20011c08:	8b05                	andi	a4,a4,1
20011c0a:	cb25                	beqz	a4,20011c7a <__sflush_r+0x10a>
20011c0c:	77fd                	lui	a5,0xfffff
20011c0e:	7ff78793          	addi	a5,a5,2047 # fffff7ff <metal_segment_heap_target_end+0x7fffb7ff>
20011c12:	4818                	lw	a4,16(s0)
20011c14:	8ff5                	and	a5,a5,a3
20011c16:	07c2                	slli	a5,a5,0x10
20011c18:	87c1                	srai	a5,a5,0x10
20011c1a:	c018                	sw	a4,0(s0)
20011c1c:	00f41623          	sh	a5,12(s0)
20011c20:	00042223          	sw	zero,4(s0)
20011c24:	01379713          	slli	a4,a5,0x13
20011c28:	00075863          	bgez	a4,20011c38 <__sflush_r+0xc8>
20011c2c:	57fd                	li	a5,-1
20011c2e:	00f51463          	bne	a0,a5,20011c36 <__sflush_r+0xc6>
20011c32:	409c                	lw	a5,0(s1)
20011c34:	e391                	bnez	a5,20011c38 <__sflush_r+0xc8>
20011c36:	c828                	sw	a0,80(s0)
20011c38:	580c                	lw	a1,48(s0)
20011c3a:	0124a023          	sw	s2,0(s1)
20011c3e:	d5ad                	beqz	a1,20011ba8 <__sflush_r+0x38>
20011c40:	04040793          	addi	a5,s0,64
20011c44:	00f58463          	beq	a1,a5,20011c4c <__sflush_r+0xdc>
20011c48:	8526                	mv	a0,s1
20011c4a:	2651                	jal	20011fce <_free_r>
20011c4c:	02042823          	sw	zero,48(s0)
20011c50:	bfa1                	j	20011ba8 <__sflush_r+0x38>
20011c52:	4c4c                	lw	a1,28(s0)
20011c54:	4601                	li	a2,0
20011c56:	4685                	li	a3,1
20011c58:	8526                	mv	a0,s1
20011c5a:	9702                	jalr	a4
20011c5c:	57fd                	li	a5,-1
20011c5e:	862a                	mv	a2,a0
20011c60:	f6f517e3          	bne	a0,a5,20011bce <__sflush_r+0x5e>
20011c64:	409c                	lw	a5,0(s1)
20011c66:	d7a5                	beqz	a5,20011bce <__sflush_r+0x5e>
20011c68:	4775                	li	a4,29
20011c6a:	00e78563          	beq	a5,a4,20011c74 <__sflush_r+0x104>
20011c6e:	4759                	li	a4,22
20011c70:	04e79463          	bne	a5,a4,20011cb8 <__sflush_r+0x148>
20011c74:	0124a023          	sw	s2,0(s1)
20011c78:	bf05                	j	20011ba8 <__sflush_r+0x38>
20011c7a:	0406e793          	ori	a5,a3,64
20011c7e:	00f41623          	sh	a5,12(s0)
20011c82:	557d                	li	a0,-1
20011c84:	b71d                	j	20011baa <__sflush_r+0x3a>
20011c86:	0105a983          	lw	s3,16(a1)
20011c8a:	f0098fe3          	beqz	s3,20011ba8 <__sflush_r+0x38>
20011c8e:	0005a903          	lw	s2,0(a1)
20011c92:	8b0d                	andi	a4,a4,3
20011c94:	0135a023          	sw	s3,0(a1)
20011c98:	41390933          	sub	s2,s2,s3
20011c9c:	4781                	li	a5,0
20011c9e:	e311                	bnez	a4,20011ca2 <__sflush_r+0x132>
20011ca0:	49dc                	lw	a5,20(a1)
20011ca2:	c41c                	sw	a5,8(s0)
20011ca4:	f12052e3          	blez	s2,20011ba8 <__sflush_r+0x38>
20011ca8:	505c                	lw	a5,36(s0)
20011caa:	4c4c                	lw	a1,28(s0)
20011cac:	86ca                	mv	a3,s2
20011cae:	864e                	mv	a2,s3
20011cb0:	8526                	mv	a0,s1
20011cb2:	9782                	jalr	a5
20011cb4:	00a04763          	bgtz	a0,20011cc2 <__sflush_r+0x152>
20011cb8:	00c45783          	lhu	a5,12(s0)
20011cbc:	0407e793          	ori	a5,a5,64
20011cc0:	bf7d                	j	20011c7e <__sflush_r+0x10e>
20011cc2:	99aa                	add	s3,s3,a0
20011cc4:	40a90933          	sub	s2,s2,a0
20011cc8:	bff1                	j	20011ca4 <__sflush_r+0x134>

20011cca <_fflush_r>:
20011cca:	1101                	addi	sp,sp,-32
20011ccc:	cc22                	sw	s0,24(sp)
20011cce:	ce06                	sw	ra,28(sp)
20011cd0:	842a                	mv	s0,a0
20011cd2:	c511                	beqz	a0,20011cde <_fflush_r+0x14>
20011cd4:	5d1c                	lw	a5,56(a0)
20011cd6:	e781                	bnez	a5,20011cde <_fflush_r+0x14>
20011cd8:	c62e                	sw	a1,12(sp)
20011cda:	2229                	jal	20011de4 <__sinit>
20011cdc:	45b2                	lw	a1,12(sp)
20011cde:	00c59783          	lh	a5,12(a1)
20011ce2:	c791                	beqz	a5,20011cee <_fflush_r+0x24>
20011ce4:	8522                	mv	a0,s0
20011ce6:	4462                	lw	s0,24(sp)
20011ce8:	40f2                	lw	ra,28(sp)
20011cea:	6105                	addi	sp,sp,32
20011cec:	b551                	j	20011b70 <__sflush_r>
20011cee:	40f2                	lw	ra,28(sp)
20011cf0:	4462                	lw	s0,24(sp)
20011cf2:	4501                	li	a0,0
20011cf4:	6105                	addi	sp,sp,32
20011cf6:	8082                	ret

20011cf8 <fflush>:
20011cf8:	85aa                	mv	a1,a0
20011cfa:	e909                	bnez	a0,20011d0c <fflush+0x14>
20011cfc:	85018793          	addi	a5,gp,-1968 # 80001248 <_global_impure_ptr>
20011d00:	4388                	lw	a0,0(a5)
20011d02:	00000597          	auipc	a1,0x0
20011d06:	fc858593          	addi	a1,a1,-56 # 20011cca <_fflush_r>
20011d0a:	a9dd                	j	20012200 <_fwalk_reent>
20011d0c:	5ffef797          	auipc	a5,0x5ffef
20011d10:	4ec78793          	addi	a5,a5,1260 # 800011f8 <_impure_ptr>
20011d14:	4388                	lw	a0,0(a5)
20011d16:	bf55                	j	20011cca <_fflush_r>

20011d18 <__fp_lock>:
20011d18:	4501                	li	a0,0
20011d1a:	8082                	ret

20011d1c <std>:
20011d1c:	1141                	addi	sp,sp,-16
20011d1e:	c422                	sw	s0,8(sp)
20011d20:	c606                	sw	ra,12(sp)
20011d22:	842a                	mv	s0,a0
20011d24:	00b51623          	sh	a1,12(a0)
20011d28:	00c51723          	sh	a2,14(a0)
20011d2c:	00052023          	sw	zero,0(a0)
20011d30:	00052223          	sw	zero,4(a0)
20011d34:	00052423          	sw	zero,8(a0)
20011d38:	06052223          	sw	zero,100(a0)
20011d3c:	00052823          	sw	zero,16(a0)
20011d40:	00052a23          	sw	zero,20(a0)
20011d44:	00052c23          	sw	zero,24(a0)
20011d48:	4621                	li	a2,8
20011d4a:	4581                	li	a1,0
20011d4c:	05c50513          	addi	a0,a0,92
20011d50:	292020ef          	jal	ra,20013fe2 <memset>
20011d54:	00003797          	auipc	a5,0x3
20011d58:	da078793          	addi	a5,a5,-608 # 20014af4 <__sread>
20011d5c:	d01c                	sw	a5,32(s0)
20011d5e:	00003797          	auipc	a5,0x3
20011d62:	dcc78793          	addi	a5,a5,-564 # 20014b2a <__swrite>
20011d66:	d05c                	sw	a5,36(s0)
20011d68:	00003797          	auipc	a5,0x3
20011d6c:	e1478793          	addi	a5,a5,-492 # 20014b7c <__sseek>
20011d70:	d41c                	sw	a5,40(s0)
20011d72:	00003797          	auipc	a5,0x3
20011d76:	e4278793          	addi	a5,a5,-446 # 20014bb4 <__sclose>
20011d7a:	cc40                	sw	s0,28(s0)
20011d7c:	d45c                	sw	a5,44(s0)
20011d7e:	40b2                	lw	ra,12(sp)
20011d80:	4422                	lw	s0,8(sp)
20011d82:	0141                	addi	sp,sp,16
20011d84:	8082                	ret

20011d86 <_cleanup_r>:
20011d86:	00005597          	auipc	a1,0x5
20011d8a:	0ac58593          	addi	a1,a1,172 # 20016e32 <_fclose_r>
20011d8e:	a98d                	j	20012200 <_fwalk_reent>

20011d90 <__fp_unlock>:
20011d90:	4501                	li	a0,0
20011d92:	8082                	ret

20011d94 <__sfmoreglue>:
20011d94:	1141                	addi	sp,sp,-16
20011d96:	c226                	sw	s1,4(sp)
20011d98:	06800613          	li	a2,104
20011d9c:	fff58493          	addi	s1,a1,-1
20011da0:	02c484b3          	mul	s1,s1,a2
20011da4:	c04a                	sw	s2,0(sp)
20011da6:	892e                	mv	s2,a1
20011da8:	c422                	sw	s0,8(sp)
20011daa:	c606                	sw	ra,12(sp)
20011dac:	07448593          	addi	a1,s1,116
20011db0:	4b5010ef          	jal	ra,20013a64 <_malloc_r>
20011db4:	842a                	mv	s0,a0
20011db6:	cd01                	beqz	a0,20011dce <__sfmoreglue+0x3a>
20011db8:	00052023          	sw	zero,0(a0)
20011dbc:	01252223          	sw	s2,4(a0)
20011dc0:	0531                	addi	a0,a0,12
20011dc2:	c408                	sw	a0,8(s0)
20011dc4:	06848613          	addi	a2,s1,104
20011dc8:	4581                	li	a1,0
20011dca:	218020ef          	jal	ra,20013fe2 <memset>
20011dce:	8522                	mv	a0,s0
20011dd0:	40b2                	lw	ra,12(sp)
20011dd2:	4422                	lw	s0,8(sp)
20011dd4:	4492                	lw	s1,4(sp)
20011dd6:	4902                	lw	s2,0(sp)
20011dd8:	0141                	addi	sp,sp,16
20011dda:	8082                	ret

20011ddc <_cleanup>:
20011ddc:	85018793          	addi	a5,gp,-1968 # 80001248 <_global_impure_ptr>
20011de0:	4388                	lw	a0,0(a5)
20011de2:	b755                	j	20011d86 <_cleanup_r>

20011de4 <__sinit>:
20011de4:	5d1c                	lw	a5,56(a0)
20011de6:	e7a9                	bnez	a5,20011e30 <__sinit+0x4c>
20011de8:	1141                	addi	sp,sp,-16
20011dea:	c606                	sw	ra,12(sp)
20011dec:	c422                	sw	s0,8(sp)
20011dee:	00000797          	auipc	a5,0x0
20011df2:	f9878793          	addi	a5,a5,-104 # 20011d86 <_cleanup_r>
20011df6:	dd5c                	sw	a5,60(a0)
20011df8:	478d                	li	a5,3
20011dfa:	2ef52223          	sw	a5,740(a0)
20011dfe:	2ec50793          	addi	a5,a0,748
20011e02:	842a                	mv	s0,a0
20011e04:	2ef52423          	sw	a5,744(a0)
20011e08:	2e052023          	sw	zero,736(a0)
20011e0c:	4148                	lw	a0,4(a0)
20011e0e:	4601                	li	a2,0
20011e10:	4591                	li	a1,4
20011e12:	3729                	jal	20011d1c <std>
20011e14:	4408                	lw	a0,8(s0)
20011e16:	4605                	li	a2,1
20011e18:	45a5                	li	a1,9
20011e1a:	3709                	jal	20011d1c <std>
20011e1c:	4448                	lw	a0,12(s0)
20011e1e:	4609                	li	a2,2
20011e20:	45c9                	li	a1,18
20011e22:	3ded                	jal	20011d1c <std>
20011e24:	4785                	li	a5,1
20011e26:	dc1c                	sw	a5,56(s0)
20011e28:	40b2                	lw	ra,12(sp)
20011e2a:	4422                	lw	s0,8(sp)
20011e2c:	0141                	addi	sp,sp,16
20011e2e:	8082                	ret
20011e30:	8082                	ret

20011e32 <__sfp>:
20011e32:	1141                	addi	sp,sp,-16
20011e34:	85018793          	addi	a5,gp,-1968 # 80001248 <_global_impure_ptr>
20011e38:	c226                	sw	s1,4(sp)
20011e3a:	4384                	lw	s1,0(a5)
20011e3c:	c04a                	sw	s2,0(sp)
20011e3e:	c606                	sw	ra,12(sp)
20011e40:	5c9c                	lw	a5,56(s1)
20011e42:	c422                	sw	s0,8(sp)
20011e44:	892a                	mv	s2,a0
20011e46:	e399                	bnez	a5,20011e4c <__sfp+0x1a>
20011e48:	8526                	mv	a0,s1
20011e4a:	3f69                	jal	20011de4 <__sinit>
20011e4c:	2e048493          	addi	s1,s1,736
20011e50:	4480                	lw	s0,8(s1)
20011e52:	40dc                	lw	a5,4(s1)
20011e54:	17fd                	addi	a5,a5,-1
20011e56:	0007d663          	bgez	a5,20011e62 <__sfp+0x30>
20011e5a:	409c                	lw	a5,0(s1)
20011e5c:	cfb9                	beqz	a5,20011eba <__sfp+0x88>
20011e5e:	4084                	lw	s1,0(s1)
20011e60:	bfc5                	j	20011e50 <__sfp+0x1e>
20011e62:	00c41703          	lh	a4,12(s0)
20011e66:	e739                	bnez	a4,20011eb4 <__sfp+0x82>
20011e68:	77c1                	lui	a5,0xffff0
20011e6a:	0785                	addi	a5,a5,1
20011e6c:	06042223          	sw	zero,100(s0)
20011e70:	00042023          	sw	zero,0(s0)
20011e74:	00042223          	sw	zero,4(s0)
20011e78:	00042423          	sw	zero,8(s0)
20011e7c:	c45c                	sw	a5,12(s0)
20011e7e:	00042823          	sw	zero,16(s0)
20011e82:	00042a23          	sw	zero,20(s0)
20011e86:	00042c23          	sw	zero,24(s0)
20011e8a:	4621                	li	a2,8
20011e8c:	4581                	li	a1,0
20011e8e:	05c40513          	addi	a0,s0,92
20011e92:	150020ef          	jal	ra,20013fe2 <memset>
20011e96:	02042823          	sw	zero,48(s0)
20011e9a:	02042a23          	sw	zero,52(s0)
20011e9e:	04042223          	sw	zero,68(s0)
20011ea2:	04042423          	sw	zero,72(s0)
20011ea6:	8522                	mv	a0,s0
20011ea8:	40b2                	lw	ra,12(sp)
20011eaa:	4422                	lw	s0,8(sp)
20011eac:	4492                	lw	s1,4(sp)
20011eae:	4902                	lw	s2,0(sp)
20011eb0:	0141                	addi	sp,sp,16
20011eb2:	8082                	ret
20011eb4:	06840413          	addi	s0,s0,104
20011eb8:	bf71                	j	20011e54 <__sfp+0x22>
20011eba:	4591                	li	a1,4
20011ebc:	854a                	mv	a0,s2
20011ebe:	3dd9                	jal	20011d94 <__sfmoreglue>
20011ec0:	c088                	sw	a0,0(s1)
20011ec2:	fd51                	bnez	a0,20011e5e <__sfp+0x2c>
20011ec4:	47b1                	li	a5,12
20011ec6:	00f92023          	sw	a5,0(s2)
20011eca:	4401                	li	s0,0
20011ecc:	bfe9                	j	20011ea6 <__sfp+0x74>

20011ece <__sfp_lock_acquire>:
20011ece:	8082                	ret

20011ed0 <__sfp_lock_release>:
20011ed0:	8082                	ret

20011ed2 <__sinit_lock_acquire>:
20011ed2:	8082                	ret

20011ed4 <__sinit_lock_release>:
20011ed4:	8082                	ret

20011ed6 <__fp_lock_all>:
20011ed6:	5ffef797          	auipc	a5,0x5ffef
20011eda:	32278793          	addi	a5,a5,802 # 800011f8 <_impure_ptr>
20011ede:	4388                	lw	a0,0(a5)
20011ee0:	00000597          	auipc	a1,0x0
20011ee4:	e3858593          	addi	a1,a1,-456 # 20011d18 <__fp_lock>
20011ee8:	ac5d                	j	2001219e <_fwalk>

20011eea <__fp_unlock_all>:
20011eea:	5ffef797          	auipc	a5,0x5ffef
20011eee:	30e78793          	addi	a5,a5,782 # 800011f8 <_impure_ptr>
20011ef2:	4388                	lw	a0,0(a5)
20011ef4:	00000597          	auipc	a1,0x0
20011ef8:	e9c58593          	addi	a1,a1,-356 # 20011d90 <__fp_unlock>
20011efc:	a44d                	j	2001219e <_fwalk>

20011efe <_malloc_trim_r>:
20011efe:	1101                	addi	sp,sp,-32
20011f00:	cc22                	sw	s0,24(sp)
20011f02:	ca26                	sw	s1,20(sp)
20011f04:	c84a                	sw	s2,16(sp)
20011f06:	c64e                	sw	s3,12(sp)
20011f08:	842e                	mv	s0,a1
20011f0a:	ce06                	sw	ra,28(sp)
20011f0c:	892a                	mv	s2,a0
20011f0e:	5ffee997          	auipc	s3,0x5ffee
20011f12:	68698993          	addi	s3,s3,1670 # 80000594 <__malloc_av_>
20011f16:	174020ef          	jal	ra,2001408a <__malloc_lock>
20011f1a:	0089a783          	lw	a5,8(s3)
20011f1e:	6705                	lui	a4,0x1
20011f20:	43c4                	lw	s1,4(a5)
20011f22:	fef70793          	addi	a5,a4,-17 # fef <__heap_size+0xbef>
20011f26:	40878433          	sub	s0,a5,s0
20011f2a:	98f1                	andi	s1,s1,-4
20011f2c:	9426                	add	s0,s0,s1
20011f2e:	8031                	srli	s0,s0,0xc
20011f30:	147d                	addi	s0,s0,-1
20011f32:	0432                	slli	s0,s0,0xc
20011f34:	00e45d63          	bge	s0,a4,20011f4e <_malloc_trim_r+0x50>
20011f38:	854a                	mv	a0,s2
20011f3a:	152020ef          	jal	ra,2001408c <__malloc_unlock>
20011f3e:	4501                	li	a0,0
20011f40:	40f2                	lw	ra,28(sp)
20011f42:	4462                	lw	s0,24(sp)
20011f44:	44d2                	lw	s1,20(sp)
20011f46:	4942                	lw	s2,16(sp)
20011f48:	49b2                	lw	s3,12(sp)
20011f4a:	6105                	addi	sp,sp,32
20011f4c:	8082                	ret
20011f4e:	4581                	li	a1,0
20011f50:	854a                	mv	a0,s2
20011f52:	279020ef          	jal	ra,200149ca <_sbrk_r>
20011f56:	0089a783          	lw	a5,8(s3)
20011f5a:	97a6                	add	a5,a5,s1
20011f5c:	fcf51ee3          	bne	a0,a5,20011f38 <_malloc_trim_r+0x3a>
20011f60:	408005b3          	neg	a1,s0
20011f64:	854a                	mv	a0,s2
20011f66:	265020ef          	jal	ra,200149ca <_sbrk_r>
20011f6a:	57fd                	li	a5,-1
20011f6c:	02f51b63          	bne	a0,a5,20011fa2 <_malloc_trim_r+0xa4>
20011f70:	4581                	li	a1,0
20011f72:	854a                	mv	a0,s2
20011f74:	257020ef          	jal	ra,200149ca <_sbrk_r>
20011f78:	0089a703          	lw	a4,8(s3)
20011f7c:	46bd                	li	a3,15
20011f7e:	40e507b3          	sub	a5,a0,a4
20011f82:	faf6dbe3          	bge	a3,a5,20011f38 <_malloc_trim_r+0x3a>
20011f86:	5ffef697          	auipc	a3,0x5ffef
20011f8a:	27668693          	addi	a3,a3,630 # 800011fc <__malloc_sbrk_base>
20011f8e:	4294                	lw	a3,0(a3)
20011f90:	0017e793          	ori	a5,a5,1
20011f94:	c35c                	sw	a5,4(a4)
20011f96:	8d15                	sub	a0,a0,a3
20011f98:	5ffef697          	auipc	a3,0x5ffef
20011f9c:	2ca6a023          	sw	a0,704(a3) # 80001258 <__malloc_current_mallinfo>
20011fa0:	bf61                	j	20011f38 <_malloc_trim_r+0x3a>
20011fa2:	0089a783          	lw	a5,8(s3)
20011fa6:	8c81                	sub	s1,s1,s0
20011fa8:	0014e493          	ori	s1,s1,1
20011fac:	c3c4                	sw	s1,4(a5)
20011fae:	5ffef797          	auipc	a5,0x5ffef
20011fb2:	2aa78793          	addi	a5,a5,682 # 80001258 <__malloc_current_mallinfo>
20011fb6:	439c                	lw	a5,0(a5)
20011fb8:	854a                	mv	a0,s2
20011fba:	40878433          	sub	s0,a5,s0
20011fbe:	5ffef797          	auipc	a5,0x5ffef
20011fc2:	2887ad23          	sw	s0,666(a5) # 80001258 <__malloc_current_mallinfo>
20011fc6:	0c6020ef          	jal	ra,2001408c <__malloc_unlock>
20011fca:	4505                	li	a0,1
20011fcc:	bf95                	j	20011f40 <_malloc_trim_r+0x42>

20011fce <_free_r>:
20011fce:	1c058763          	beqz	a1,2001219c <_free_r+0x1ce>
20011fd2:	1141                	addi	sp,sp,-16
20011fd4:	c422                	sw	s0,8(sp)
20011fd6:	c226                	sw	s1,4(sp)
20011fd8:	842a                	mv	s0,a0
20011fda:	84ae                	mv	s1,a1
20011fdc:	c606                	sw	ra,12(sp)
20011fde:	0ac020ef          	jal	ra,2001408a <__malloc_lock>
20011fe2:	ffc4a583          	lw	a1,-4(s1)
20011fe6:	ff848693          	addi	a3,s1,-8
20011fea:	5ffee517          	auipc	a0,0x5ffee
20011fee:	5aa50513          	addi	a0,a0,1450 # 80000594 <__malloc_av_>
20011ff2:	ffe5f793          	andi	a5,a1,-2
20011ff6:	00f68633          	add	a2,a3,a5
20011ffa:	4258                	lw	a4,4(a2)
20011ffc:	00852803          	lw	a6,8(a0)
20012000:	8985                	andi	a1,a1,1
20012002:	9b71                	andi	a4,a4,-4
20012004:	04c81863          	bne	a6,a2,20012054 <_free_r+0x86>
20012008:	97ba                	add	a5,a5,a4
2001200a:	e989                	bnez	a1,2001201c <_free_r+0x4e>
2001200c:	ff84a703          	lw	a4,-8(s1)
20012010:	8e99                	sub	a3,a3,a4
20012012:	4690                	lw	a2,8(a3)
20012014:	97ba                	add	a5,a5,a4
20012016:	46d8                	lw	a4,12(a3)
20012018:	c658                	sw	a4,12(a2)
2001201a:	c710                	sw	a2,8(a4)
2001201c:	0017e713          	ori	a4,a5,1
20012020:	c2d8                	sw	a4,4(a3)
20012022:	5ffee717          	auipc	a4,0x5ffee
20012026:	56d72d23          	sw	a3,1402(a4) # 8000059c <__malloc_av_+0x8>
2001202a:	5ffef717          	auipc	a4,0x5ffef
2001202e:	1d670713          	addi	a4,a4,470 # 80001200 <__malloc_trim_threshold>
20012032:	4318                	lw	a4,0(a4)
20012034:	00e7e963          	bltu	a5,a4,20012046 <_free_r+0x78>
20012038:	5ffef797          	auipc	a5,0x5ffef
2001203c:	21c78793          	addi	a5,a5,540 # 80001254 <__malloc_top_pad>
20012040:	438c                	lw	a1,0(a5)
20012042:	8522                	mv	a0,s0
20012044:	3d6d                	jal	20011efe <_malloc_trim_r>
20012046:	8522                	mv	a0,s0
20012048:	4422                	lw	s0,8(sp)
2001204a:	40b2                	lw	ra,12(sp)
2001204c:	4492                	lw	s1,4(sp)
2001204e:	0141                	addi	sp,sp,16
20012050:	03c0206f          	j	2001408c <__malloc_unlock>
20012054:	c258                	sw	a4,4(a2)
20012056:	4801                	li	a6,0
20012058:	e195                	bnez	a1,2001207c <_free_r+0xae>
2001205a:	ff84a583          	lw	a1,-8(s1)
2001205e:	5ffee897          	auipc	a7,0x5ffee
20012062:	53e88893          	addi	a7,a7,1342 # 8000059c <__malloc_av_+0x8>
20012066:	8e8d                	sub	a3,a3,a1
20012068:	97ae                	add	a5,a5,a1
2001206a:	468c                	lw	a1,8(a3)
2001206c:	09158563          	beq	a1,a7,200120f6 <_free_r+0x128>
20012070:	00c6a883          	lw	a7,12(a3)
20012074:	0115a623          	sw	a7,12(a1)
20012078:	00b8a423          	sw	a1,8(a7)
2001207c:	00e605b3          	add	a1,a2,a4
20012080:	41cc                	lw	a1,4(a1)
20012082:	8985                	andi	a1,a1,1
20012084:	e595                	bnez	a1,200120b0 <_free_r+0xe2>
20012086:	97ba                	add	a5,a5,a4
20012088:	4618                	lw	a4,8(a2)
2001208a:	06081863          	bnez	a6,200120fa <_free_r+0x12c>
2001208e:	5ffee597          	auipc	a1,0x5ffee
20012092:	50e58593          	addi	a1,a1,1294 # 8000059c <__malloc_av_+0x8>
20012096:	06b71263          	bne	a4,a1,200120fa <_free_r+0x12c>
2001209a:	5ffee617          	auipc	a2,0x5ffee
2001209e:	50d62723          	sw	a3,1294(a2) # 800005a8 <__malloc_av_+0x14>
200120a2:	5ffee617          	auipc	a2,0x5ffee
200120a6:	50d62123          	sw	a3,1282(a2) # 800005a4 <__malloc_av_+0x10>
200120aa:	c6d8                	sw	a4,12(a3)
200120ac:	c698                	sw	a4,8(a3)
200120ae:	4805                	li	a6,1
200120b0:	0017e713          	ori	a4,a5,1
200120b4:	c2d8                	sw	a4,4(a3)
200120b6:	00f68733          	add	a4,a3,a5
200120ba:	c31c                	sw	a5,0(a4)
200120bc:	f80815e3          	bnez	a6,20012046 <_free_r+0x78>
200120c0:	1ff00713          	li	a4,511
200120c4:	02f76f63          	bltu	a4,a5,20012102 <_free_r+0x134>
200120c8:	838d                	srli	a5,a5,0x3
200120ca:	4027d613          	srai	a2,a5,0x2
200120ce:	4705                	li	a4,1
200120d0:	00c71733          	sll	a4,a4,a2
200120d4:	4150                	lw	a2,4(a0)
200120d6:	0785                	addi	a5,a5,1
200120d8:	078e                	slli	a5,a5,0x3
200120da:	8f51                	or	a4,a4,a2
200120dc:	97aa                	add	a5,a5,a0
200120de:	5ffee617          	auipc	a2,0x5ffee
200120e2:	4ae62d23          	sw	a4,1210(a2) # 80000598 <__malloc_av_+0x4>
200120e6:	4398                	lw	a4,0(a5)
200120e8:	ff878613          	addi	a2,a5,-8
200120ec:	c6d0                	sw	a2,12(a3)
200120ee:	c698                	sw	a4,8(a3)
200120f0:	c394                	sw	a3,0(a5)
200120f2:	c754                	sw	a3,12(a4)
200120f4:	bf89                	j	20012046 <_free_r+0x78>
200120f6:	4805                	li	a6,1
200120f8:	b751                	j	2001207c <_free_r+0xae>
200120fa:	4650                	lw	a2,12(a2)
200120fc:	c750                	sw	a2,12(a4)
200120fe:	c618                	sw	a4,8(a2)
20012100:	bf45                	j	200120b0 <_free_r+0xe2>
20012102:	0097d613          	srli	a2,a5,0x9
20012106:	4711                	li	a4,4
20012108:	02c76e63          	bltu	a4,a2,20012144 <_free_r+0x176>
2001210c:	0067d713          	srli	a4,a5,0x6
20012110:	03870713          	addi	a4,a4,56
20012114:	00170613          	addi	a2,a4,1
20012118:	060e                	slli	a2,a2,0x3
2001211a:	962a                	add	a2,a2,a0
2001211c:	ff860593          	addi	a1,a2,-8
20012120:	4210                	lw	a2,0(a2)
20012122:	06c59763          	bne	a1,a2,20012190 <_free_r+0x1c2>
20012126:	4785                	li	a5,1
20012128:	8709                	srai	a4,a4,0x2
2001212a:	00e79733          	sll	a4,a5,a4
2001212e:	415c                	lw	a5,4(a0)
20012130:	8f5d                	or	a4,a4,a5
20012132:	5ffee797          	auipc	a5,0x5ffee
20012136:	46e7a323          	sw	a4,1126(a5) # 80000598 <__malloc_av_+0x4>
2001213a:	c6cc                	sw	a1,12(a3)
2001213c:	c690                	sw	a2,8(a3)
2001213e:	c594                	sw	a3,8(a1)
20012140:	c654                	sw	a3,12(a2)
20012142:	b711                	j	20012046 <_free_r+0x78>
20012144:	4751                	li	a4,20
20012146:	00c76563          	bltu	a4,a2,20012150 <_free_r+0x182>
2001214a:	05b60713          	addi	a4,a2,91
2001214e:	b7d9                	j	20012114 <_free_r+0x146>
20012150:	05400713          	li	a4,84
20012154:	00c76763          	bltu	a4,a2,20012162 <_free_r+0x194>
20012158:	00c7d713          	srli	a4,a5,0xc
2001215c:	06e70713          	addi	a4,a4,110
20012160:	bf55                	j	20012114 <_free_r+0x146>
20012162:	15400713          	li	a4,340
20012166:	00c76763          	bltu	a4,a2,20012174 <_free_r+0x1a6>
2001216a:	00f7d713          	srli	a4,a5,0xf
2001216e:	07770713          	addi	a4,a4,119
20012172:	b74d                	j	20012114 <_free_r+0x146>
20012174:	55400593          	li	a1,1364
20012178:	07e00713          	li	a4,126
2001217c:	f8c5ece3          	bltu	a1,a2,20012114 <_free_r+0x146>
20012180:	0127d713          	srli	a4,a5,0x12
20012184:	07c70713          	addi	a4,a4,124
20012188:	b771                	j	20012114 <_free_r+0x146>
2001218a:	4610                	lw	a2,8(a2)
2001218c:	00c58663          	beq	a1,a2,20012198 <_free_r+0x1ca>
20012190:	4258                	lw	a4,4(a2)
20012192:	9b71                	andi	a4,a4,-4
20012194:	fee7ebe3          	bltu	a5,a4,2001218a <_free_r+0x1bc>
20012198:	464c                	lw	a1,12(a2)
2001219a:	b745                	j	2001213a <_free_r+0x16c>
2001219c:	8082                	ret

2001219e <_fwalk>:
2001219e:	7179                	addi	sp,sp,-48
200121a0:	d422                	sw	s0,40(sp)
200121a2:	d04a                	sw	s2,32(sp)
200121a4:	cc52                	sw	s4,24(sp)
200121a6:	ca56                	sw	s5,20(sp)
200121a8:	d606                	sw	ra,44(sp)
200121aa:	d226                	sw	s1,36(sp)
200121ac:	ce4e                	sw	s3,28(sp)
200121ae:	2e050413          	addi	s0,a0,736
200121b2:	4901                	li	s2,0
200121b4:	4a05                	li	s4,1
200121b6:	5afd                	li	s5,-1
200121b8:	e819                	bnez	s0,200121ce <_fwalk+0x30>
200121ba:	50b2                	lw	ra,44(sp)
200121bc:	5422                	lw	s0,40(sp)
200121be:	854a                	mv	a0,s2
200121c0:	5492                	lw	s1,36(sp)
200121c2:	5902                	lw	s2,32(sp)
200121c4:	49f2                	lw	s3,28(sp)
200121c6:	4a62                	lw	s4,24(sp)
200121c8:	4ad2                	lw	s5,20(sp)
200121ca:	6145                	addi	sp,sp,48
200121cc:	8082                	ret
200121ce:	4404                	lw	s1,8(s0)
200121d0:	00442983          	lw	s3,4(s0)
200121d4:	19fd                	addi	s3,s3,-1
200121d6:	0009d463          	bgez	s3,200121de <_fwalk+0x40>
200121da:	4000                	lw	s0,0(s0)
200121dc:	bff1                	j	200121b8 <_fwalk+0x1a>
200121de:	00c4d783          	lhu	a5,12(s1)
200121e2:	00fa7c63          	bgeu	s4,a5,200121fa <_fwalk+0x5c>
200121e6:	00e49783          	lh	a5,14(s1)
200121ea:	01578863          	beq	a5,s5,200121fa <_fwalk+0x5c>
200121ee:	8526                	mv	a0,s1
200121f0:	c62e                	sw	a1,12(sp)
200121f2:	9582                	jalr	a1
200121f4:	45b2                	lw	a1,12(sp)
200121f6:	00a96933          	or	s2,s2,a0
200121fa:	06848493          	addi	s1,s1,104
200121fe:	bfd9                	j	200121d4 <_fwalk+0x36>

20012200 <_fwalk_reent>:
20012200:	7179                	addi	sp,sp,-48
20012202:	d422                	sw	s0,40(sp)
20012204:	d04a                	sw	s2,32(sp)
20012206:	cc52                	sw	s4,24(sp)
20012208:	ca56                	sw	s5,20(sp)
2001220a:	c85a                	sw	s6,16(sp)
2001220c:	c65e                	sw	s7,12(sp)
2001220e:	d606                	sw	ra,44(sp)
20012210:	d226                	sw	s1,36(sp)
20012212:	ce4e                	sw	s3,28(sp)
20012214:	8a2a                	mv	s4,a0
20012216:	8aae                	mv	s5,a1
20012218:	2e050413          	addi	s0,a0,736
2001221c:	4901                	li	s2,0
2001221e:	4b05                	li	s6,1
20012220:	5bfd                	li	s7,-1
20012222:	ec09                	bnez	s0,2001223c <_fwalk_reent+0x3c>
20012224:	50b2                	lw	ra,44(sp)
20012226:	5422                	lw	s0,40(sp)
20012228:	854a                	mv	a0,s2
2001222a:	5492                	lw	s1,36(sp)
2001222c:	5902                	lw	s2,32(sp)
2001222e:	49f2                	lw	s3,28(sp)
20012230:	4a62                	lw	s4,24(sp)
20012232:	4ad2                	lw	s5,20(sp)
20012234:	4b42                	lw	s6,16(sp)
20012236:	4bb2                	lw	s7,12(sp)
20012238:	6145                	addi	sp,sp,48
2001223a:	8082                	ret
2001223c:	4404                	lw	s1,8(s0)
2001223e:	00442983          	lw	s3,4(s0)
20012242:	19fd                	addi	s3,s3,-1
20012244:	0009d463          	bgez	s3,2001224c <_fwalk_reent+0x4c>
20012248:	4000                	lw	s0,0(s0)
2001224a:	bfe1                	j	20012222 <_fwalk_reent+0x22>
2001224c:	00c4d783          	lhu	a5,12(s1)
20012250:	00fb7b63          	bgeu	s6,a5,20012266 <_fwalk_reent+0x66>
20012254:	00e49783          	lh	a5,14(s1)
20012258:	01778763          	beq	a5,s7,20012266 <_fwalk_reent+0x66>
2001225c:	85a6                	mv	a1,s1
2001225e:	8552                	mv	a0,s4
20012260:	9a82                	jalr	s5
20012262:	00a96933          	or	s2,s2,a0
20012266:	06848493          	addi	s1,s1,104
2001226a:	bfe1                	j	20012242 <_fwalk_reent+0x42>

2001226c <eclear>:
2001226c:	01450793          	addi	a5,a0,20
20012270:	0509                	addi	a0,a0,2
20012272:	fe051f23          	sh	zero,-2(a0)
20012276:	fef51de3          	bne	a0,a5,20012270 <eclear+0x4>
2001227a:	8082                	ret

2001227c <emov>:
2001227c:	4781                	li	a5,0
2001227e:	4751                	li	a4,20
20012280:	00f506b3          	add	a3,a0,a5
20012284:	0006d603          	lhu	a2,0(a3)
20012288:	00f586b3          	add	a3,a1,a5
2001228c:	0789                	addi	a5,a5,2
2001228e:	00c69023          	sh	a2,0(a3)
20012292:	fee797e3          	bne	a5,a4,20012280 <emov+0x4>
20012296:	8082                	ret

20012298 <ecleaz>:
20012298:	01a50793          	addi	a5,a0,26
2001229c:	0509                	addi	a0,a0,2
2001229e:	fe051f23          	sh	zero,-2(a0)
200122a2:	fef51de3          	bne	a0,a5,2001229c <ecleaz+0x4>
200122a6:	8082                	ret

200122a8 <emovz>:
200122a8:	4781                	li	a5,0
200122aa:	4761                	li	a4,24
200122ac:	00f506b3          	add	a3,a0,a5
200122b0:	0006d603          	lhu	a2,0(a3)
200122b4:	00f586b3          	add	a3,a1,a5
200122b8:	0789                	addi	a5,a5,2
200122ba:	00c69023          	sh	a2,0(a3)
200122be:	fee797e3          	bne	a5,a4,200122ac <emovz+0x4>
200122c2:	00059c23          	sh	zero,24(a1)
200122c6:	8082                	ret

200122c8 <ecmpm>:
200122c8:	4791                	li	a5,4
200122ca:	4669                	li	a2,26
200122cc:	00f50733          	add	a4,a0,a5
200122d0:	00075683          	lhu	a3,0(a4)
200122d4:	00f58733          	add	a4,a1,a5
200122d8:	00075703          	lhu	a4,0(a4)
200122dc:	00e68763          	beq	a3,a4,200122ea <ecmpm+0x22>
200122e0:	4505                	li	a0,1
200122e2:	00d76863          	bltu	a4,a3,200122f2 <ecmpm+0x2a>
200122e6:	557d                	li	a0,-1
200122e8:	8082                	ret
200122ea:	0789                	addi	a5,a5,2
200122ec:	fec790e3          	bne	a5,a2,200122cc <ecmpm+0x4>
200122f0:	4501                	li	a0,0
200122f2:	8082                	ret

200122f4 <eshdn1>:
200122f4:	00450693          	addi	a3,a0,4
200122f8:	4781                	li	a5,0
200122fa:	0569                	addi	a0,a0,26
200122fc:	7661                	lui	a2,0xffff8
200122fe:	0006d703          	lhu	a4,0(a3)
20012302:	00177593          	andi	a1,a4,1
20012306:	c199                	beqz	a1,2001230c <eshdn1+0x18>
20012308:	0017e793          	ori	a5,a5,1
2001230c:	0027f593          	andi	a1,a5,2
20012310:	8305                	srli	a4,a4,0x1
20012312:	e991                	bnez	a1,20012326 <eshdn1+0x32>
20012314:	0786                	slli	a5,a5,0x1
20012316:	00e69023          	sh	a4,0(a3)
2001231a:	07c2                	slli	a5,a5,0x10
2001231c:	0689                	addi	a3,a3,2
2001231e:	83c1                	srli	a5,a5,0x10
20012320:	fcd51fe3          	bne	a0,a3,200122fe <eshdn1+0xa>
20012324:	8082                	ret
20012326:	8f51                	or	a4,a4,a2
20012328:	b7f5                	j	20012314 <eshdn1+0x20>

2001232a <eshup1>:
2001232a:	01650693          	addi	a3,a0,22
2001232e:	4701                	li	a4,0
20012330:	0026d783          	lhu	a5,2(a3)
20012334:	01079613          	slli	a2,a5,0x10
20012338:	8641                	srai	a2,a2,0x10
2001233a:	00065463          	bgez	a2,20012342 <eshup1+0x18>
2001233e:	00176713          	ori	a4,a4,1
20012342:	0786                	slli	a5,a5,0x1
20012344:	07c2                	slli	a5,a5,0x10
20012346:	00277613          	andi	a2,a4,2
2001234a:	83c1                	srli	a5,a5,0x10
2001234c:	ea11                	bnez	a2,20012360 <eshup1+0x36>
2001234e:	0706                	slli	a4,a4,0x1
20012350:	00f69123          	sh	a5,2(a3)
20012354:	0742                	slli	a4,a4,0x10
20012356:	16f9                	addi	a3,a3,-2
20012358:	8341                	srli	a4,a4,0x10
2001235a:	fcd51be3          	bne	a0,a3,20012330 <eshup1+0x6>
2001235e:	8082                	ret
20012360:	0017e793          	ori	a5,a5,1
20012364:	b7ed                	j	2001234e <eshup1+0x24>

20012366 <eshdn8>:
20012366:	00450793          	addi	a5,a0,4
2001236a:	4701                	li	a4,0
2001236c:	0569                	addi	a0,a0,26
2001236e:	0007d683          	lhu	a3,0(a5)
20012372:	0789                	addi	a5,a5,2
20012374:	0086d613          	srli	a2,a3,0x8
20012378:	8f51                	or	a4,a4,a2
2001237a:	fee79f23          	sh	a4,-2(a5)
2001237e:	00869713          	slli	a4,a3,0x8
20012382:	0742                	slli	a4,a4,0x10
20012384:	8341                	srli	a4,a4,0x10
20012386:	fef514e3          	bne	a0,a5,2001236e <eshdn8+0x8>
2001238a:	8082                	ret

2001238c <eshup8>:
2001238c:	01650793          	addi	a5,a0,22
20012390:	4701                	li	a4,0
20012392:	0027d683          	lhu	a3,2(a5)
20012396:	17f9                	addi	a5,a5,-2
20012398:	00869613          	slli	a2,a3,0x8
2001239c:	8f51                	or	a4,a4,a2
2001239e:	00e79223          	sh	a4,4(a5)
200123a2:	0086d713          	srli	a4,a3,0x8
200123a6:	fef516e3          	bne	a0,a5,20012392 <eshup8+0x6>
200123aa:	8082                	ret

200123ac <eshup6>:
200123ac:	00450793          	addi	a5,a0,4
200123b0:	01850713          	addi	a4,a0,24
200123b4:	0789                	addi	a5,a5,2
200123b6:	0007d683          	lhu	a3,0(a5)
200123ba:	fed79f23          	sh	a3,-2(a5)
200123be:	fef71be3          	bne	a4,a5,200123b4 <eshup6+0x8>
200123c2:	00051c23          	sh	zero,24(a0)
200123c6:	8082                	ret

200123c8 <eshdn6>:
200123c8:	01850793          	addi	a5,a0,24
200123cc:	00450713          	addi	a4,a0,4
200123d0:	17f9                	addi	a5,a5,-2
200123d2:	0007d683          	lhu	a3,0(a5)
200123d6:	00d79123          	sh	a3,2(a5)
200123da:	fef71be3          	bne	a4,a5,200123d0 <eshdn6+0x8>
200123de:	00051223          	sh	zero,4(a0)
200123e2:	8082                	ret

200123e4 <eaddm>:
200123e4:	05e1                	addi	a1,a1,24
200123e6:	01650713          	addi	a4,a0,22
200123ea:	4681                	li	a3,0
200123ec:	00275783          	lhu	a5,2(a4)
200123f0:	0005d603          	lhu	a2,0(a1)
200123f4:	1779                	addi	a4,a4,-2
200123f6:	15f9                	addi	a1,a1,-2
200123f8:	97b2                	add	a5,a5,a2
200123fa:	97b6                	add	a5,a5,a3
200123fc:	00f59123          	sh	a5,2(a1)
20012400:	83c1                	srli	a5,a5,0x10
20012402:	0017f693          	andi	a3,a5,1
20012406:	fee513e3          	bne	a0,a4,200123ec <eaddm+0x8>
2001240a:	8082                	ret

2001240c <esubm>:
2001240c:	05e1                	addi	a1,a1,24
2001240e:	01650713          	addi	a4,a0,22
20012412:	4681                	li	a3,0
20012414:	0005d783          	lhu	a5,0(a1)
20012418:	1779                	addi	a4,a4,-2
2001241a:	15f9                	addi	a1,a1,-2
2001241c:	8f95                	sub	a5,a5,a3
2001241e:	00475683          	lhu	a3,4(a4)
20012422:	8f95                	sub	a5,a5,a3
20012424:	00f59123          	sh	a5,2(a1)
20012428:	83c1                	srli	a5,a5,0x10
2001242a:	0017f693          	andi	a3,a5,1
2001242e:	fee513e3          	bne	a0,a4,20012414 <esubm+0x8>
20012432:	8082                	ret

20012434 <m16m>:
20012434:	1101                	addi	sp,sp,-32
20012436:	6341                	lui	t1,0x10
20012438:	01858893          	addi	a7,a1,24
2001243c:	00011d23          	sh	zero,26(sp)
20012440:	00011e23          	sh	zero,28(sp)
20012444:	0591                	addi	a1,a1,4
20012446:	0874                	addi	a3,sp,28
20012448:	137d                	addi	t1,t1,-1
2001244a:	0008d703          	lhu	a4,0(a7)
2001244e:	16f9                	addi	a3,a3,-2
20012450:	18f9                	addi	a7,a7,-2
20012452:	e705                	bnez	a4,2001247a <m16m+0x46>
20012454:	fe069f23          	sh	zero,-2(a3)
20012458:	ff1599e3          	bne	a1,a7,2001244a <m16m+0x16>
2001245c:	4791                	li	a5,4
2001245e:	4769                	li	a4,26
20012460:	004c                	addi	a1,sp,4
20012462:	95be                	add	a1,a1,a5
20012464:	0005d583          	lhu	a1,0(a1)
20012468:	00f606b3          	add	a3,a2,a5
2001246c:	0789                	addi	a5,a5,2
2001246e:	00b69023          	sh	a1,0(a3)
20012472:	fee797e3          	bne	a5,a4,20012460 <m16m+0x2c>
20012476:	6105                	addi	sp,sp,32
20012478:	8082                	ret
2001247a:	02a70733          	mul	a4,a4,a0
2001247e:	0026d803          	lhu	a6,2(a3)
20012482:	006777b3          	and	a5,a4,t1
20012486:	97c2                	add	a5,a5,a6
20012488:	0107d813          	srli	a6,a5,0x10
2001248c:	00f69123          	sh	a5,2(a3)
20012490:	01075793          	srli	a5,a4,0x10
20012494:	0006d703          	lhu	a4,0(a3)
20012498:	97ba                	add	a5,a5,a4
2001249a:	97c2                	add	a5,a5,a6
2001249c:	00f69023          	sh	a5,0(a3)
200124a0:	83c1                	srli	a5,a5,0x10
200124a2:	fef69f23          	sh	a5,-2(a3)
200124a6:	bf4d                	j	20012458 <m16m+0x24>

200124a8 <eisnan>:
200124a8:	01255783          	lhu	a5,18(a0)
200124ac:	fff7c793          	not	a5,a5
200124b0:	01179713          	slli	a4,a5,0x11
200124b4:	eb09                	bnez	a4,200124c6 <eisnan+0x1e>
200124b6:	01250793          	addi	a5,a0,18
200124ba:	0509                	addi	a0,a0,2
200124bc:	ffe55703          	lhu	a4,-2(a0)
200124c0:	e709                	bnez	a4,200124ca <eisnan+0x22>
200124c2:	fea79ce3          	bne	a5,a0,200124ba <eisnan+0x12>
200124c6:	4501                	li	a0,0
200124c8:	8082                	ret
200124ca:	4505                	li	a0,1
200124cc:	8082                	ret

200124ce <eisneg>:
200124ce:	1141                	addi	sp,sp,-16
200124d0:	c422                	sw	s0,8(sp)
200124d2:	c606                	sw	ra,12(sp)
200124d4:	842a                	mv	s0,a0
200124d6:	3fc9                	jal	200124a8 <eisnan>
200124d8:	e901                	bnez	a0,200124e8 <eisneg+0x1a>
200124da:	01241503          	lh	a0,18(s0)
200124de:	817d                	srli	a0,a0,0x1f
200124e0:	40b2                	lw	ra,12(sp)
200124e2:	4422                	lw	s0,8(sp)
200124e4:	0141                	addi	sp,sp,16
200124e6:	8082                	ret
200124e8:	4501                	li	a0,0
200124ea:	bfdd                	j	200124e0 <eisneg+0x12>

200124ec <emovi>:
200124ec:	01251783          	lh	a5,18(a0)
200124f0:	1141                	addi	sp,sp,-16
200124f2:	c606                	sw	ra,12(sp)
200124f4:	c422                	sw	s0,8(sp)
200124f6:	c226                	sw	s1,4(sp)
200124f8:	c04a                	sw	s2,0(sp)
200124fa:	0407d863          	bgez	a5,2001254a <emovi+0x5e>
200124fe:	57fd                	li	a5,-1
20012500:	00f59023          	sh	a5,0(a1)
20012504:	01255703          	lhu	a4,18(a0)
20012508:	67a1                	lui	a5,0x8
2001250a:	17fd                	addi	a5,a5,-1
2001250c:	8f7d                	and	a4,a4,a5
2001250e:	00e59123          	sh	a4,2(a1)
20012512:	01050913          	addi	s2,a0,16
20012516:	04f71763          	bne	a4,a5,20012564 <emovi+0x78>
2001251a:	842e                	mv	s0,a1
2001251c:	84aa                	mv	s1,a0
2001251e:	3769                	jal	200124a8 <eisnan>
20012520:	c905                	beqz	a0,20012550 <emovi+0x64>
20012522:	00640793          	addi	a5,s0,6
20012526:	00041223          	sh	zero,4(s0)
2001252a:	ffc48513          	addi	a0,s1,-4
2001252e:	1979                	addi	s2,s2,-2
20012530:	00295703          	lhu	a4,2(s2)
20012534:	0789                	addi	a5,a5,2
20012536:	fee79f23          	sh	a4,-2(a5) # 7ffe <__heap_size+0x7bfe>
2001253a:	fea91ae3          	bne	s2,a0,2001252e <emovi+0x42>
2001253e:	40b2                	lw	ra,12(sp)
20012540:	4422                	lw	s0,8(sp)
20012542:	4492                	lw	s1,4(sp)
20012544:	4902                	lw	s2,0(sp)
20012546:	0141                	addi	sp,sp,16
20012548:	8082                	ret
2001254a:	00059023          	sh	zero,0(a1)
2001254e:	bf5d                	j	20012504 <emovi+0x18>
20012550:	00440793          	addi	a5,s0,4
20012554:	01a40593          	addi	a1,s0,26
20012558:	0789                	addi	a5,a5,2
2001255a:	fe079f23          	sh	zero,-2(a5)
2001255e:	feb79de3          	bne	a5,a1,20012558 <emovi+0x6c>
20012562:	bff1                	j	2001253e <emovi+0x52>
20012564:	00658793          	addi	a5,a1,6
20012568:	00059223          	sh	zero,4(a1)
2001256c:	1579                	addi	a0,a0,-2
2001256e:	1979                	addi	s2,s2,-2
20012570:	00295703          	lhu	a4,2(s2)
20012574:	0789                	addi	a5,a5,2
20012576:	fee79f23          	sh	a4,-2(a5)
2001257a:	fea91ae3          	bne	s2,a0,2001256e <emovi+0x82>
2001257e:	00059c23          	sh	zero,24(a1)
20012582:	bf75                	j	2001253e <emovi+0x52>

20012584 <ecmp>:
20012584:	715d                	addi	sp,sp,-80
20012586:	c2a6                	sw	s1,68(sp)
20012588:	c0ca                	sw	s2,64(sp)
2001258a:	c686                	sw	ra,76(sp)
2001258c:	c4a2                	sw	s0,72(sp)
2001258e:	892a                	mv	s2,a0
20012590:	84ae                	mv	s1,a1
20012592:	3f19                	jal	200124a8 <eisnan>
20012594:	e541                	bnez	a0,2001261c <ecmp+0x98>
20012596:	8526                	mv	a0,s1
20012598:	3f01                	jal	200124a8 <eisnan>
2001259a:	842a                	mv	s0,a0
2001259c:	e141                	bnez	a0,2001261c <ecmp+0x98>
2001259e:	002c                	addi	a1,sp,8
200125a0:	854a                	mv	a0,s2
200125a2:	37a9                	jal	200124ec <emovi>
200125a4:	104c                	addi	a1,sp,36
200125a6:	8526                	mv	a0,s1
200125a8:	3791                	jal	200124ec <emovi>
200125aa:	00815703          	lhu	a4,8(sp)
200125ae:	02415783          	lhu	a5,36(sp)
200125b2:	02e78c63          	beq	a5,a4,200125ea <ecmp+0x66>
200125b6:	4789                	li	a5,2
200125b8:	46e1                	li	a3,24
200125ba:	0030                	addi	a2,sp,8
200125bc:	963e                	add	a2,a2,a5
200125be:	00065603          	lhu	a2,0(a2) # ffff8000 <metal_segment_heap_target_end+0x7fff4000>
200125c2:	e205                	bnez	a2,200125e2 <ecmp+0x5e>
200125c4:	1050                	addi	a2,sp,36
200125c6:	963e                	add	a2,a2,a5
200125c8:	00065603          	lhu	a2,0(a2)
200125cc:	ea19                	bnez	a2,200125e2 <ecmp+0x5e>
200125ce:	0789                	addi	a5,a5,2
200125d0:	fed795e3          	bne	a5,a3,200125ba <ecmp+0x36>
200125d4:	8522                	mv	a0,s0
200125d6:	40b6                	lw	ra,76(sp)
200125d8:	4426                	lw	s0,72(sp)
200125da:	4496                	lw	s1,68(sp)
200125dc:	4906                	lw	s2,64(sp)
200125de:	6161                	addi	sp,sp,80
200125e0:	8082                	ret
200125e2:	4405                	li	s0,1
200125e4:	db65                	beqz	a4,200125d4 <ecmp+0x50>
200125e6:	547d                	li	s0,-1
200125e8:	b7f5                	j	200125d4 <ecmp+0x50>
200125ea:	4705                	li	a4,1
200125ec:	c391                	beqz	a5,200125f0 <ecmp+0x6c>
200125ee:	577d                	li	a4,-1
200125f0:	4781                	li	a5,0
200125f2:	45e1                	li	a1,24
200125f4:	0034                	addi	a3,sp,8
200125f6:	96be                	add	a3,a3,a5
200125f8:	0006d603          	lhu	a2,0(a3)
200125fc:	1054                	addi	a3,sp,36
200125fe:	96be                	add	a3,a3,a5
20012600:	0006d683          	lhu	a3,0(a3)
20012604:	00d60863          	beq	a2,a3,20012614 <ecmp+0x90>
20012608:	843a                	mv	s0,a4
2001260a:	fcc6e5e3          	bltu	a3,a2,200125d4 <ecmp+0x50>
2001260e:	40e00433          	neg	s0,a4
20012612:	b7c9                	j	200125d4 <ecmp+0x50>
20012614:	0789                	addi	a5,a5,2
20012616:	fcb79fe3          	bne	a5,a1,200125f4 <ecmp+0x70>
2001261a:	bf6d                	j	200125d4 <ecmp+0x50>
2001261c:	5479                	li	s0,-2
2001261e:	bf5d                	j	200125d4 <ecmp+0x50>

20012620 <eisinf>:
20012620:	01255783          	lhu	a5,18(a0)
20012624:	fff7c793          	not	a5,a5
20012628:	01179713          	slli	a4,a5,0x11
2001262c:	eb09                	bnez	a4,2001263e <eisinf+0x1e>
2001262e:	1141                	addi	sp,sp,-16
20012630:	c606                	sw	ra,12(sp)
20012632:	3d9d                	jal	200124a8 <eisnan>
20012634:	40b2                	lw	ra,12(sp)
20012636:	00153513          	seqz	a0,a0
2001263a:	0141                	addi	sp,sp,16
2001263c:	8082                	ret
2001263e:	4501                	li	a0,0
20012640:	8082                	ret

20012642 <einfin.isra.2>:
20012642:	01250713          	addi	a4,a0,18
20012646:	87aa                	mv	a5,a0
20012648:	0789                	addi	a5,a5,2
2001264a:	fe079f23          	sh	zero,-2(a5)
2001264e:	fee79de3          	bne	a5,a4,20012648 <einfin.isra.2+0x6>
20012652:	01255783          	lhu	a5,18(a0)
20012656:	6721                	lui	a4,0x8
20012658:	177d                	addi	a4,a4,-1
2001265a:	8fd9                	or	a5,a5,a4
2001265c:	00f51923          	sh	a5,18(a0)
20012660:	8082                	ret

20012662 <eshift.part.3>:
20012662:	1101                	addi	sp,sp,-32
20012664:	cc22                	sw	s0,24(sp)
20012666:	c64e                	sw	s3,12(sp)
20012668:	ce06                	sw	ra,28(sp)
2001266a:	ca26                	sw	s1,20(sp)
2001266c:	c84a                	sw	s2,16(sp)
2001266e:	c452                	sw	s4,8(sp)
20012670:	c256                	sw	s5,4(sp)
20012672:	89aa                	mv	s3,a0
20012674:	842e                	mv	s0,a1
20012676:	0a05d463          	bgez	a1,2001271e <eshift.part.3+0xbc>
2001267a:	40b00933          	neg	s2,a1
2001267e:	8a4a                	mv	s4,s2
20012680:	4481                	li	s1,0
20012682:	4abd                	li	s5,15
20012684:	034ac763          	blt	s5,s4,200126b2 <eshift.part.3+0x50>
20012688:	00495913          	srli	s2,s2,0x4
2001268c:	55c1                	li	a1,-16
2001268e:	02b905b3          	mul	a1,s2,a1
20012692:	4a1d                	li	s4,7
20012694:	40858433          	sub	s0,a1,s0
20012698:	8922                	mv	s2,s0
2001269a:	032a4363          	blt	s4,s2,200126c0 <eshift.part.3+0x5e>
2001269e:	00345593          	srli	a1,s0,0x3
200126a2:	57e1                	li	a5,-8
200126a4:	02f585b3          	mul	a1,a1,a5
200126a8:	942e                	add	s0,s0,a1
200126aa:	e015                	bnez	s0,200126ce <eshift.part.3+0x6c>
200126ac:	00903533          	snez	a0,s1
200126b0:	a8b1                	j	2001270c <eshift.part.3+0xaa>
200126b2:	0189d783          	lhu	a5,24(s3)
200126b6:	854e                	mv	a0,s3
200126b8:	1a41                	addi	s4,s4,-16
200126ba:	8cdd                	or	s1,s1,a5
200126bc:	3331                	jal	200123c8 <eshdn6>
200126be:	b7d9                	j	20012684 <eshift.part.3+0x22>
200126c0:	0189c783          	lbu	a5,24(s3)
200126c4:	854e                	mv	a0,s3
200126c6:	1961                	addi	s2,s2,-8
200126c8:	8cdd                	or	s1,s1,a5
200126ca:	3971                	jal	20012366 <eshdn8>
200126cc:	b7f9                	j	2001269a <eshift.part.3+0x38>
200126ce:	0189d783          	lhu	a5,24(s3)
200126d2:	854e                	mv	a0,s3
200126d4:	147d                	addi	s0,s0,-1
200126d6:	8b85                	andi	a5,a5,1
200126d8:	8cdd                	or	s1,s1,a5
200126da:	3929                	jal	200122f4 <eshdn1>
200126dc:	b7f9                	j	200126aa <eshift.part.3+0x48>
200126de:	854e                	mv	a0,s3
200126e0:	31f1                	jal	200123ac <eshup6>
200126e2:	14c1                	addi	s1,s1,-16
200126e4:	fe994de3          	blt	s2,s1,200126de <eshift.part.3+0x7c>
200126e8:	00445593          	srli	a1,s0,0x4
200126ec:	57c1                	li	a5,-16
200126ee:	02f585b3          	mul	a1,a1,a5
200126f2:	491d                	li	s2,7
200126f4:	942e                	add	s0,s0,a1
200126f6:	84a2                	mv	s1,s0
200126f8:	02994663          	blt	s2,s1,20012724 <eshift.part.3+0xc2>
200126fc:	00345593          	srli	a1,s0,0x3
20012700:	57e1                	li	a5,-8
20012702:	02f585b3          	mul	a1,a1,a5
20012706:	942e                	add	s0,s0,a1
20012708:	e015                	bnez	s0,2001272c <eshift.part.3+0xca>
2001270a:	4501                	li	a0,0
2001270c:	40f2                	lw	ra,28(sp)
2001270e:	4462                	lw	s0,24(sp)
20012710:	44d2                	lw	s1,20(sp)
20012712:	4942                	lw	s2,16(sp)
20012714:	49b2                	lw	s3,12(sp)
20012716:	4a22                	lw	s4,8(sp)
20012718:	4a92                	lw	s5,4(sp)
2001271a:	6105                	addi	sp,sp,32
2001271c:	8082                	ret
2001271e:	84ae                	mv	s1,a1
20012720:	493d                	li	s2,15
20012722:	b7c9                	j	200126e4 <eshift.part.3+0x82>
20012724:	854e                	mv	a0,s3
20012726:	319d                	jal	2001238c <eshup8>
20012728:	14e1                	addi	s1,s1,-8
2001272a:	b7f9                	j	200126f8 <eshift.part.3+0x96>
2001272c:	854e                	mv	a0,s3
2001272e:	3ef5                	jal	2001232a <eshup1>
20012730:	147d                	addi	s0,s0,-1
20012732:	bfd9                	j	20012708 <eshift.part.3+0xa6>

20012734 <enormlz>:
20012734:	00455783          	lhu	a5,4(a0)
20012738:	1141                	addi	sp,sp,-16
2001273a:	c226                	sw	s1,4(sp)
2001273c:	c606                	sw	ra,12(sp)
2001273e:	c422                	sw	s0,8(sp)
20012740:	c04a                	sw	s2,0(sp)
20012742:	84aa                	mv	s1,a0
20012744:	cb91                	beqz	a5,20012758 <enormlz+0x24>
20012746:	f007f793          	andi	a5,a5,-256
2001274a:	4401                	li	s0,0
2001274c:	c399                	beqz	a5,20012752 <enormlz+0x1e>
2001274e:	3921                	jal	20012366 <eshdn8>
20012750:	5461                	li	s0,-8
20012752:	f6f00913          	li	s2,-145
20012756:	a08d                	j	200127b8 <enormlz+0x84>
20012758:	00651783          	lh	a5,6(a0)
2001275c:	4401                	li	s0,0
2001275e:	0a000913          	li	s2,160
20012762:	0007de63          	bgez	a5,2001277e <enormlz+0x4a>
20012766:	8522                	mv	a0,s0
20012768:	40b2                	lw	ra,12(sp)
2001276a:	4422                	lw	s0,8(sp)
2001276c:	4492                	lw	s1,4(sp)
2001276e:	4902                	lw	s2,0(sp)
20012770:	0141                	addi	sp,sp,16
20012772:	8082                	ret
20012774:	8526                	mv	a0,s1
20012776:	0441                	addi	s0,s0,16
20012778:	3915                	jal	200123ac <eshup6>
2001277a:	ff2406e3          	beq	s0,s2,20012766 <enormlz+0x32>
2001277e:	0064d783          	lhu	a5,6(s1)
20012782:	dbed                	beqz	a5,20012774 <enormlz+0x40>
20012784:	0064d783          	lhu	a5,6(s1)
20012788:	f007f793          	andi	a5,a5,-256
2001278c:	cf89                	beqz	a5,200127a6 <enormlz+0x72>
2001278e:	0a000913          	li	s2,160
20012792:	00649783          	lh	a5,6(s1)
20012796:	fc07c8e3          	bltz	a5,20012766 <enormlz+0x32>
2001279a:	8526                	mv	a0,s1
2001279c:	0405                	addi	s0,s0,1
2001279e:	3671                	jal	2001232a <eshup1>
200127a0:	fe8959e3          	bge	s2,s0,20012792 <enormlz+0x5e>
200127a4:	b7c9                	j	20012766 <enormlz+0x32>
200127a6:	8526                	mv	a0,s1
200127a8:	36d5                	jal	2001238c <eshup8>
200127aa:	0421                	addi	s0,s0,8
200127ac:	bfe1                	j	20012784 <enormlz+0x50>
200127ae:	8526                	mv	a0,s1
200127b0:	147d                	addi	s0,s0,-1
200127b2:	3689                	jal	200122f4 <eshdn1>
200127b4:	fb2409e3          	beq	s0,s2,20012766 <enormlz+0x32>
200127b8:	0044d783          	lhu	a5,4(s1)
200127bc:	fbed                	bnez	a5,200127ae <enormlz+0x7a>
200127be:	b765                	j	20012766 <enormlz+0x32>

200127c0 <enan.constprop.12>:
200127c0:	01050713          	addi	a4,a0,16
200127c4:	87aa                	mv	a5,a0
200127c6:	0789                	addi	a5,a5,2
200127c8:	fe079f23          	sh	zero,-2(a5)
200127cc:	fee79de3          	bne	a5,a4,200127c6 <enan.constprop.12+0x6>
200127d0:	7fffc7b7          	lui	a5,0x7fffc
200127d4:	c91c                	sw	a5,16(a0)
200127d6:	8082                	ret

200127d8 <emovo.isra.6>:
200127d8:	872a                	mv	a4,a0
200127da:	00075683          	lhu	a3,0(a4) # 8000 <__heap_size+0x7c00>
200127de:	852e                	mv	a0,a1
200127e0:	00275783          	lhu	a5,2(a4)
200127e4:	c299                	beqz	a3,200127ea <emovo.isra.6+0x12>
200127e6:	76e1                	lui	a3,0xffff8
200127e8:	8fd5                	or	a5,a5,a3
200127ea:	00f51923          	sh	a5,18(a0)
200127ee:	00275603          	lhu	a2,2(a4)
200127f2:	66a1                	lui	a3,0x8
200127f4:	16fd                	addi	a3,a3,-1
200127f6:	00670793          	addi	a5,a4,6
200127fa:	00d61a63          	bne	a2,a3,2001280e <emovo.isra.6+0x36>
200127fe:	0769                	addi	a4,a4,26
20012800:	0007d683          	lhu	a3,0(a5) # 7fffc000 <__init_array_end+0x5ffdcc2c>
20012804:	e285                	bnez	a3,20012824 <emovo.isra.6+0x4c>
20012806:	0789                	addi	a5,a5,2
20012808:	fee79ce3          	bne	a5,a4,20012800 <emovo.isra.6+0x28>
2001280c:	bd1d                	j	20012642 <einfin.isra.2>
2001280e:	0541                	addi	a0,a0,16
20012810:	0761                	addi	a4,a4,24
20012812:	0789                	addi	a5,a5,2
20012814:	ffe7d683          	lhu	a3,-2(a5)
20012818:	1579                	addi	a0,a0,-2
2001281a:	00d51123          	sh	a3,2(a0)
2001281e:	fee79ae3          	bne	a5,a4,20012812 <emovo.isra.6+0x3a>
20012822:	8082                	ret
20012824:	bf71                	j	200127c0 <enan.constprop.12>

20012826 <e113toe.isra.8>:
20012826:	7179                	addi	sp,sp,-48
20012828:	d226                	sw	s1,36(sp)
2001282a:	84aa                	mv	s1,a0
2001282c:	0048                	addi	a0,sp,4
2001282e:	d422                	sw	s0,40(sp)
20012830:	d606                	sw	ra,44(sp)
20012832:	842e                	mv	s0,a1
20012834:	3495                	jal	20012298 <ecleaz>
20012836:	00e4d703          	lhu	a4,14(s1)
2001283a:	01071793          	slli	a5,a4,0x10
2001283e:	87c1                	srai	a5,a5,0x10
20012840:	0207c663          	bltz	a5,2001286c <e113toe.isra.8+0x46>
20012844:	00011223          	sh	zero,4(sp)
20012848:	66a1                	lui	a3,0x8
2001284a:	16fd                	addi	a3,a3,-1
2001284c:	8f75                	and	a4,a4,a3
2001284e:	00e48793          	addi	a5,s1,14
20012852:	04d71663          	bne	a4,a3,2001289e <e113toe.isra.8+0x78>
20012856:	8726                	mv	a4,s1
20012858:	00075683          	lhu	a3,0(a4)
2001285c:	ce81                	beqz	a3,20012874 <e113toe.isra.8+0x4e>
2001285e:	8522                	mv	a0,s0
20012860:	3785                	jal	200127c0 <enan.constprop.12>
20012862:	50b2                	lw	ra,44(sp)
20012864:	5422                	lw	s0,40(sp)
20012866:	5492                	lw	s1,36(sp)
20012868:	6145                	addi	sp,sp,48
2001286a:	8082                	ret
2001286c:	57fd                	li	a5,-1
2001286e:	00f11223          	sh	a5,4(sp)
20012872:	bfd9                	j	20012848 <e113toe.isra.8+0x22>
20012874:	0709                	addi	a4,a4,2
20012876:	fee791e3          	bne	a5,a4,20012858 <e113toe.isra.8+0x32>
2001287a:	8522                	mv	a0,s0
2001287c:	3ac5                	jal	2001226c <eclear>
2001287e:	8522                	mv	a0,s0
20012880:	33c9                	jal	20012642 <einfin.isra.2>
20012882:	00e49783          	lh	a5,14(s1)
20012886:	fc07dee3          	bgez	a5,20012862 <e113toe.isra.8+0x3c>
2001288a:	8522                	mv	a0,s0
2001288c:	3931                	jal	200124a8 <eisnan>
2001288e:	f971                	bnez	a0,20012862 <e113toe.isra.8+0x3c>
20012890:	01245783          	lhu	a5,18(s0)
20012894:	7761                	lui	a4,0xffff8
20012896:	8fb9                	xor	a5,a5,a4
20012898:	00f41923          	sh	a5,18(s0)
2001289c:	b7d9                	j	20012862 <e113toe.isra.8+0x3c>
2001289e:	00e11323          	sh	a4,6(sp)
200128a2:	0054                	addi	a3,sp,4
200128a4:	17f9                	addi	a5,a5,-2
200128a6:	0007d603          	lhu	a2,0(a5)
200128aa:	0689                	addi	a3,a3,2
200128ac:	00c69223          	sh	a2,4(a3) # 8004 <__heap_size+0x7c04>
200128b0:	fef49ae3          	bne	s1,a5,200128a4 <e113toe.isra.8+0x7e>
200128b4:	e719                	bnez	a4,200128c2 <e113toe.isra.8+0x9c>
200128b6:	00011423          	sh	zero,8(sp)
200128ba:	85a2                	mv	a1,s0
200128bc:	0048                	addi	a0,sp,4
200128be:	3f29                	jal	200127d8 <emovo.isra.6>
200128c0:	b74d                	j	20012862 <e113toe.isra.8+0x3c>
200128c2:	4785                	li	a5,1
200128c4:	55fd                	li	a1,-1
200128c6:	0048                	addi	a0,sp,4
200128c8:	00f11423          	sh	a5,8(sp)
200128cc:	3b59                	jal	20012662 <eshift.part.3>
200128ce:	b7f5                	j	200128ba <e113toe.isra.8+0x94>

200128d0 <emdnorm>:
200128d0:	1101                	addi	sp,sp,-32
200128d2:	cc22                	sw	s0,24(sp)
200128d4:	ca26                	sw	s1,20(sp)
200128d6:	c84a                	sw	s2,16(sp)
200128d8:	c64e                	sw	s3,12(sp)
200128da:	c452                	sw	s4,8(sp)
200128dc:	c256                	sw	s5,4(sp)
200128de:	8936                	mv	s2,a3
200128e0:	843e                	mv	s0,a5
200128e2:	ce06                	sw	ra,28(sp)
200128e4:	84aa                	mv	s1,a0
200128e6:	89ae                	mv	s3,a1
200128e8:	8a32                	mv	s4,a2
200128ea:	8aba                	mv	s5,a4
200128ec:	35a1                	jal	20012734 <enormlz>
200128ee:	09000793          	li	a5,144
200128f2:	40a90933          	sub	s2,s2,a0
200128f6:	02a7d763          	bge	a5,a0,20012924 <emdnorm+0x54>
200128fa:	67a1                	lui	a5,0x8
200128fc:	17f9                	addi	a5,a5,-2
200128fe:	0327ce63          	blt	a5,s2,2001293a <emdnorm+0x6a>
20012902:	00248793          	addi	a5,s1,2
20012906:	04e9                	addi	s1,s1,26
20012908:	0789                	addi	a5,a5,2
2001290a:	fe079f23          	sh	zero,-2(a5) # 7ffe <__heap_size+0x7bfe>
2001290e:	fe979de3          	bne	a5,s1,20012908 <emdnorm+0x38>
20012912:	40f2                	lw	ra,28(sp)
20012914:	4462                	lw	s0,24(sp)
20012916:	44d2                	lw	s1,20(sp)
20012918:	4942                	lw	s2,16(sp)
2001291a:	49b2                	lw	s3,12(sp)
2001291c:	4a22                	lw	s4,8(sp)
2001291e:	4a92                	lw	s5,4(sp)
20012920:	6105                	addi	sp,sp,32
20012922:	8082                	ret
20012924:	00095b63          	bgez	s2,2001293a <emdnorm+0x6a>
20012928:	f7000793          	li	a5,-144
2001292c:	12f94163          	blt	s2,a5,20012a4e <emdnorm+0x17e>
20012930:	85ca                	mv	a1,s2
20012932:	8526                	mv	a0,s1
20012934:	333d                	jal	20012662 <eshift.part.3>
20012936:	12051563          	bnez	a0,20012a60 <emdnorm+0x190>
2001293a:	0e0a8663          	beqz	s5,20012a26 <emdnorm+0x156>
2001293e:	4058                	lw	a4,4(s0)
20012940:	401c                	lw	a5,0(s0)
20012942:	04f70763          	beq	a4,a5,20012990 <emdnorm+0xc0>
20012946:	01a40513          	addi	a0,s0,26
2001294a:	32b9                	jal	20012298 <ecleaz>
2001294c:	405c                	lw	a5,4(s0)
2001294e:	03800713          	li	a4,56
20012952:	14e78763          	beq	a5,a4,20012aa0 <emdnorm+0x1d0>
20012956:	10f74763          	blt	a4,a5,20012a64 <emdnorm+0x194>
2001295a:	4761                	li	a4,24
2001295c:	16e78763          	beq	a5,a4,20012aca <emdnorm+0x1fa>
20012960:	03500713          	li	a4,53
20012964:	14e78863          	beq	a5,a4,20012ab4 <emdnorm+0x1e4>
20012968:	4731                	li	a4,12
2001296a:	c418                	sw	a4,8(s0)
2001296c:	80010737          	lui	a4,0x80010
20012970:	177d                	addi	a4,a4,-1
20012972:	c858                	sw	a4,20(s0)
20012974:	4705                	li	a4,1
20012976:	00e41c23          	sh	a4,24(s0)
2001297a:	472d                	li	a4,11
2001297c:	c458                	sw	a4,12(s0)
2001297e:	4458                	lw	a4,12(s0)
20012980:	01845683          	lhu	a3,24(s0)
20012984:	0721                	addi	a4,a4,8
20012986:	0706                	slli	a4,a4,0x1
20012988:	9722                	add	a4,a4,s0
2001298a:	00d71523          	sh	a3,10(a4) # 8001000a <metal_segment_heap_target_end+0xc00a>
2001298e:	c01c                	sw	a5,0(s0)
20012990:	01204e63          	bgtz	s2,200129ac <emdnorm+0xdc>
20012994:	4058                	lw	a4,4(s0)
20012996:	09000793          	li	a5,144
2001299a:	00f70963          	beq	a4,a5,200129ac <emdnorm+0xdc>
2001299e:	0184d783          	lhu	a5,24(s1)
200129a2:	8526                	mv	a0,s1
200129a4:	8b85                	andi	a5,a5,1
200129a6:	00f9e9b3          	or	s3,s3,a5
200129aa:	32a9                	jal	200122f4 <eshdn1>
200129ac:	4414                	lw	a3,8(s0)
200129ae:	01445603          	lhu	a2,20(s0)
200129b2:	404c                	lw	a1,4(s0)
200129b4:	00169713          	slli	a4,a3,0x1
200129b8:	9726                	add	a4,a4,s1
200129ba:	00075783          	lhu	a5,0(a4)
200129be:	8ff1                	and	a5,a5,a2
200129c0:	08f00613          	li	a2,143
200129c4:	00b64763          	blt	a2,a1,200129d2 <emdnorm+0x102>
200129c8:	0685                	addi	a3,a3,1
200129ca:	863a                	mv	a2,a4
200129cc:	45b1                	li	a1,12
200129ce:	10d5d063          	bge	a1,a3,20012ace <emdnorm+0x1fe>
200129d2:	01445683          	lhu	a3,20(s0)
200129d6:	00075603          	lhu	a2,0(a4)
200129da:	fff6c693          	not	a3,a3
200129de:	8ef1                	and	a3,a3,a2
200129e0:	00d71023          	sh	a3,0(a4)
200129e4:	01645703          	lhu	a4,22(s0)
200129e8:	00f776b3          	and	a3,a4,a5
200129ec:	ce91                	beqz	a3,20012a08 <emdnorm+0x138>
200129ee:	0ef71c63          	bne	a4,a5,20012ae6 <emdnorm+0x216>
200129f2:	0e099863          	bnez	s3,20012ae2 <emdnorm+0x212>
200129f6:	445c                	lw	a5,12(s0)
200129f8:	01845703          	lhu	a4,24(s0)
200129fc:	0786                	slli	a5,a5,0x1
200129fe:	97a6                	add	a5,a5,s1
20012a00:	0007d783          	lhu	a5,0(a5)
20012a04:	8ff9                	and	a5,a5,a4
20012a06:	e3e5                	bnez	a5,20012ae6 <emdnorm+0x216>
20012a08:	01204963          	bgtz	s2,20012a1a <emdnorm+0x14a>
20012a0c:	4058                	lw	a4,4(s0)
20012a0e:	09000793          	li	a5,144
20012a12:	00f70463          	beq	a4,a5,20012a1a <emdnorm+0x14a>
20012a16:	8526                	mv	a0,s1
20012a18:	3a09                	jal	2001232a <eshup1>
20012a1a:	0044d783          	lhu	a5,4(s1)
20012a1e:	c781                	beqz	a5,20012a26 <emdnorm+0x156>
20012a20:	8526                	mv	a0,s1
20012a22:	38c9                	jal	200122f4 <eshdn1>
20012a24:	0905                	addi	s2,s2,1
20012a26:	67a1                	lui	a5,0x8
20012a28:	00049c23          	sh	zero,24(s1)
20012a2c:	17f9                	addi	a5,a5,-2
20012a2e:	0d27d163          	bge	a5,s2,20012af0 <emdnorm+0x220>
20012a32:	77e1                	lui	a5,0xffff8
20012a34:	fff7c793          	not	a5,a5
20012a38:	00f49123          	sh	a5,2(s1)
20012a3c:	00448793          	addi	a5,s1,4
20012a40:	04e1                	addi	s1,s1,24
20012a42:	00079023          	sh	zero,0(a5) # ffff8000 <metal_segment_heap_target_end+0x7fff4000>
20012a46:	0789                	addi	a5,a5,2
20012a48:	fef49de3          	bne	s1,a5,20012a42 <emdnorm+0x172>
20012a4c:	b5d9                	j	20012912 <emdnorm+0x42>
20012a4e:	00248793          	addi	a5,s1,2
20012a52:	04e9                	addi	s1,s1,26
20012a54:	0789                	addi	a5,a5,2
20012a56:	fe079f23          	sh	zero,-2(a5)
20012a5a:	fe979de3          	bne	a5,s1,20012a54 <emdnorm+0x184>
20012a5e:	bd55                	j	20012912 <emdnorm+0x42>
20012a60:	4985                	li	s3,1
20012a62:	bde1                	j	2001293a <emdnorm+0x6a>
20012a64:	04000713          	li	a4,64
20012a68:	02e78163          	beq	a5,a4,20012a8a <emdnorm+0x1ba>
20012a6c:	07100713          	li	a4,113
20012a70:	eee79ce3          	bne	a5,a4,20012968 <emdnorm+0x98>
20012a74:	40008737          	lui	a4,0x40008
20012a78:	177d                	addi	a4,a4,-1
20012a7a:	46a9                	li	a3,10
20012a7c:	c858                	sw	a4,20(s0)
20012a7e:	c414                	sw	a3,8(s0)
20012a80:	7761                	lui	a4,0xffff8
20012a82:	00e41c23          	sh	a4,24(s0)
20012a86:	c454                	sw	a3,12(s0)
20012a88:	bddd                	j	2001297e <emdnorm+0xae>
20012a8a:	471d                	li	a4,7
20012a8c:	c418                	sw	a4,8(s0)
20012a8e:	80010737          	lui	a4,0x80010
20012a92:	177d                	addi	a4,a4,-1
20012a94:	c858                	sw	a4,20(s0)
20012a96:	4705                	li	a4,1
20012a98:	00e41c23          	sh	a4,24(s0)
20012a9c:	4719                	li	a4,6
20012a9e:	bdf9                	j	2001297c <emdnorm+0xac>
20012aa0:	4699                	li	a3,6
20012aa2:	00800737          	lui	a4,0x800
20012aa6:	0ff70713          	addi	a4,a4,255 # 8000ff <__heap_size+0x7ffcff>
20012aaa:	c858                	sw	a4,20(s0)
20012aac:	c414                	sw	a3,8(s0)
20012aae:	10000713          	li	a4,256
20012ab2:	bfc1                	j	20012a82 <emdnorm+0x1b2>
20012ab4:	04000737          	lui	a4,0x4000
20012ab8:	7ff70713          	addi	a4,a4,2047 # 40007ff <__heap_size+0x40003ff>
20012abc:	4699                	li	a3,6
20012abe:	c858                	sw	a4,20(s0)
20012ac0:	6705                	lui	a4,0x1
20012ac2:	c414                	sw	a3,8(s0)
20012ac4:	80070713          	addi	a4,a4,-2048 # 800 <__heap_size+0x400>
20012ac8:	bf6d                	j	20012a82 <emdnorm+0x1b2>
20012aca:	4691                	li	a3,4
20012acc:	bfd9                	j	20012aa2 <emdnorm+0x1d2>
20012ace:	00265503          	lhu	a0,2(a2)
20012ad2:	c119                	beqz	a0,20012ad8 <emdnorm+0x208>
20012ad4:	0017e793          	ori	a5,a5,1
20012ad8:	00061123          	sh	zero,2(a2)
20012adc:	0685                	addi	a3,a3,1
20012ade:	0609                	addi	a2,a2,2
20012ae0:	b5fd                	j	200129ce <emdnorm+0xfe>
20012ae2:	f20a13e3          	bnez	s4,20012a08 <emdnorm+0x138>
20012ae6:	85a6                	mv	a1,s1
20012ae8:	01a40513          	addi	a0,s0,26
20012aec:	38e5                	jal	200123e4 <eaddm>
20012aee:	bf29                	j	20012a08 <emdnorm+0x138>
20012af0:	00095563          	bgez	s2,20012afa <emdnorm+0x22a>
20012af4:	00049123          	sh	zero,2(s1)
20012af8:	bd29                	j	20012912 <emdnorm+0x42>
20012afa:	01249123          	sh	s2,2(s1)
20012afe:	bd11                	j	20012912 <emdnorm+0x42>

20012b00 <eiremain>:
20012b00:	1101                	addi	sp,sp,-32
20012b02:	c452                	sw	s4,8(sp)
20012b04:	00255a03          	lhu	s4,2(a0)
20012b08:	cc22                	sw	s0,24(sp)
20012b0a:	842e                	mv	s0,a1
20012b0c:	ce06                	sw	ra,28(sp)
20012b0e:	ca26                	sw	s1,20(sp)
20012b10:	c84a                	sw	s2,16(sp)
20012b12:	c256                	sw	s5,4(sp)
20012b14:	c05a                	sw	s6,0(sp)
20012b16:	8932                	mv	s2,a2
20012b18:	03460b13          	addi	s6,a2,52
20012b1c:	c64e                	sw	s3,12(sp)
20012b1e:	8aaa                	mv	s5,a0
20012b20:	3911                	jal	20012734 <enormlz>
20012b22:	00245483          	lhu	s1,2(s0)
20012b26:	40aa0a33          	sub	s4,s4,a0
20012b2a:	8522                	mv	a0,s0
20012b2c:	3121                	jal	20012734 <enormlz>
20012b2e:	8c89                	sub	s1,s1,a0
20012b30:	855a                	mv	a0,s6
20012b32:	f66ff0ef          	jal	ra,20012298 <ecleaz>
20012b36:	0344d263          	bge	s1,s4,20012b5a <eiremain+0x5a>
20012b3a:	8522                	mv	a0,s0
20012b3c:	4462                	lw	s0,24(sp)
20012b3e:	40f2                	lw	ra,28(sp)
20012b40:	49b2                	lw	s3,12(sp)
20012b42:	4a22                	lw	s4,8(sp)
20012b44:	4a92                	lw	s5,4(sp)
20012b46:	4b02                	lw	s6,0(sp)
20012b48:	87ca                	mv	a5,s2
20012b4a:	86a6                	mv	a3,s1
20012b4c:	4942                	lw	s2,16(sp)
20012b4e:	44d2                	lw	s1,20(sp)
20012b50:	4701                	li	a4,0
20012b52:	4601                	li	a2,0
20012b54:	4581                	li	a1,0
20012b56:	6105                	addi	sp,sp,32
20012b58:	bba5                	j	200128d0 <emdnorm>
20012b5a:	85a2                	mv	a1,s0
20012b5c:	8556                	mv	a0,s5
20012b5e:	f6aff0ef          	jal	ra,200122c8 <ecmpm>
20012b62:	4981                	li	s3,0
20012b64:	00a04663          	bgtz	a0,20012b70 <eiremain+0x70>
20012b68:	85a2                	mv	a1,s0
20012b6a:	8556                	mv	a0,s5
20012b6c:	3045                	jal	2001240c <esubm>
20012b6e:	4985                	li	s3,1
20012b70:	855a                	mv	a0,s6
20012b72:	fb8ff0ef          	jal	ra,2001232a <eshup1>
20012b76:	04c95783          	lhu	a5,76(s2)
20012b7a:	8522                	mv	a0,s0
20012b7c:	14fd                	addi	s1,s1,-1
20012b7e:	00f9e9b3          	or	s3,s3,a5
20012b82:	05391623          	sh	s3,76(s2)
20012b86:	fa4ff0ef          	jal	ra,2001232a <eshup1>
20012b8a:	b775                	j	20012b36 <eiremain+0x36>

20012b8c <emul>:
20012b8c:	7175                	addi	sp,sp,-144
20012b8e:	c522                	sw	s0,136(sp)
20012b90:	c326                	sw	s1,132(sp)
20012b92:	c14a                	sw	s2,128(sp)
20012b94:	dcd2                	sw	s4,120(sp)
20012b96:	c706                	sw	ra,140(sp)
20012b98:	dece                	sw	s3,124(sp)
20012b9a:	dad6                	sw	s5,116(sp)
20012b9c:	d8da                	sw	s6,112(sp)
20012b9e:	d6de                	sw	s7,108(sp)
20012ba0:	d4e2                	sw	s8,104(sp)
20012ba2:	892a                	mv	s2,a0
20012ba4:	842e                	mv	s0,a1
20012ba6:	84b2                	mv	s1,a2
20012ba8:	8a36                	mv	s4,a3
20012baa:	38fd                	jal	200124a8 <eisnan>
20012bac:	c10d                	beqz	a0,20012bce <emul+0x42>
20012bae:	85a6                	mv	a1,s1
20012bb0:	854a                	mv	a0,s2
20012bb2:	ecaff0ef          	jal	ra,2001227c <emov>
20012bb6:	40ba                	lw	ra,140(sp)
20012bb8:	442a                	lw	s0,136(sp)
20012bba:	449a                	lw	s1,132(sp)
20012bbc:	490a                	lw	s2,128(sp)
20012bbe:	59f6                	lw	s3,124(sp)
20012bc0:	5a66                	lw	s4,120(sp)
20012bc2:	5ad6                	lw	s5,116(sp)
20012bc4:	5b46                	lw	s6,112(sp)
20012bc6:	5bb6                	lw	s7,108(sp)
20012bc8:	5c26                	lw	s8,104(sp)
20012bca:	6149                	addi	sp,sp,144
20012bcc:	8082                	ret
20012bce:	8522                	mv	a0,s0
20012bd0:	38e1                	jal	200124a8 <eisnan>
20012bd2:	c501                	beqz	a0,20012bda <emul+0x4e>
20012bd4:	85a6                	mv	a1,s1
20012bd6:	8522                	mv	a0,s0
20012bd8:	bfe9                	j	20012bb2 <emul+0x26>
20012bda:	854a                	mv	a0,s2
20012bdc:	3491                	jal	20012620 <eisinf>
20012bde:	ed15                	bnez	a0,20012c1a <emul+0x8e>
20012be0:	8522                	mv	a0,s0
20012be2:	3c3d                	jal	20012620 <eisinf>
20012be4:	c901                	beqz	a0,20012bf4 <emul+0x68>
20012be6:	0000b597          	auipc	a1,0xb
20012bea:	1e658593          	addi	a1,a1,486 # 2001ddcc <ezero>
20012bee:	854a                	mv	a0,s2
20012bf0:	3a51                	jal	20012584 <ecmp>
20012bf2:	c91d                	beqz	a0,20012c28 <emul+0x9c>
20012bf4:	854a                	mv	a0,s2
20012bf6:	342d                	jal	20012620 <eisinf>
20012bf8:	e501                	bnez	a0,20012c00 <emul+0x74>
20012bfa:	8522                	mv	a0,s0
20012bfc:	3415                	jal	20012620 <eisinf>
20012bfe:	c91d                	beqz	a0,20012c34 <emul+0xa8>
20012c00:	854a                	mv	a0,s2
20012c02:	30f1                	jal	200124ce <eisneg>
20012c04:	892a                	mv	s2,a0
20012c06:	8522                	mv	a0,s0
20012c08:	30d9                	jal	200124ce <eisneg>
20012c0a:	02a90263          	beq	s2,a0,20012c2e <emul+0xa2>
20012c0e:	77e1                	lui	a5,0xffff8
20012c10:	00f49923          	sh	a5,18(s1)
20012c14:	8526                	mv	a0,s1
20012c16:	3435                	jal	20012642 <einfin.isra.2>
20012c18:	bf79                	j	20012bb6 <emul+0x2a>
20012c1a:	0000b597          	auipc	a1,0xb
20012c1e:	1b258593          	addi	a1,a1,434 # 2001ddcc <ezero>
20012c22:	8522                	mv	a0,s0
20012c24:	3285                	jal	20012584 <ecmp>
20012c26:	fd4d                	bnez	a0,20012be0 <emul+0x54>
20012c28:	8526                	mv	a0,s1
20012c2a:	3e59                	jal	200127c0 <enan.constprop.12>
20012c2c:	b769                	j	20012bb6 <emul+0x2a>
20012c2e:	00049923          	sh	zero,18(s1)
20012c32:	b7cd                	j	20012c14 <emul+0x88>
20012c34:	006c                	addi	a1,sp,12
20012c36:	854a                	mv	a0,s2
20012c38:	3855                	jal	200124ec <emovi>
20012c3a:	8522                	mv	a0,s0
20012c3c:	102c                	addi	a1,sp,40
20012c3e:	307d                	jal	200124ec <emovi>
20012c40:	00e15983          	lhu	s3,14(sp)
20012c44:	02a15403          	lhu	s0,42(sp)
20012c48:	0a098763          	beqz	s3,20012cf6 <emul+0x16a>
20012c4c:	02a15783          	lhu	a5,42(sp)
20012c50:	8b22                	mv	s6,s0
20012c52:	cbd5                	beqz	a5,20012d06 <emul+0x17a>
20012c54:	57a2                	lw	a5,40(sp)
20012c56:	034a0913          	addi	s2,s4,52
20012c5a:	04ea0b93          	addi	s7,s4,78
20012c5e:	02fa2a23          	sw	a5,52(s4)
20012c62:	038a0793          	addi	a5,s4,56
20012c66:	00079023          	sh	zero,0(a5) # ffff8000 <metal_segment_heap_target_end+0x7fff4000>
20012c6a:	0789                	addi	a5,a5,2
20012c6c:	ff779de3          	bne	a5,s7,20012c66 <emul+0xda>
20012c70:	0060                	addi	s0,sp,12
20012c72:	ff810c13          	addi	s8,sp,-8
20012c76:	4a81                	li	s5,0
20012c78:	01845503          	lhu	a0,24(s0)
20012c7c:	c909                	beqz	a0,20012c8e <emul+0x102>
20012c7e:	102c                	addi	a1,sp,40
20012c80:	00d0                	addi	a2,sp,68
20012c82:	fb2ff0ef          	jal	ra,20012434 <m16m>
20012c86:	85ca                	mv	a1,s2
20012c88:	00c8                	addi	a0,sp,68
20012c8a:	f5aff0ef          	jal	ra,200123e4 <eaddm>
20012c8e:	04ca5783          	lhu	a5,76(s4)
20012c92:	854a                	mv	a0,s2
20012c94:	1479                	addi	s0,s0,-2
20012c96:	00faeab3          	or	s5,s5,a5
20012c9a:	f2eff0ef          	jal	ra,200123c8 <eshdn6>
20012c9e:	fc8c1de3          	bne	s8,s0,20012c78 <emul+0xec>
20012ca2:	85ca                	mv	a1,s2
20012ca4:	103c                	addi	a5,sp,40
20012ca6:	0005d703          	lhu	a4,0(a1)
20012caa:	0589                	addi	a1,a1,2
20012cac:	0789                	addi	a5,a5,2
20012cae:	fee79f23          	sh	a4,-2(a5)
20012cb2:	ff759ae3          	bne	a1,s7,20012ca6 <emul+0x11a>
20012cb6:	76f1                	lui	a3,0xffffc
20012cb8:	99da                	add	s3,s3,s6
20012cba:	0689                	addi	a3,a3,2
20012cbc:	87d2                	mv	a5,s4
20012cbe:	04000713          	li	a4,64
20012cc2:	96ce                	add	a3,a3,s3
20012cc4:	4601                	li	a2,0
20012cc6:	85d6                	mv	a1,s5
20012cc8:	1028                	addi	a0,sp,40
20012cca:	3119                	jal	200128d0 <emdnorm>
20012ccc:	00c15703          	lhu	a4,12(sp)
20012cd0:	02815783          	lhu	a5,40(sp)
20012cd4:	04f71663          	bne	a4,a5,20012d20 <emul+0x194>
20012cd8:	02011423          	sh	zero,40(sp)
20012cdc:	85a6                	mv	a1,s1
20012cde:	1028                	addi	a0,sp,40
20012ce0:	3ce5                	jal	200127d8 <emovo.isra.6>
20012ce2:	bdd1                	j	20012bb6 <emul+0x2a>
20012ce4:	0789                	addi	a5,a5,2
20012ce6:	0027d683          	lhu	a3,2(a5)
20012cea:	ca81                	beqz	a3,20012cfa <emul+0x16e>
20012cec:	0068                	addi	a0,sp,12
20012cee:	3499                	jal	20012734 <enormlz>
20012cf0:	40a009b3          	neg	s3,a0
20012cf4:	bfa1                	j	20012c4c <emul+0xc0>
20012cf6:	007c                	addi	a5,sp,12
20012cf8:	1018                	addi	a4,sp,32
20012cfa:	fee795e3          	bne	a5,a4,20012ce4 <emul+0x158>
20012cfe:	8526                	mv	a0,s1
20012d00:	d6cff0ef          	jal	ra,2001226c <eclear>
20012d04:	bd4d                	j	20012bb6 <emul+0x2a>
20012d06:	103c                	addi	a5,sp,40
20012d08:	1878                	addi	a4,sp,60
20012d0a:	fee78ae3          	beq	a5,a4,20012cfe <emul+0x172>
20012d0e:	0789                	addi	a5,a5,2
20012d10:	0027d683          	lhu	a3,2(a5)
20012d14:	dafd                	beqz	a3,20012d0a <emul+0x17e>
20012d16:	1028                	addi	a0,sp,40
20012d18:	3c31                	jal	20012734 <enormlz>
20012d1a:	40a40b33          	sub	s6,s0,a0
20012d1e:	bf1d                	j	20012c54 <emul+0xc8>
20012d20:	57fd                	li	a5,-1
20012d22:	02f11423          	sh	a5,40(sp)
20012d26:	bf5d                	j	20012cdc <emul+0x150>

20012d28 <ediv>:
20012d28:	7175                	addi	sp,sp,-144
20012d2a:	c522                	sw	s0,136(sp)
20012d2c:	c326                	sw	s1,132(sp)
20012d2e:	c14a                	sw	s2,128(sp)
20012d30:	dad6                	sw	s5,116(sp)
20012d32:	c706                	sw	ra,140(sp)
20012d34:	dece                	sw	s3,124(sp)
20012d36:	dcd2                	sw	s4,120(sp)
20012d38:	d8da                	sw	s6,112(sp)
20012d3a:	d6de                	sw	s7,108(sp)
20012d3c:	d4e2                	sw	s8,104(sp)
20012d3e:	d2e6                	sw	s9,100(sp)
20012d40:	892a                	mv	s2,a0
20012d42:	842e                	mv	s0,a1
20012d44:	84b2                	mv	s1,a2
20012d46:	8ab6                	mv	s5,a3
20012d48:	f60ff0ef          	jal	ra,200124a8 <eisnan>
20012d4c:	c115                	beqz	a0,20012d70 <ediv+0x48>
20012d4e:	85a6                	mv	a1,s1
20012d50:	854a                	mv	a0,s2
20012d52:	d2aff0ef          	jal	ra,2001227c <emov>
20012d56:	40ba                	lw	ra,140(sp)
20012d58:	442a                	lw	s0,136(sp)
20012d5a:	449a                	lw	s1,132(sp)
20012d5c:	490a                	lw	s2,128(sp)
20012d5e:	59f6                	lw	s3,124(sp)
20012d60:	5a66                	lw	s4,120(sp)
20012d62:	5ad6                	lw	s5,116(sp)
20012d64:	5b46                	lw	s6,112(sp)
20012d66:	5bb6                	lw	s7,108(sp)
20012d68:	5c26                	lw	s8,104(sp)
20012d6a:	5c96                	lw	s9,100(sp)
20012d6c:	6149                	addi	sp,sp,144
20012d6e:	8082                	ret
20012d70:	8522                	mv	a0,s0
20012d72:	f36ff0ef          	jal	ra,200124a8 <eisnan>
20012d76:	c501                	beqz	a0,20012d7e <ediv+0x56>
20012d78:	85a6                	mv	a1,s1
20012d7a:	8522                	mv	a0,s0
20012d7c:	bfd9                	j	20012d52 <ediv+0x2a>
20012d7e:	0000b597          	auipc	a1,0xb
20012d82:	04e58593          	addi	a1,a1,78 # 2001ddcc <ezero>
20012d86:	854a                	mv	a0,s2
20012d88:	ffcff0ef          	jal	ra,20012584 <ecmp>
20012d8c:	c905                	beqz	a0,20012dbc <ediv+0x94>
20012d8e:	854a                	mv	a0,s2
20012d90:	3841                	jal	20012620 <eisinf>
20012d92:	89aa                	mv	s3,a0
20012d94:	8522                	mv	a0,s0
20012d96:	3069                	jal	20012620 <eisinf>
20012d98:	02099d63          	bnez	s3,20012dd2 <ediv+0xaa>
20012d9c:	c121                	beqz	a0,20012ddc <ediv+0xb4>
20012d9e:	854a                	mv	a0,s2
20012da0:	f2eff0ef          	jal	ra,200124ce <eisneg>
20012da4:	892a                	mv	s2,a0
20012da6:	8522                	mv	a0,s0
20012da8:	f26ff0ef          	jal	ra,200124ce <eisneg>
20012dac:	18a90063          	beq	s2,a0,20012f2c <ediv+0x204>
20012db0:	77e1                	lui	a5,0xffff8
20012db2:	00f49923          	sh	a5,18(s1)
20012db6:	8526                	mv	a0,s1
20012db8:	3069                	jal	20012642 <einfin.isra.2>
20012dba:	bf71                	j	20012d56 <ediv+0x2e>
20012dbc:	0000b597          	auipc	a1,0xb
20012dc0:	01058593          	addi	a1,a1,16 # 2001ddcc <ezero>
20012dc4:	8522                	mv	a0,s0
20012dc6:	fbeff0ef          	jal	ra,20012584 <ecmp>
20012dca:	f171                	bnez	a0,20012d8e <ediv+0x66>
20012dcc:	8526                	mv	a0,s1
20012dce:	3acd                	jal	200127c0 <enan.constprop.12>
20012dd0:	b759                	j	20012d56 <ediv+0x2e>
20012dd2:	fd6d                	bnez	a0,20012dcc <ediv+0xa4>
20012dd4:	8526                	mv	a0,s1
20012dd6:	c96ff0ef          	jal	ra,2001226c <eclear>
20012dda:	bfb5                	j	20012d56 <ediv+0x2e>
20012ddc:	854a                	mv	a0,s2
20012dde:	006c                	addi	a1,sp,12
20012de0:	f0cff0ef          	jal	ra,200124ec <emovi>
20012de4:	8522                	mv	a0,s0
20012de6:	102c                	addi	a1,sp,40
20012de8:	f04ff0ef          	jal	ra,200124ec <emovi>
20012dec:	02a15903          	lhu	s2,42(sp)
20012df0:	00e15403          	lhu	s0,14(sp)
20012df4:	0e090c63          	beqz	s2,20012eec <ediv+0x1c4>
20012df8:	00e15783          	lhu	a5,14(sp)
20012dfc:	8ba2                	mv	s7,s0
20012dfe:	10078d63          	beqz	a5,20012f18 <ediv+0x1f0>
20012e02:	5722                	lw	a4,40(sp)
20012e04:	038a8793          	addi	a5,s5,56
20012e08:	04ea8b13          	addi	s6,s5,78
20012e0c:	02eaaa23          	sw	a4,52(s5)
20012e10:	89be                	mv	s3,a5
20012e12:	0789                	addi	a5,a5,2
20012e14:	fe079f23          	sh	zero,-2(a5) # ffff7ffe <metal_segment_heap_target_end+0x7fff3ffe>
20012e18:	ff679de3          	bne	a5,s6,20012e12 <ediv+0xea>
20012e1c:	1028                	addi	a0,sp,40
20012e1e:	cd6ff0ef          	jal	ra,200122f4 <eshdn1>
20012e22:	01215c03          	lhu	s8,18(sp)
20012e26:	6a41                	lui	s4,0x10
20012e28:	1a7d                	addi	s4,s4,-1
20012e2a:	034c0cb3          	mul	s9,s8,s4
20012e2e:	02c15783          	lhu	a5,44(sp)
20012e32:	02e15403          	lhu	s0,46(sp)
20012e36:	07c2                	slli	a5,a5,0x10
20012e38:	97a2                	add	a5,a5,s0
20012e3a:	8452                	mv	s0,s4
20012e3c:	00fce663          	bltu	s9,a5,20012e48 <ediv+0x120>
20012e40:	0387d433          	divu	s0,a5,s8
20012e44:	0442                	slli	s0,s0,0x10
20012e46:	8041                	srli	s0,s0,0x10
20012e48:	006c                	addi	a1,sp,12
20012e4a:	8522                	mv	a0,s0
20012e4c:	00d0                	addi	a2,sp,68
20012e4e:	de6ff0ef          	jal	ra,20012434 <m16m>
20012e52:	102c                	addi	a1,sp,40
20012e54:	00c8                	addi	a0,sp,68
20012e56:	c72ff0ef          	jal	ra,200122c8 <ecmpm>
20012e5a:	00a05f63          	blez	a0,20012e78 <ediv+0x150>
20012e5e:	00cc                	addi	a1,sp,68
20012e60:	0068                	addi	a0,sp,12
20012e62:	daaff0ef          	jal	ra,2001240c <esubm>
20012e66:	102c                	addi	a1,sp,40
20012e68:	00c8                	addi	a0,sp,68
20012e6a:	c5eff0ef          	jal	ra,200122c8 <ecmpm>
20012e6e:	0ca04263          	bgtz	a0,20012f32 <ediv+0x20a>
20012e72:	147d                	addi	s0,s0,-1
20012e74:	0442                	slli	s0,s0,0x10
20012e76:	8041                	srli	s0,s0,0x10
20012e78:	102c                	addi	a1,sp,40
20012e7a:	00c8                	addi	a0,sp,68
20012e7c:	d90ff0ef          	jal	ra,2001240c <esubm>
20012e80:	1028                	addi	a0,sp,40
20012e82:	00899023          	sh	s0,0(s3)
20012e86:	0989                	addi	s3,s3,2
20012e88:	d24ff0ef          	jal	ra,200123ac <eshup6>
20012e8c:	fb3b11e3          	bne	s6,s3,20012e2e <ediv+0x106>
20012e90:	1038                	addi	a4,sp,40
20012e92:	03e10693          	addi	a3,sp,62
20012e96:	87ba                	mv	a5,a4
20012e98:	4581                	li	a1,0
20012e9a:	0047d603          	lhu	a2,4(a5)
20012e9e:	0789                	addi	a5,a5,2
20012ea0:	8dd1                	or	a1,a1,a2
20012ea2:	fef69ce3          	bne	a3,a5,20012e9a <ediv+0x172>
20012ea6:	00b035b3          	snez	a1,a1
20012eaa:	034a8793          	addi	a5,s5,52
20012eae:	0007d683          	lhu	a3,0(a5)
20012eb2:	0789                	addi	a5,a5,2
20012eb4:	0709                	addi	a4,a4,2
20012eb6:	fed71f23          	sh	a3,-2(a4)
20012eba:	fefb1ae3          	bne	s6,a5,20012eae <ediv+0x186>
20012ebe:	6691                	lui	a3,0x4
20012ec0:	41790933          	sub	s2,s2,s7
20012ec4:	16fd                	addi	a3,a3,-1
20012ec6:	87d6                	mv	a5,s5
20012ec8:	04000713          	li	a4,64
20012ecc:	96ca                	add	a3,a3,s2
20012ece:	4601                	li	a2,0
20012ed0:	1028                	addi	a0,sp,40
20012ed2:	3afd                	jal	200128d0 <emdnorm>
20012ed4:	00c15703          	lhu	a4,12(sp)
20012ed8:	02815783          	lhu	a5,40(sp)
20012edc:	06f71363          	bne	a4,a5,20012f42 <ediv+0x21a>
20012ee0:	02011423          	sh	zero,40(sp)
20012ee4:	85a6                	mv	a1,s1
20012ee6:	1028                	addi	a0,sp,40
20012ee8:	38c5                	jal	200127d8 <emovo.isra.6>
20012eea:	b5b5                	j	20012d56 <ediv+0x2e>
20012eec:	103c                	addi	a5,sp,40
20012eee:	1878                	addi	a4,sp,60
20012ef0:	eee782e3          	beq	a5,a4,20012dd4 <ediv+0xac>
20012ef4:	0789                	addi	a5,a5,2
20012ef6:	0027d683          	lhu	a3,2(a5)
20012efa:	dafd                	beqz	a3,20012ef0 <ediv+0x1c8>
20012efc:	1028                	addi	a0,sp,40
20012efe:	381d                	jal	20012734 <enormlz>
20012f00:	40a00933          	neg	s2,a0
20012f04:	bdd5                	j	20012df8 <ediv+0xd0>
20012f06:	0789                	addi	a5,a5,2
20012f08:	0027d683          	lhu	a3,2(a5)
20012f0c:	ca81                	beqz	a3,20012f1c <ediv+0x1f4>
20012f0e:	0068                	addi	a0,sp,12
20012f10:	3015                	jal	20012734 <enormlz>
20012f12:	40a40bb3          	sub	s7,s0,a0
20012f16:	b5f5                	j	20012e02 <ediv+0xda>
20012f18:	007c                	addi	a5,sp,12
20012f1a:	1018                	addi	a4,sp,32
20012f1c:	fee795e3          	bne	a5,a4,20012f06 <ediv+0x1de>
20012f20:	00c15703          	lhu	a4,12(sp)
20012f24:	02815783          	lhu	a5,40(sp)
20012f28:	e8f714e3          	bne	a4,a5,20012db0 <ediv+0x88>
20012f2c:	00049923          	sh	zero,18(s1)
20012f30:	b559                	j	20012db6 <ediv+0x8e>
20012f32:	1479                	addi	s0,s0,-2
20012f34:	0442                	slli	s0,s0,0x10
20012f36:	00cc                	addi	a1,sp,68
20012f38:	0068                	addi	a0,sp,12
20012f3a:	8041                	srli	s0,s0,0x10
20012f3c:	cd0ff0ef          	jal	ra,2001240c <esubm>
20012f40:	bf25                	j	20012e78 <ediv+0x150>
20012f42:	57fd                	li	a5,-1
20012f44:	02f11423          	sh	a5,40(sp)
20012f48:	bf71                	j	20012ee4 <ediv+0x1bc>

20012f4a <_ldtoa_r>:
20012f4a:	0005ae03          	lw	t3,0(a1)
20012f4e:	0045a303          	lw	t1,4(a1)
20012f52:	0085a883          	lw	a7,8(a1)
20012f56:	45cc                	lw	a1,12(a1)
20012f58:	7105                	addi	sp,sp,-480
20012f5a:	1c812c23          	sw	s0,472(sp)
20012f5e:	d62e                	sw	a1,44(sp)
20012f60:	843e                	mv	s0,a5
20012f62:	412c                	lw	a1,64(a0)
20012f64:	57fd                	li	a5,-1
20012f66:	14f12823          	sw	a5,336(sp)
20012f6a:	09000793          	li	a5,144
20012f6e:	1d212823          	sw	s2,464(sp)
20012f72:	1d512223          	sw	s5,452(sp)
20012f76:	1b812c23          	sw	s8,440(sp)
20012f7a:	1b912a23          	sw	s9,436(sp)
20012f7e:	1c112e23          	sw	ra,476(sp)
20012f82:	1c912a23          	sw	s1,468(sp)
20012f86:	1d312623          	sw	s3,460(sp)
20012f8a:	1d412423          	sw	s4,456(sp)
20012f8e:	1d612023          	sw	s6,448(sp)
20012f92:	1b712e23          	sw	s7,444(sp)
20012f96:	1ba12823          	sw	s10,432(sp)
20012f9a:	1bb12623          	sw	s11,428(sp)
20012f9e:	c842                	sw	a6,16(sp)
20012fa0:	d072                	sw	t3,32(sp)
20012fa2:	d21a                	sw	t1,36(sp)
20012fa4:	d446                	sw	a7,40(sp)
20012fa6:	14f12a23          	sw	a5,340(sp)
20012faa:	892a                	mv	s2,a0
20012fac:	8ab2                	mv	s5,a2
20012fae:	8c36                	mv	s8,a3
20012fb0:	8cba                	mv	s9,a4
20012fb2:	c999                	beqz	a1,20012fc8 <_ldtoa_r+0x7e>
20012fb4:	417c                	lw	a5,68(a0)
20012fb6:	4705                	li	a4,1
20012fb8:	00f71733          	sll	a4,a4,a5
20012fbc:	c1dc                	sw	a5,4(a1)
20012fbe:	c598                	sw	a4,8(a1)
20012fc0:	134010ef          	jal	ra,200140f4 <_Bfree>
20012fc4:	04092023          	sw	zero,64(s2)
20012fc8:	1008                	addi	a0,sp,32
20012fca:	088c                	addi	a1,sp,80
20012fcc:	38a9                	jal	20012826 <e113toe.isra.8>
20012fce:	0888                	addi	a0,sp,80
20012fd0:	cfeff0ef          	jal	ra,200124ce <eisneg>
20012fd4:	14050263          	beqz	a0,20013118 <_ldtoa_r+0x1ce>
20012fd8:	4785                	li	a5,1
20012fda:	c01c                	sw	a5,0(s0)
20012fdc:	478d                	li	a5,3
20012fde:	14fa8063          	beq	s5,a5,2001311e <_ldtoa_r+0x1d4>
20012fe2:	44d1                	li	s1,20
20012fe4:	000a8a63          	beqz	s5,20012ff8 <_ldtoa_r+0xae>
20012fe8:	fffc0493          	addi	s1,s8,-1
20012fec:	02a00793          	li	a5,42
20012ff0:	0097d463          	bge	a5,s1,20012ff8 <_ldtoa_r+0xae>
20012ff4:	02a00493          	li	s1,42
20012ff8:	15412783          	lw	a5,340(sp)
20012ffc:	0888                	addi	a0,sp,80
20012ffe:	ca3e                	sw	a5,20(sp)
20013000:	ca8ff0ef          	jal	ra,200124a8 <eisnan>
20013004:	8b2a                	mv	s6,a0
20013006:	0000b597          	auipc	a1,0xb
2001300a:	01a58593          	addi	a1,a1,26 # 2001e020 <emtens+0x104>
2001300e:	7a051d63          	bnez	a0,200137c8 <_ldtoa_r+0x87e>
20013012:	09000793          	li	a5,144
20013016:	10ec                	addi	a1,sp,108
20013018:	0888                	addi	a0,sp,80
2001301a:	14f12a23          	sw	a5,340(sp)
2001301e:	a5eff0ef          	jal	ra,2001227c <emov>
20013022:	07e15783          	lhu	a5,126(sp)
20013026:	c402                	sw	zero,8(sp)
20013028:	01079713          	slli	a4,a5,0x10
2001302c:	8741                	srai	a4,a4,0x10
2001302e:	00075963          	bgez	a4,20013040 <_ldtoa_r+0xf6>
20013032:	07c6                	slli	a5,a5,0x11
20013034:	83c5                	srli	a5,a5,0x11
20013036:	06f11f23          	sh	a5,126(sp)
2001303a:	67c1                	lui	a5,0x10
2001303c:	17fd                	addi	a5,a5,-1
2001303e:	c43e                	sw	a5,8(sp)
20013040:	012c                	addi	a1,sp,136
20013042:	0000b517          	auipc	a0,0xb
20013046:	ea250513          	addi	a0,a0,-350 # 2001dee4 <eone>
2001304a:	a32ff0ef          	jal	ra,2001227c <emov>
2001304e:	07e15703          	lhu	a4,126(sp)
20013052:	74071d63          	bnez	a4,200137ac <_ldtoa_r+0x862>
20013056:	10fc                	addi	a5,sp,108
20013058:	07e10713          	addi	a4,sp,126
2001305c:	0007d683          	lhu	a3,0(a5) # 10000 <__heap_size+0xfc00>
20013060:	eae9                	bnez	a3,20013132 <_ldtoa_r+0x1e8>
20013062:	0789                	addi	a5,a5,2
20013064:	fef71ce3          	bne	a4,a5,2001305c <_ldtoa_r+0x112>
20013068:	4401                	li	s0,0
2001306a:	018c                	addi	a1,sp,192
2001306c:	0128                	addi	a0,sp,136
2001306e:	c7eff0ef          	jal	ra,200124ec <emovi>
20013072:	012c                	addi	a1,sp,136
20013074:	0188                	addi	a0,sp,192
20013076:	a32ff0ef          	jal	ra,200122a8 <emovz>
2001307a:	018c                	addi	a1,sp,192
2001307c:	10e8                	addi	a0,sp,108
2001307e:	c6eff0ef          	jal	ra,200124ec <emovi>
20013082:	10ec                	addi	a1,sp,108
20013084:	0188                	addi	a0,sp,192
20013086:	a22ff0ef          	jal	ra,200122a8 <emovz>
2001308a:	0a90                	addi	a2,sp,336
2001308c:	10ec                	addi	a1,sp,108
2001308e:	0128                	addi	a0,sp,136
20013090:	3c85                	jal	20012b00 <eiremain>
20013092:	19c15983          	lhu	s3,412(sp)
20013096:	0000ba17          	auipc	s4,0xb
2001309a:	d36a0a13          	addi	s4,s4,-714 # 2001ddcc <ezero>
2001309e:	00099863          	bnez	s3,200130ae <_ldtoa_r+0x164>
200130a2:	85d2                	mv	a1,s4
200130a4:	10e8                	addi	a0,sp,108
200130a6:	cdeff0ef          	jal	ra,20012584 <ecmp>
200130aa:	4c051563          	bnez	a0,20013574 <_ldtoa_r+0x62a>
200130ae:	47a2                	lw	a5,8(sp)
200130b0:	4e078c63          	beqz	a5,200135a8 <_ldtoa_r+0x65e>
200130b4:	02d00793          	li	a5,45
200130b8:	10f10a23          	sb	a5,276(sp)
200130bc:	478d                	li	a5,3
200130be:	8a26                	mv	s4,s1
200130c0:	00fa9a63          	bne	s5,a5,200130d4 <_ldtoa_r+0x18a>
200130c4:	00848a33          	add	s4,s1,s0
200130c8:	02a00793          	li	a5,42
200130cc:	0147d463          	bge	a5,s4,200130d4 <_ldtoa_r+0x18a>
200130d0:	02a00a13          	li	s4,42
200130d4:	47a9                	li	a5,10
200130d6:	4cf99c63          	bne	s3,a5,200135ae <_ldtoa_r+0x664>
200130da:	03100793          	li	a5,49
200130de:	10f10aa3          	sb	a5,277(sp)
200130e2:	02e00793          	li	a5,46
200130e6:	10f10b23          	sb	a5,278(sp)
200130ea:	11710993          	addi	s3,sp,279
200130ee:	01405963          	blez	s4,20013100 <_ldtoa_r+0x1b6>
200130f2:	03000793          	li	a5,48
200130f6:	10f10ba3          	sb	a5,279(sp)
200130fa:	1a7d                	addi	s4,s4,-1
200130fc:	11810993          	addi	s3,sp,280
20013100:	0405                	addi	s0,s0,1
20013102:	4c0a5063          	bgez	s4,200135c2 <_ldtoa_r+0x678>
20013106:	8622                	mv	a2,s0
20013108:	0000b597          	auipc	a1,0xb
2001310c:	f3c58593          	addi	a1,a1,-196 # 2001e044 <emtens+0x128>
20013110:	854e                	mv	a0,s3
20013112:	19b010ef          	jal	ra,20014aac <sprintf>
20013116:	ad7d                	j	200137d4 <_ldtoa_r+0x88a>
20013118:	00042023          	sw	zero,0(s0)
2001311c:	b5c1                	j	20012fdc <_ldtoa_r+0x92>
2001311e:	84e2                	mv	s1,s8
20013120:	b5f1                	j	20012fec <_ldtoa_r+0xa2>
20013122:	07c11783          	lh	a5,124(sp)
20013126:	0000b597          	auipc	a1,0xb
2001312a:	f1a58593          	addi	a1,a1,-230 # 2001e040 <emtens+0x124>
2001312e:	6807dd63          	bgez	a5,200137c8 <_ldtoa_r+0x87e>
20013132:	10ec                	addi	a1,sp,108
20013134:	0000b517          	auipc	a0,0xb
20013138:	db050513          	addi	a0,a0,-592 # 2001dee4 <eone>
2001313c:	c48ff0ef          	jal	ra,20012584 <ecmp>
20013140:	d505                	beqz	a0,20013068 <_ldtoa_r+0x11e>
20013142:	30055163          	bgez	a0,20013444 <_ldtoa_r+0x4fa>
20013146:	114c                	addi	a1,sp,164
20013148:	10e8                	addi	a0,sp,108
2001314a:	932ff0ef          	jal	ra,2001227c <emov>
2001314e:	6791                	lui	a5,0x4
20013150:	08e78793          	addi	a5,a5,142 # 408e <__heap_size+0x3c8e>
20013154:	0af11b23          	sh	a5,182(sp)
20013158:	47c1                	li	a5,16
2001315a:	c63e                	sw	a5,12(sp)
2001315c:	67a1                	lui	a5,0x8
2001315e:	17fd                	addi	a5,a5,-1
20013160:	cc3e                	sw	a5,24(sp)
20013162:	77f1                	lui	a5,0xffffc
20013164:	0789                	addi	a5,a5,2
20013166:	4401                	li	s0,0
20013168:	0000bb97          	auipc	s7,0xb
2001316c:	d18b8b93          	addi	s7,s7,-744 # 2001de80 <etens+0xa0>
20013170:	ce3e                	sw	a5,28(sp)
20013172:	0000b997          	auipc	s3,0xb
20013176:	d7298993          	addi	s3,s3,-654 # 2001dee4 <eone>
2001317a:	0a94                	addi	a3,sp,336
2001317c:	0130                	addi	a2,sp,136
2001317e:	114c                	addi	a1,sp,164
20013180:	855e                	mv	a0,s7
20013182:	365d                	jal	20012d28 <ediv>
20013184:	186c                	addi	a1,sp,60
20013186:	0128                	addi	a0,sp,136
20013188:	8f4ff0ef          	jal	ra,2001227c <emov>
2001318c:	47e2                	lw	a5,24(sp)
2001318e:	04e15a03          	lhu	s4,78(sp)
20013192:	00fa7d33          	and	s10,s4,a5
20013196:	47f2                	lw	a5,28(sp)
20013198:	9d3e                	add	s10,s10,a5
2001319a:	03a04e63          	bgtz	s10,200131d6 <_ldtoa_r+0x28c>
2001319e:	0188                	addi	a0,sp,192
200131a0:	8ccff0ef          	jal	ra,2001226c <eclear>
200131a4:	0a42                	slli	s4,s4,0x10
200131a6:	410a5a13          	srai	s4,s4,0x10
200131aa:	0c0a5063          	bgez	s4,2001326a <_ldtoa_r+0x320>
200131ae:	4781                	li	a5,0
200131b0:	1878                	addi	a4,sp,60
200131b2:	973e                	add	a4,a4,a5
200131b4:	00075683          	lhu	a3,0(a4)
200131b8:	0198                	addi	a4,sp,192
200131ba:	973e                	add	a4,a4,a5
200131bc:	00075703          	lhu	a4,0(a4)
200131c0:	26e68d63          	beq	a3,a4,2001343a <_ldtoa_r+0x4f0>
200131c4:	854e                	mv	a0,s3
200131c6:	ae2ff0ef          	jal	ra,200124a8 <eisnan>
200131ca:	c135                	beqz	a0,2001322e <_ldtoa_r+0x2e4>
200131cc:	018c                	addi	a1,sp,192
200131ce:	854e                	mv	a0,s3
200131d0:	8acff0ef          	jal	ra,2001227c <emov>
200131d4:	a859                	j	2001326a <_ldtoa_r+0x320>
200131d6:	09000793          	li	a5,144
200131da:	41a78d33          	sub	s10,a5,s10
200131de:	018c                	addi	a1,sp,192
200131e0:	1868                	addi	a0,sp,60
200131e2:	89aff0ef          	jal	ra,2001227c <emov>
200131e6:	09a05263          	blez	s10,2001326a <_ldtoa_r+0x320>
200131ea:	0198                	addi	a4,sp,192
200131ec:	87ea                	mv	a5,s10
200131ee:	46bd                	li	a3,15
200131f0:	02f6ca63          	blt	a3,a5,20013224 <_ldtoa_r+0x2da>
200131f4:	004d5793          	srli	a5,s10,0x4
200131f8:	00179713          	slli	a4,a5,0x1
200131fc:	0194                	addi	a3,sp,192
200131fe:	9736                	add	a4,a4,a3
20013200:	56c1                	li	a3,-16
20013202:	02d787b3          	mul	a5,a5,a3
20013206:	0000b697          	auipc	a3,0xb
2001320a:	bc668693          	addi	a3,a3,-1082 # 2001ddcc <ezero>
2001320e:	97ea                	add	a5,a5,s10
20013210:	0786                	slli	a5,a5,0x1
20013212:	97b6                	add	a5,a5,a3
20013214:	12c7d783          	lhu	a5,300(a5) # ffffc12c <metal_segment_heap_target_end+0x7fff812c>
20013218:	00075683          	lhu	a3,0(a4)
2001321c:	8ff5                	and	a5,a5,a3
2001321e:	00f71023          	sh	a5,0(a4)
20013222:	b749                	j	200131a4 <_ldtoa_r+0x25a>
20013224:	00071023          	sh	zero,0(a4)
20013228:	17c1                	addi	a5,a5,-16
2001322a:	0709                	addi	a4,a4,2
2001322c:	b7d1                	j	200131f0 <_ldtoa_r+0x2a6>
2001322e:	0188                	addi	a0,sp,192
20013230:	a78ff0ef          	jal	ra,200124a8 <eisnan>
20013234:	c501                	beqz	a0,2001323c <_ldtoa_r+0x2f2>
20013236:	018c                	addi	a1,sp,192
20013238:	852e                	mv	a0,a1
2001323a:	bf59                	j	200131d0 <_ldtoa_r+0x286>
2001323c:	854e                	mv	a0,s3
2001323e:	be2ff0ef          	jal	ra,20012620 <eisinf>
20013242:	8a2a                	mv	s4,a0
20013244:	0188                	addi	a0,sp,192
20013246:	bdaff0ef          	jal	ra,20012620 <eisinf>
2001324a:	8d2a                	mv	s10,a0
2001324c:	0e0a0263          	beqz	s4,20013330 <_ldtoa_r+0x3e6>
20013250:	c169                	beqz	a0,20013312 <_ldtoa_r+0x3c8>
20013252:	854e                	mv	a0,s3
20013254:	a7aff0ef          	jal	ra,200124ce <eisneg>
20013258:	8a2a                	mv	s4,a0
2001325a:	0188                	addi	a0,sp,192
2001325c:	a72ff0ef          	jal	ra,200124ce <eisneg>
20013260:	0aaa1963          	bne	s4,a0,20013312 <_ldtoa_r+0x3c8>
20013264:	0188                	addi	a0,sp,192
20013266:	d5aff0ef          	jal	ra,200127c0 <enan.constprop.12>
2001326a:	4781                	li	a5,0
2001326c:	0138                	addi	a4,sp,136
2001326e:	973e                	add	a4,a4,a5
20013270:	00075683          	lhu	a3,0(a4)
20013274:	0198                	addi	a4,sp,192
20013276:	973e                	add	a4,a4,a5
20013278:	00075703          	lhu	a4,0(a4)
2001327c:	00e69c63          	bne	a3,a4,20013294 <_ldtoa_r+0x34a>
20013280:	0789                	addi	a5,a5,2
20013282:	4749                	li	a4,18
20013284:	fee794e3          	bne	a5,a4,2001326c <_ldtoa_r+0x322>
20013288:	114c                	addi	a1,sp,164
2001328a:	0128                	addi	a0,sp,136
2001328c:	ff1fe0ef          	jal	ra,2001227c <emov>
20013290:	47b2                	lw	a5,12(sp)
20013292:	943e                	add	s0,s0,a5
20013294:	47b2                	lw	a5,12(sp)
20013296:	0bd1                	addi	s7,s7,20
20013298:	8385                	srli	a5,a5,0x1
2001329a:	c63e                	sw	a5,12(sp)
2001329c:	ed3b9fe3          	bne	s7,s3,2001317a <_ldtoa_r+0x230>
200132a0:	0b615783          	lhu	a5,182(sp)
200132a4:	07e15703          	lhu	a4,126(sp)
200132a8:	10ec                	addi	a1,sp,108
200132aa:	1148                	addi	a0,sp,164
200132ac:	97ba                	add	a5,a5,a4
200132ae:	7771                	lui	a4,0xffffc
200132b0:	f7270713          	addi	a4,a4,-142 # ffffbf72 <metal_segment_heap_target_end+0x7fff7f72>
200132b4:	97ba                	add	a5,a5,a4
200132b6:	0af11b23          	sh	a5,182(sp)
200132ba:	fc3fe0ef          	jal	ra,2001227c <emov>
200132be:	855e                	mv	a0,s7
200132c0:	012c                	addi	a1,sp,136
200132c2:	fbbfe0ef          	jal	ra,2001227c <emov>
200132c6:	6a05                	lui	s4,0x1
200132c8:	0000b997          	auipc	s3,0xb
200132cc:	b1898993          	addi	s3,s3,-1256 # 2001dde0 <etens>
200132d0:	0000bb97          	auipc	s7,0xb
200132d4:	c00b8b93          	addi	s7,s7,-1024 # 2001ded0 <etens+0xf0>
200132d8:	114c                	addi	a1,sp,164
200132da:	855e                	mv	a0,s7
200132dc:	aa8ff0ef          	jal	ra,20012584 <ecmp>
200132e0:	d8a045e3          	bgtz	a0,2001306a <_ldtoa_r+0x120>
200132e4:	114c                	addi	a1,sp,164
200132e6:	854e                	mv	a0,s3
200132e8:	a9cff0ef          	jal	ra,20012584 <ecmp>
200132ec:	00a04d63          	bgtz	a0,20013306 <_ldtoa_r+0x3bc>
200132f0:	1150                	addi	a2,sp,164
200132f2:	85b2                	mv	a1,a2
200132f4:	0a94                	addi	a3,sp,336
200132f6:	854e                	mv	a0,s3
200132f8:	3c05                	jal	20012d28 <ediv>
200132fa:	0130                	addi	a2,sp,136
200132fc:	0a94                	addi	a3,sp,336
200132fe:	85b2                	mv	a1,a2
20013300:	854e                	mv	a0,s3
20013302:	3069                	jal	20012b8c <emul>
20013304:	9452                	add	s0,s0,s4
20013306:	001a5a13          	srli	s4,s4,0x1
2001330a:	d77980e3          	beq	s3,s7,2001306a <_ldtoa_r+0x120>
2001330e:	09d1                	addi	s3,s3,20
20013310:	b7e1                	j	200132d8 <_ldtoa_r+0x38e>
20013312:	854e                	mv	a0,s3
20013314:	018c                	addi	a1,sp,192
20013316:	f67fe0ef          	jal	ra,2001227c <emov>
2001331a:	0188                	addi	a0,sp,192
2001331c:	98cff0ef          	jal	ra,200124a8 <eisnan>
20013320:	f529                	bnez	a0,2001326a <_ldtoa_r+0x320>
20013322:	0d215783          	lhu	a5,210(sp)
20013326:	7761                	lui	a4,0xffff8
20013328:	8fb9                	xor	a5,a5,a4
2001332a:	0cf11923          	sh	a5,210(sp)
2001332e:	bf35                	j	2001326a <_ldtoa_r+0x320>
20013330:	f00513e3          	bnez	a0,20013236 <_ldtoa_r+0x2ec>
20013334:	09ec                	addi	a1,sp,220
20013336:	854e                	mv	a0,s3
20013338:	9b4ff0ef          	jal	ra,200124ec <emovi>
2001333c:	19ac                	addi	a1,sp,248
2001333e:	0188                	addi	a0,sp,192
20013340:	9acff0ef          	jal	ra,200124ec <emovi>
20013344:	0dc15783          	lhu	a5,220(sp)
20013348:	0de15d83          	lhu	s11,222(sp)
2001334c:	0fa15a03          	lhu	s4,250(sp)
20013350:	fff7c793          	not	a5,a5
20013354:	0cf11e23          	sh	a5,220(sp)
20013358:	414d85b3          	sub	a1,s11,s4
2001335c:	02b05263          	blez	a1,20013380 <_ldtoa_r+0x436>
20013360:	0a4c                	addi	a1,sp,276
20013362:	19a8                	addi	a0,sp,248
20013364:	f45fe0ef          	jal	ra,200122a8 <emovz>
20013368:	19ac                	addi	a1,sp,248
2001336a:	09e8                	addi	a0,sp,220
2001336c:	f3dfe0ef          	jal	ra,200122a8 <emovz>
20013370:	09ec                	addi	a1,sp,220
20013372:	0a48                	addi	a0,sp,276
20013374:	f35fe0ef          	jal	ra,200122a8 <emovz>
20013378:	41ba05b3          	sub	a1,s4,s11
2001337c:	0fa15a03          	lhu	s4,250(sp)
20013380:	cd8d                	beqz	a1,200133ba <_ldtoa_r+0x470>
20013382:	f6f00793          	li	a5,-145
20013386:	06f5c363          	blt	a1,a5,200133ec <_ldtoa_r+0x4a2>
2001338a:	09e8                	addi	a0,sp,220
2001338c:	ad6ff0ef          	jal	ra,20012662 <eshift.part.3>
20013390:	8daa                	mv	s11,a0
20013392:	0dc15703          	lhu	a4,220(sp)
20013396:	0f815783          	lhu	a5,248(sp)
2001339a:	19ac                	addi	a1,sp,248
2001339c:	09e8                	addi	a0,sp,220
2001339e:	08f71a63          	bne	a4,a5,20013432 <_ldtoa_r+0x4e8>
200133a2:	842ff0ef          	jal	ra,200123e4 <eaddm>
200133a6:	0a9c                	addi	a5,sp,336
200133a8:	04000713          	li	a4,64
200133ac:	86d2                	mv	a3,s4
200133ae:	866a                	mv	a2,s10
200133b0:	85ee                	mv	a1,s11
200133b2:	19a8                	addi	a0,sp,248
200133b4:	d1cff0ef          	jal	ra,200128d0 <emdnorm>
200133b8:	a815                	j	200133ec <_ldtoa_r+0x4a2>
200133ba:	19ac                	addi	a1,sp,248
200133bc:	09e8                	addi	a0,sp,220
200133be:	f0bfe0ef          	jal	ra,200122c8 <ecmpm>
200133c2:	e921                	bnez	a0,20013412 <_ldtoa_r+0x4c8>
200133c4:	0dc15703          	lhu	a4,220(sp)
200133c8:	0f815783          	lhu	a5,248(sp)
200133cc:	00f70663          	beq	a4,a5,200133d8 <_ldtoa_r+0x48e>
200133d0:	0188                	addi	a0,sp,192
200133d2:	e9bfe0ef          	jal	ra,2001226c <eclear>
200133d6:	bd51                	j	2001326a <_ldtoa_r+0x320>
200133d8:	0fa15783          	lhu	a5,250(sp)
200133dc:	ef89                	bnez	a5,200133f6 <_ldtoa_r+0x4ac>
200133de:	0fe11783          	lh	a5,254(sp)
200133e2:	0007ca63          	bltz	a5,200133f6 <_ldtoa_r+0x4ac>
200133e6:	19a8                	addi	a0,sp,248
200133e8:	f43fe0ef          	jal	ra,2001232a <eshup1>
200133ec:	018c                	addi	a1,sp,192
200133ee:	19a8                	addi	a0,sp,248
200133f0:	be8ff0ef          	jal	ra,200127d8 <emovo.isra.6>
200133f4:	bd9d                	j	2001326a <_ldtoa_r+0x320>
200133f6:	19bc                	addi	a5,sp,248
200133f8:	10e10713          	addi	a4,sp,270
200133fc:	0027d683          	lhu	a3,2(a5)
20013400:	c689                	beqz	a3,2001340a <_ldtoa_r+0x4c0>
20013402:	0a05                	addi	s4,s4,1
20013404:	0f411d23          	sh	s4,250(sp)
20013408:	b7d5                	j	200133ec <_ldtoa_r+0x4a2>
2001340a:	0789                	addi	a5,a5,2
2001340c:	fef718e3          	bne	a4,a5,200133fc <_ldtoa_r+0x4b2>
20013410:	bfd5                	j	20013404 <_ldtoa_r+0x4ba>
20013412:	4d81                	li	s11,0
20013414:	f6a05fe3          	blez	a0,20013392 <_ldtoa_r+0x448>
20013418:	0a4c                	addi	a1,sp,276
2001341a:	19a8                	addi	a0,sp,248
2001341c:	e8dfe0ef          	jal	ra,200122a8 <emovz>
20013420:	19ac                	addi	a1,sp,248
20013422:	09e8                	addi	a0,sp,220
20013424:	e85fe0ef          	jal	ra,200122a8 <emovz>
20013428:	09ec                	addi	a1,sp,220
2001342a:	0a48                	addi	a0,sp,276
2001342c:	e7dfe0ef          	jal	ra,200122a8 <emovz>
20013430:	b78d                	j	20013392 <_ldtoa_r+0x448>
20013432:	fdbfe0ef          	jal	ra,2001240c <esubm>
20013436:	4d05                	li	s10,1
20013438:	b7bd                	j	200133a6 <_ldtoa_r+0x45c>
2001343a:	0789                	addi	a5,a5,2
2001343c:	4749                	li	a4,18
2001343e:	d6e799e3          	bne	a5,a4,200131b0 <_ldtoa_r+0x266>
20013442:	b525                	j	2001326a <_ldtoa_r+0x320>
20013444:	07e15783          	lhu	a5,126(sp)
20013448:	4401                	li	s0,0
2001344a:	0000b997          	auipc	s3,0xb
2001344e:	a8698993          	addi	s3,s3,-1402 # 2001ded0 <etens+0xf0>
20013452:	cfad                	beqz	a5,200134cc <_ldtoa_r+0x582>
20013454:	018c                	addi	a1,sp,192
20013456:	10e8                	addi	a0,sp,108
20013458:	6991                	lui	s3,0x4
2001345a:	892ff0ef          	jal	ra,200124ec <emovi>
2001345e:	19f9                	addi	s3,s3,-2
20013460:	fd500a13          	li	s4,-43
20013464:	0d815783          	lhu	a5,216(sp)
20013468:	8b9d                	andi	a5,a5,7
2001346a:	e7a9                	bnez	a5,200134b4 <_ldtoa_r+0x56a>
2001346c:	114c                	addi	a1,sp,164
2001346e:	0188                	addi	a0,sp,192
20013470:	e39fe0ef          	jal	ra,200122a8 <emovz>
20013474:	1148                	addi	a0,sp,164
20013476:	e7ffe0ef          	jal	ra,200122f4 <eshdn1>
2001347a:	1148                	addi	a0,sp,164
2001347c:	e79fe0ef          	jal	ra,200122f4 <eshdn1>
20013480:	114c                	addi	a1,sp,164
20013482:	0188                	addi	a0,sp,192
20013484:	f61fe0ef          	jal	ra,200123e4 <eaddm>
20013488:	0a615783          	lhu	a5,166(sp)
2001348c:	078d                	addi	a5,a5,3
2001348e:	0af11323          	sh	a5,166(sp)
20013492:	0a815783          	lhu	a5,168(sp)
20013496:	ebe1                	bnez	a5,20013566 <_ldtoa_r+0x61c>
20013498:	0bc15783          	lhu	a5,188(sp)
2001349c:	ef81                	bnez	a5,200134b4 <_ldtoa_r+0x56a>
2001349e:	0a615783          	lhu	a5,166(sp)
200134a2:	00f9e963          	bltu	s3,a5,200134b4 <_ldtoa_r+0x56a>
200134a6:	018c                	addi	a1,sp,192
200134a8:	1148                	addi	a0,sp,164
200134aa:	147d                	addi	s0,s0,-1
200134ac:	dfdfe0ef          	jal	ra,200122a8 <emovz>
200134b0:	fb441ae3          	bne	s0,s4,20013464 <_ldtoa_r+0x51a>
200134b4:	10ec                	addi	a1,sp,108
200134b6:	0188                	addi	a0,sp,192
200134b8:	b20ff0ef          	jal	ra,200127d8 <emovo.isra.6>
200134bc:	a821                	j	200134d4 <_ldtoa_r+0x58a>
200134be:	10f0                	addi	a2,sp,108
200134c0:	0a94                	addi	a3,sp,336
200134c2:	85b2                	mv	a1,a2
200134c4:	854e                	mv	a0,s3
200134c6:	ec6ff0ef          	jal	ra,20012b8c <emul>
200134ca:	147d                	addi	s0,s0,-1
200134cc:	07c11783          	lh	a5,124(sp)
200134d0:	fe07d7e3          	bgez	a5,200134be <_ldtoa_r+0x574>
200134d4:	018c                	addi	a1,sp,192
200134d6:	10e8                	addi	a0,sp,108
200134d8:	da5fe0ef          	jal	ra,2001227c <emov>
200134dc:	012c                	addi	a1,sp,136
200134de:	0000b517          	auipc	a0,0xb
200134e2:	a0650513          	addi	a0,a0,-1530 # 2001dee4 <eone>
200134e6:	d97fe0ef          	jal	ra,2001227c <emov>
200134ea:	4b81                	li	s7,0
200134ec:	79fd                	lui	s3,0xfffff
200134ee:	0000bd97          	auipc	s11,0xb
200134f2:	a2ed8d93          	addi	s11,s11,-1490 # 2001df1c <emtens>
200134f6:	4d09                	li	s10,2
200134f8:	017d8733          	add	a4,s11,s7
200134fc:	0000b797          	auipc	a5,0xb
20013500:	8e478793          	addi	a5,a5,-1820 # 2001dde0 <etens>
20013504:	018c                	addi	a1,sp,192
20013506:	0000b517          	auipc	a0,0xb
2001350a:	9de50513          	addi	a0,a0,-1570 # 2001dee4 <eone>
2001350e:	c63a                	sw	a4,12(sp)
20013510:	01778a33          	add	s4,a5,s7
20013514:	870ff0ef          	jal	ra,20012584 <ecmp>
20013518:	4732                	lw	a4,12(sp)
2001351a:	02a05c63          	blez	a0,20013552 <_ldtoa_r+0x608>
2001351e:	018c                	addi	a1,sp,192
20013520:	853a                	mv	a0,a4
20013522:	862ff0ef          	jal	ra,20012584 <ecmp>
20013526:	00054f63          	bltz	a0,20013544 <_ldtoa_r+0x5fa>
2001352a:	0190                	addi	a2,sp,192
2001352c:	85b2                	mv	a1,a2
2001352e:	0a94                	addi	a3,sp,336
20013530:	8552                	mv	a0,s4
20013532:	e5aff0ef          	jal	ra,20012b8c <emul>
20013536:	0130                	addi	a2,sp,136
20013538:	0a94                	addi	a3,sp,336
2001353a:	85b2                	mv	a1,a2
2001353c:	8552                	mv	a0,s4
2001353e:	e4eff0ef          	jal	ra,20012b8c <emul>
20013542:	944e                	add	s0,s0,s3
20013544:	0bd1                	addi	s7,s7,20
20013546:	10400793          	li	a5,260
2001354a:	03a9c9b3          	div	s3,s3,s10
2001354e:	fafb95e3          	bne	s7,a5,200134f8 <_ldtoa_r+0x5ae>
20013552:	0130                	addi	a2,sp,136
20013554:	0a94                	addi	a3,sp,336
20013556:	0000b597          	auipc	a1,0xb
2001355a:	98e58593          	addi	a1,a1,-1650 # 2001dee4 <eone>
2001355e:	8532                	mv	a0,a2
20013560:	fc8ff0ef          	jal	ra,20012d28 <ediv>
20013564:	b619                	j	2001306a <_ldtoa_r+0x120>
20013566:	1148                	addi	a0,sp,164
20013568:	d8dfe0ef          	jal	ra,200122f4 <eshdn1>
2001356c:	0a615783          	lhu	a5,166(sp)
20013570:	0785                	addi	a5,a5,1
20013572:	bf31                	j	2001348e <_ldtoa_r+0x544>
20013574:	10e8                	addi	a0,sp,108
20013576:	db5fe0ef          	jal	ra,2001232a <eshup1>
2001357a:	114c                	addi	a1,sp,164
2001357c:	10e8                	addi	a0,sp,108
2001357e:	d2bfe0ef          	jal	ra,200122a8 <emovz>
20013582:	1148                	addi	a0,sp,164
20013584:	da7fe0ef          	jal	ra,2001232a <eshup1>
20013588:	1148                	addi	a0,sp,164
2001358a:	da1fe0ef          	jal	ra,2001232a <eshup1>
2001358e:	10ec                	addi	a1,sp,108
20013590:	1148                	addi	a0,sp,164
20013592:	e53fe0ef          	jal	ra,200123e4 <eaddm>
20013596:	0a90                	addi	a2,sp,336
20013598:	10ec                	addi	a1,sp,108
2001359a:	0128                	addi	a0,sp,136
2001359c:	d64ff0ef          	jal	ra,20012b00 <eiremain>
200135a0:	147d                	addi	s0,s0,-1
200135a2:	19c15983          	lhu	s3,412(sp)
200135a6:	bce5                	j	2001309e <_ldtoa_r+0x154>
200135a8:	02000793          	li	a5,32
200135ac:	b631                	j	200130b8 <_ldtoa_r+0x16e>
200135ae:	03098993          	addi	s3,s3,48 # fffff030 <metal_segment_heap_target_end+0x7fffb030>
200135b2:	02e00793          	li	a5,46
200135b6:	11310aa3          	sb	s3,277(sp)
200135ba:	10f10b23          	sb	a5,278(sp)
200135be:	11710993          	addi	s3,sp,279
200135c2:	01698bb3          	add	s7,s3,s6
200135c6:	056a5063          	bge	s4,s6,20013606 <_ldtoa_r+0x6bc>
200135ca:	19c15783          	lhu	a5,412(sp)
200135ce:	4711                	li	a4,4
200135d0:	fffb8993          	addi	s3,s7,-1
200135d4:	b2f759e3          	bge	a4,a5,20013106 <_ldtoa_r+0x1bc>
200135d8:	4715                	li	a4,5
200135da:	06e78463          	beq	a5,a4,20013642 <_ldtoa_r+0x6f8>
200135de:	87ce                	mv	a5,s3
200135e0:	02e00613          	li	a2,46
200135e4:	03800593          	li	a1,56
200135e8:	03000693          	li	a3,48
200135ec:	17fd                	addi	a5,a5,-1
200135ee:	0007c703          	lbu	a4,0(a5)
200135f2:	07f77713          	andi	a4,a4,127
200135f6:	080a5263          	bgez	s4,2001367a <_ldtoa_r+0x730>
200135fa:	03100713          	li	a4,49
200135fe:	00e78023          	sb	a4,0(a5)
20013602:	0405                	addi	s0,s0,1
20013604:	b609                	j	20013106 <_ldtoa_r+0x1bc>
20013606:	10e8                	addi	a0,sp,108
20013608:	d23fe0ef          	jal	ra,2001232a <eshup1>
2001360c:	114c                	addi	a1,sp,164
2001360e:	10e8                	addi	a0,sp,108
20013610:	c99fe0ef          	jal	ra,200122a8 <emovz>
20013614:	1148                	addi	a0,sp,164
20013616:	d15fe0ef          	jal	ra,2001232a <eshup1>
2001361a:	1148                	addi	a0,sp,164
2001361c:	d0ffe0ef          	jal	ra,2001232a <eshup1>
20013620:	10ec                	addi	a1,sp,108
20013622:	1148                	addi	a0,sp,164
20013624:	dc1fe0ef          	jal	ra,200123e4 <eaddm>
20013628:	0a90                	addi	a2,sp,336
2001362a:	10ec                	addi	a1,sp,108
2001362c:	0128                	addi	a0,sp,136
2001362e:	cd2ff0ef          	jal	ra,20012b00 <eiremain>
20013632:	19c14783          	lbu	a5,412(sp)
20013636:	0b05                	addi	s6,s6,1
20013638:	03078793          	addi	a5,a5,48
2001363c:	00fb8023          	sb	a5,0(s7)
20013640:	b749                	j	200135c2 <_ldtoa_r+0x678>
20013642:	012c                	addi	a1,sp,136
20013644:	10e8                	addi	a0,sp,108
20013646:	992ff0ef          	jal	ra,200127d8 <emovo.isra.6>
2001364a:	0000a597          	auipc	a1,0xa
2001364e:	78258593          	addi	a1,a1,1922 # 2001ddcc <ezero>
20013652:	0128                	addi	a0,sp,136
20013654:	f31fe0ef          	jal	ra,20012584 <ecmp>
20013658:	f159                	bnez	a0,200135de <_ldtoa_r+0x694>
2001365a:	aa0a46e3          	bltz	s4,20013106 <_ldtoa_r+0x1bc>
2001365e:	ffebc783          	lbu	a5,-2(s7)
20013662:	fd278793          	addi	a5,a5,-46
20013666:	0017b793          	seqz	a5,a5
2001366a:	fff7c793          	not	a5,a5
2001366e:	97ce                	add	a5,a5,s3
20013670:	0007c783          	lbu	a5,0(a5)
20013674:	8b85                	andi	a5,a5,1
20013676:	f7a5                	bnez	a5,200135de <_ldtoa_r+0x694>
20013678:	b479                	j	20013106 <_ldtoa_r+0x1bc>
2001367a:	02c71063          	bne	a4,a2,2001369a <_ldtoa_r+0x750>
2001367e:	fff7c703          	lbu	a4,-1(a5)
20013682:	03800693          	li	a3,56
20013686:	00e6e663          	bltu	a3,a4,20013692 <_ldtoa_r+0x748>
2001368a:	0705                	addi	a4,a4,1
2001368c:	fee78fa3          	sb	a4,-1(a5)
20013690:	bc9d                	j	20013106 <_ldtoa_r+0x1bc>
20013692:	0405                	addi	s0,s0,1
20013694:	03100713          	li	a4,49
20013698:	bfd5                	j	2001368c <_ldtoa_r+0x742>
2001369a:	00e5e663          	bltu	a1,a4,200136a6 <_ldtoa_r+0x75c>
2001369e:	0705                	addi	a4,a4,1
200136a0:	00e78023          	sb	a4,0(a5)
200136a4:	b48d                	j	20013106 <_ldtoa_r+0x1bc>
200136a6:	00d78023          	sb	a3,0(a5)
200136aa:	b789                	j	200135ec <_ldtoa_r+0x6a2>
200136ac:	00140793          	addi	a5,s0,1
200136b0:	00fca023          	sw	a5,0(s9)
200136b4:	02e00693          	li	a3,46
200136b8:	87d2                	mv	a5,s4
200136ba:	0007c703          	lbu	a4,0(a5)
200136be:	e701                	bnez	a4,200136c6 <_ldtoa_r+0x77c>
200136c0:	04500713          	li	a4,69
200136c4:	a839                	j	200136e2 <_ldtoa_r+0x798>
200136c6:	00178613          	addi	a2,a5,1
200136ca:	00d70463          	beq	a4,a3,200136d2 <_ldtoa_r+0x788>
200136ce:	87b2                	mv	a5,a2
200136d0:	b7ed                	j	200136ba <_ldtoa_r+0x770>
200136d2:	0017c703          	lbu	a4,1(a5)
200136d6:	0785                	addi	a5,a5,1
200136d8:	fee78fa3          	sb	a4,-1(a5)
200136dc:	fb7d                	bnez	a4,200136d2 <_ldtoa_r+0x788>
200136de:	b7cd                	j	200136c0 <_ldtoa_r+0x776>
200136e0:	17fd                	addi	a5,a5,-1
200136e2:	0007c683          	lbu	a3,0(a5)
200136e6:	00e68463          	beq	a3,a4,200136ee <_ldtoa_r+0x7a4>
200136ea:	fefa6be3          	bltu	s4,a5,200136e0 <_ldtoa_r+0x796>
200136ee:	00078023          	sb	zero,0(a5)
200136f2:	a231                	j	200137fe <_ldtoa_r+0x8b4>
200136f4:	0785                	addi	a5,a5,1
200136f6:	aa09                	j	20013808 <_ldtoa_r+0x8be>
200136f8:	89b6                	mv	s3,a3
200136fa:	aa31                	j	20013816 <_ldtoa_r+0x8cc>
200136fc:	19fd                	addi	s3,s3,-1
200136fe:	00098023          	sb	zero,0(s3)
20013702:	fff9c703          	lbu	a4,-1(s3)
20013706:	00d71663          	bne	a4,a3,20013712 <_ldtoa_r+0x7c8>
2001370a:	41498733          	sub	a4,s3,s4
2001370e:	fee7c7e3          	blt	a5,a4,200136fc <_ldtoa_r+0x7b2>
20013712:	470d                	li	a4,3
20013714:	009c0793          	addi	a5,s8,9
20013718:	00ea9f63          	bne	s5,a4,20013736 <_ldtoa_r+0x7ec>
2001371c:	9426                	add	s0,s0,s1
2001371e:	00045763          	bgez	s0,2001372c <_ldtoa_r+0x7e2>
20013722:	10010a23          	sb	zero,276(sp)
20013726:	000ca023          	sw	zero,0(s9)
2001372a:	89d2                	mv	s3,s4
2001372c:	000ca783          	lw	a5,0(s9)
20013730:	9c3e                	add	s8,s8,a5
20013732:	003c0793          	addi	a5,s8,3
20013736:	04092223          	sw	zero,68(s2)
2001373a:	4711                	li	a4,4
2001373c:	01470693          	addi	a3,a4,20 # ffff8014 <metal_segment_heap_target_end+0x7fff4014>
20013740:	04492583          	lw	a1,68(s2)
20013744:	04d7ff63          	bgeu	a5,a3,200137a2 <_ldtoa_r+0x858>
20013748:	854a                	mv	a0,s2
2001374a:	145000ef          	jal	ra,2001408e <_Balloc>
2001374e:	04a92023          	sw	a0,64(s2)
20013752:	85d2                	mv	a1,s4
20013754:	842a                	mv	s0,a0
20013756:	584010ef          	jal	ra,20014cda <strcpy>
2001375a:	47c2                	lw	a5,16(sp)
2001375c:	c791                	beqz	a5,20013768 <_ldtoa_r+0x81e>
2001375e:	414989b3          	sub	s3,s3,s4
20013762:	99a2                	add	s3,s3,s0
20013764:	0137a023          	sw	s3,0(a5)
20013768:	8522                	mv	a0,s0
2001376a:	1dc12083          	lw	ra,476(sp)
2001376e:	1d812403          	lw	s0,472(sp)
20013772:	1d412483          	lw	s1,468(sp)
20013776:	1d012903          	lw	s2,464(sp)
2001377a:	1cc12983          	lw	s3,460(sp)
2001377e:	1c812a03          	lw	s4,456(sp)
20013782:	1c412a83          	lw	s5,452(sp)
20013786:	1c012b03          	lw	s6,448(sp)
2001378a:	1bc12b83          	lw	s7,444(sp)
2001378e:	1b812c03          	lw	s8,440(sp)
20013792:	1b412c83          	lw	s9,436(sp)
20013796:	1b012d03          	lw	s10,432(sp)
2001379a:	1ac12d83          	lw	s11,428(sp)
2001379e:	613d                	addi	sp,sp,480
200137a0:	8082                	ret
200137a2:	0585                	addi	a1,a1,1
200137a4:	04b92223          	sw	a1,68(s2)
200137a8:	0706                	slli	a4,a4,0x1
200137aa:	bf49                	j	2001373c <_ldtoa_r+0x7f2>
200137ac:	67a1                	lui	a5,0x8
200137ae:	17fd                	addi	a5,a5,-1
200137b0:	96f719e3          	bne	a4,a5,20013122 <_ldtoa_r+0x1d8>
200137b4:	47a2                	lw	a5,8(sp)
200137b6:	0000b597          	auipc	a1,0xb
200137ba:	87e58593          	addi	a1,a1,-1922 # 2001e034 <emtens+0x118>
200137be:	c789                	beqz	a5,200137c8 <_ldtoa_r+0x87e>
200137c0:	0000b597          	auipc	a1,0xb
200137c4:	86858593          	addi	a1,a1,-1944 # 2001e028 <emtens+0x10c>
200137c8:	0a48                	addi	a0,sp,276
200137ca:	6409                	lui	s0,0x2
200137cc:	2e0010ef          	jal	ra,20014aac <sprintf>
200137d0:	70f40413          	addi	s0,s0,1807 # 270f <__heap_size+0x230f>
200137d4:	47d2                	lw	a5,20(sp)
200137d6:	0888                	addi	a0,sp,80
200137d8:	16812023          	sw	s0,352(sp)
200137dc:	14f12a23          	sw	a5,340(sp)
200137e0:	e41fe0ef          	jal	ra,20012620 <eisinf>
200137e4:	11410a13          	addi	s4,sp,276
200137e8:	e511                	bnez	a0,200137f4 <_ldtoa_r+0x8aa>
200137ea:	0888                	addi	a0,sp,80
200137ec:	cbdfe0ef          	jal	ra,200124a8 <eisnan>
200137f0:	ea050ee3          	beqz	a0,200136ac <_ldtoa_r+0x762>
200137f4:	6789                	lui	a5,0x2
200137f6:	70f78793          	addi	a5,a5,1807 # 270f <__heap_size+0x230f>
200137fa:	00fca023          	sw	a5,0(s9)
200137fe:	87d2                	mv	a5,s4
20013800:	02000613          	li	a2,32
20013804:	02d00693          	li	a3,45
20013808:	0007c703          	lbu	a4,0(a5)
2001380c:	eec704e3          	beq	a4,a2,200136f4 <_ldtoa_r+0x7aa>
20013810:	eed702e3          	beq	a4,a3,200136f4 <_ldtoa_r+0x7aa>
20013814:	89d2                	mv	s3,s4
20013816:	0785                	addi	a5,a5,1
20013818:	fff7c703          	lbu	a4,-1(a5)
2001381c:	00198693          	addi	a3,s3,1
20013820:	fee68fa3          	sb	a4,-1(a3)
20013824:	ec071ae3          	bnez	a4,200136f8 <_ldtoa_r+0x7ae>
20013828:	4709                	li	a4,2
2001382a:	4785                	li	a5,1
2001382c:	00ea8663          	beq	s5,a4,20013838 <_ldtoa_r+0x8ee>
20013830:	87a6                	mv	a5,s1
20013832:	0084d363          	bge	s1,s0,20013838 <_ldtoa_r+0x8ee>
20013836:	87a2                	mv	a5,s0
20013838:	03000693          	li	a3,48
2001383c:	b5d9                	j	20013702 <_ldtoa_r+0x7b8>

2001383e <_ldcheck>:
2001383e:	411c                	lw	a5,0(a0)
20013840:	7139                	addi	sp,sp,-64
20013842:	084c                	addi	a1,sp,20
20013844:	c03e                	sw	a5,0(sp)
20013846:	415c                	lw	a5,4(a0)
20013848:	de06                	sw	ra,60(sp)
2001384a:	c23e                	sw	a5,4(sp)
2001384c:	451c                	lw	a5,8(a0)
2001384e:	c43e                	sw	a5,8(sp)
20013850:	455c                	lw	a5,12(a0)
20013852:	850a                	mv	a0,sp
20013854:	c63e                	sw	a5,12(sp)
20013856:	fd1fe0ef          	jal	ra,20012826 <e113toe.isra.8>
2001385a:	02615783          	lhu	a5,38(sp)
2001385e:	4501                	li	a0,0
20013860:	fff7c793          	not	a5,a5
20013864:	01179713          	slli	a4,a5,0x11
20013868:	e719                	bnez	a4,20013876 <_ldcheck+0x38>
2001386a:	0848                	addi	a0,sp,20
2001386c:	c3dfe0ef          	jal	ra,200124a8 <eisnan>
20013870:	00153513          	seqz	a0,a0
20013874:	0505                	addi	a0,a0,1
20013876:	50f2                	lw	ra,60(sp)
20013878:	6121                	addi	sp,sp,64
2001387a:	8082                	ret

2001387c <__localeconv_l>:
2001387c:	0f050513          	addi	a0,a0,240
20013880:	8082                	ret

20013882 <_localeconv_r>:
20013882:	5ffee797          	auipc	a5,0x5ffee
20013886:	97678793          	addi	a5,a5,-1674 # 800011f8 <_impure_ptr>
2001388a:	439c                	lw	a5,0(a5)
2001388c:	5bc8                	lw	a0,52(a5)
2001388e:	e509                	bnez	a0,20013898 <_localeconv_r+0x16>
20013890:	5ffed517          	auipc	a0,0x5ffed
20013894:	b9850513          	addi	a0,a0,-1128 # 80000428 <__global_locale>
20013898:	0f050513          	addi	a0,a0,240
2001389c:	8082                	ret

2001389e <localeconv>:
2001389e:	5ffee797          	auipc	a5,0x5ffee
200138a2:	95a78793          	addi	a5,a5,-1702 # 800011f8 <_impure_ptr>
200138a6:	439c                	lw	a5,0(a5)
200138a8:	5bc8                	lw	a0,52(a5)
200138aa:	e509                	bnez	a0,200138b4 <localeconv+0x16>
200138ac:	5ffed517          	auipc	a0,0x5ffed
200138b0:	b7c50513          	addi	a0,a0,-1156 # 80000428 <__global_locale>
200138b4:	0f050513          	addi	a0,a0,240
200138b8:	8082                	ret

200138ba <_setlocale_r>:
200138ba:	ee11                	bnez	a2,200138d6 <_setlocale_r+0x1c>
200138bc:	0000a517          	auipc	a0,0xa
200138c0:	78c50513          	addi	a0,a0,1932 # 2001e048 <emtens+0x12c>
200138c4:	8082                	ret
200138c6:	0000a517          	auipc	a0,0xa
200138ca:	78250513          	addi	a0,a0,1922 # 2001e048 <emtens+0x12c>
200138ce:	40b2                	lw	ra,12(sp)
200138d0:	4422                	lw	s0,8(sp)
200138d2:	0141                	addi	sp,sp,16
200138d4:	8082                	ret
200138d6:	1141                	addi	sp,sp,-16
200138d8:	0000a597          	auipc	a1,0xa
200138dc:	77458593          	addi	a1,a1,1908 # 2001e04c <emtens+0x130>
200138e0:	8532                	mv	a0,a2
200138e2:	c422                	sw	s0,8(sp)
200138e4:	c606                	sw	ra,12(sp)
200138e6:	8432                	mv	s0,a2
200138e8:	2d4010ef          	jal	ra,20014bbc <strcmp>
200138ec:	dd69                	beqz	a0,200138c6 <_setlocale_r+0xc>
200138ee:	0000a597          	auipc	a1,0xa
200138f2:	75a58593          	addi	a1,a1,1882 # 2001e048 <emtens+0x12c>
200138f6:	8522                	mv	a0,s0
200138f8:	2c4010ef          	jal	ra,20014bbc <strcmp>
200138fc:	d569                	beqz	a0,200138c6 <_setlocale_r+0xc>
200138fe:	0000a597          	auipc	a1,0xa
20013902:	4c658593          	addi	a1,a1,1222 # 2001ddc4 <zeroes.4514+0x44>
20013906:	8522                	mv	a0,s0
20013908:	2b4010ef          	jal	ra,20014bbc <strcmp>
2001390c:	dd4d                	beqz	a0,200138c6 <_setlocale_r+0xc>
2001390e:	4501                	li	a0,0
20013910:	bf7d                	j	200138ce <_setlocale_r+0x14>

20013912 <__locale_mb_cur_max>:
20013912:	5ffee797          	auipc	a5,0x5ffee
20013916:	8e678793          	addi	a5,a5,-1818 # 800011f8 <_impure_ptr>
2001391a:	439c                	lw	a5,0(a5)
2001391c:	5bdc                	lw	a5,52(a5)
2001391e:	e789                	bnez	a5,20013928 <__locale_mb_cur_max+0x16>
20013920:	5ffed797          	auipc	a5,0x5ffed
20013924:	b0878793          	addi	a5,a5,-1272 # 80000428 <__global_locale>
20013928:	1287c503          	lbu	a0,296(a5)
2001392c:	8082                	ret

2001392e <__locale_ctype_ptr_l>:
2001392e:	0ec52503          	lw	a0,236(a0)
20013932:	8082                	ret

20013934 <__locale_ctype_ptr>:
20013934:	5ffee797          	auipc	a5,0x5ffee
20013938:	8c478793          	addi	a5,a5,-1852 # 800011f8 <_impure_ptr>
2001393c:	439c                	lw	a5,0(a5)
2001393e:	5bdc                	lw	a5,52(a5)
20013940:	e789                	bnez	a5,2001394a <__locale_ctype_ptr+0x16>
20013942:	5ffed797          	auipc	a5,0x5ffed
20013946:	ae678793          	addi	a5,a5,-1306 # 80000428 <__global_locale>
2001394a:	0ec7a503          	lw	a0,236(a5)
2001394e:	8082                	ret

20013950 <setlocale>:
20013950:	5ffee797          	auipc	a5,0x5ffee
20013954:	8a878793          	addi	a5,a5,-1880 # 800011f8 <_impure_ptr>
20013958:	862e                	mv	a2,a1
2001395a:	85aa                	mv	a1,a0
2001395c:	4388                	lw	a0,0(a5)
2001395e:	bfb1                	j	200138ba <_setlocale_r>

20013960 <__swhatbuf_r>:
20013960:	7119                	addi	sp,sp,-128
20013962:	daa6                	sw	s1,116(sp)
20013964:	84ae                	mv	s1,a1
20013966:	00e59583          	lh	a1,14(a1)
2001396a:	dca2                	sw	s0,120(sp)
2001396c:	de86                	sw	ra,124(sp)
2001396e:	8432                	mv	s0,a2
20013970:	0005dc63          	bgez	a1,20013988 <__swhatbuf_r+0x28>
20013974:	00c4d783          	lhu	a5,12(s1)
20013978:	0006a023          	sw	zero,0(a3)
2001397c:	0807f793          	andi	a5,a5,128
20013980:	eb95                	bnez	a5,200139b4 <__swhatbuf_r+0x54>
20013982:	40000793          	li	a5,1024
20013986:	a80d                	j	200139b8 <__swhatbuf_r+0x58>
20013988:	0830                	addi	a2,sp,24
2001398a:	c636                	sw	a3,12(sp)
2001398c:	648030ef          	jal	ra,20016fd4 <_fstat_r>
20013990:	46b2                	lw	a3,12(sp)
20013992:	fe0541e3          	bltz	a0,20013974 <__swhatbuf_r+0x14>
20013996:	4772                	lw	a4,28(sp)
20013998:	67bd                	lui	a5,0xf
2001399a:	6505                	lui	a0,0x1
2001399c:	8ff9                	and	a5,a5,a4
2001399e:	7779                	lui	a4,0xffffe
200139a0:	97ba                	add	a5,a5,a4
200139a2:	0017b793          	seqz	a5,a5
200139a6:	c29c                	sw	a5,0(a3)
200139a8:	40000793          	li	a5,1024
200139ac:	c01c                	sw	a5,0(s0)
200139ae:	80050513          	addi	a0,a0,-2048 # 800 <__heap_size+0x400>
200139b2:	a029                	j	200139bc <__swhatbuf_r+0x5c>
200139b4:	04000793          	li	a5,64
200139b8:	c01c                	sw	a5,0(s0)
200139ba:	4501                	li	a0,0
200139bc:	50f6                	lw	ra,124(sp)
200139be:	5466                	lw	s0,120(sp)
200139c0:	54d6                	lw	s1,116(sp)
200139c2:	6109                	addi	sp,sp,128
200139c4:	8082                	ret

200139c6 <__smakebuf_r>:
200139c6:	00c5d783          	lhu	a5,12(a1)
200139ca:	1101                	addi	sp,sp,-32
200139cc:	cc22                	sw	s0,24(sp)
200139ce:	ce06                	sw	ra,28(sp)
200139d0:	ca26                	sw	s1,20(sp)
200139d2:	c84a                	sw	s2,16(sp)
200139d4:	8b89                	andi	a5,a5,2
200139d6:	842e                	mv	s0,a1
200139d8:	cf89                	beqz	a5,200139f2 <__smakebuf_r+0x2c>
200139da:	04340793          	addi	a5,s0,67
200139de:	c01c                	sw	a5,0(s0)
200139e0:	c81c                	sw	a5,16(s0)
200139e2:	4785                	li	a5,1
200139e4:	c85c                	sw	a5,20(s0)
200139e6:	40f2                	lw	ra,28(sp)
200139e8:	4462                	lw	s0,24(sp)
200139ea:	44d2                	lw	s1,20(sp)
200139ec:	4942                	lw	s2,16(sp)
200139ee:	6105                	addi	sp,sp,32
200139f0:	8082                	ret
200139f2:	0074                	addi	a3,sp,12
200139f4:	0030                	addi	a2,sp,8
200139f6:	84aa                	mv	s1,a0
200139f8:	37a5                	jal	20013960 <__swhatbuf_r>
200139fa:	45a2                	lw	a1,8(sp)
200139fc:	892a                	mv	s2,a0
200139fe:	8526                	mv	a0,s1
20013a00:	2095                	jal	20013a64 <_malloc_r>
20013a02:	ed01                	bnez	a0,20013a1a <__smakebuf_r+0x54>
20013a04:	00c41783          	lh	a5,12(s0)
20013a08:	2007f713          	andi	a4,a5,512
20013a0c:	ff69                	bnez	a4,200139e6 <__smakebuf_r+0x20>
20013a0e:	9bf1                	andi	a5,a5,-4
20013a10:	0027e793          	ori	a5,a5,2
20013a14:	00f41623          	sh	a5,12(s0)
20013a18:	b7c9                	j	200139da <__smakebuf_r+0x14>
20013a1a:	ffffe797          	auipc	a5,0xffffe
20013a1e:	36c78793          	addi	a5,a5,876 # 20011d86 <_cleanup_r>
20013a22:	dcdc                	sw	a5,60(s1)
20013a24:	00c45783          	lhu	a5,12(s0)
20013a28:	c008                	sw	a0,0(s0)
20013a2a:	c808                	sw	a0,16(s0)
20013a2c:	0807e793          	ori	a5,a5,128
20013a30:	00f41623          	sh	a5,12(s0)
20013a34:	47a2                	lw	a5,8(sp)
20013a36:	c85c                	sw	a5,20(s0)
20013a38:	47b2                	lw	a5,12(sp)
20013a3a:	cf91                	beqz	a5,20013a56 <__smakebuf_r+0x90>
20013a3c:	00e41583          	lh	a1,14(s0)
20013a40:	8526                	mv	a0,s1
20013a42:	099030ef          	jal	ra,200172da <_isatty_r>
20013a46:	c901                	beqz	a0,20013a56 <__smakebuf_r+0x90>
20013a48:	00c45783          	lhu	a5,12(s0)
20013a4c:	9bf1                	andi	a5,a5,-4
20013a4e:	0017e793          	ori	a5,a5,1
20013a52:	00f41623          	sh	a5,12(s0)
20013a56:	00c45783          	lhu	a5,12(s0)
20013a5a:	00f96933          	or	s2,s2,a5
20013a5e:	01241623          	sh	s2,12(s0)
20013a62:	b751                	j	200139e6 <__smakebuf_r+0x20>

20013a64 <_malloc_r>:
20013a64:	7179                	addi	sp,sp,-48
20013a66:	d606                	sw	ra,44(sp)
20013a68:	d422                	sw	s0,40(sp)
20013a6a:	d226                	sw	s1,36(sp)
20013a6c:	d04a                	sw	s2,32(sp)
20013a6e:	ce4e                	sw	s3,28(sp)
20013a70:	cc52                	sw	s4,24(sp)
20013a72:	ca56                	sw	s5,20(sp)
20013a74:	c85a                	sw	s6,16(sp)
20013a76:	c65e                	sw	s7,12(sp)
20013a78:	c462                	sw	s8,8(sp)
20013a7a:	c266                	sw	s9,4(sp)
20013a7c:	00b58793          	addi	a5,a1,11
20013a80:	4759                	li	a4,22
20013a82:	02f77663          	bgeu	a4,a5,20013aae <_malloc_r+0x4a>
20013a86:	ff87f493          	andi	s1,a5,-8
20013a8a:	0204d363          	bgez	s1,20013ab0 <_malloc_r+0x4c>
20013a8e:	47b1                	li	a5,12
20013a90:	c11c                	sw	a5,0(a0)
20013a92:	4501                	li	a0,0
20013a94:	50b2                	lw	ra,44(sp)
20013a96:	5422                	lw	s0,40(sp)
20013a98:	5492                	lw	s1,36(sp)
20013a9a:	5902                	lw	s2,32(sp)
20013a9c:	49f2                	lw	s3,28(sp)
20013a9e:	4a62                	lw	s4,24(sp)
20013aa0:	4ad2                	lw	s5,20(sp)
20013aa2:	4b42                	lw	s6,16(sp)
20013aa4:	4bb2                	lw	s7,12(sp)
20013aa6:	4c22                	lw	s8,8(sp)
20013aa8:	4c92                	lw	s9,4(sp)
20013aaa:	6145                	addi	sp,sp,48
20013aac:	8082                	ret
20013aae:	44c1                	li	s1,16
20013ab0:	fcb4efe3          	bltu	s1,a1,20013a8e <_malloc_r+0x2a>
20013ab4:	892a                	mv	s2,a0
20013ab6:	2bd1                	jal	2001408a <__malloc_lock>
20013ab8:	1f700793          	li	a5,503
20013abc:	5ffed997          	auipc	s3,0x5ffed
20013ac0:	ad898993          	addi	s3,s3,-1320 # 80000594 <__malloc_av_>
20013ac4:	0297ec63          	bltu	a5,s1,20013afc <_malloc_r+0x98>
20013ac8:	00848713          	addi	a4,s1,8
20013acc:	974e                	add	a4,a4,s3
20013ace:	4340                	lw	s0,4(a4)
20013ad0:	ff870693          	addi	a3,a4,-8 # ffffdff8 <metal_segment_heap_target_end+0x7fff9ff8>
20013ad4:	0034d793          	srli	a5,s1,0x3
20013ad8:	00d41663          	bne	s0,a3,20013ae4 <_malloc_r+0x80>
20013adc:	4740                	lw	s0,12(a4)
20013ade:	0789                	addi	a5,a5,2
20013ae0:	04870c63          	beq	a4,s0,20013b38 <_malloc_r+0xd4>
20013ae4:	405c                	lw	a5,4(s0)
20013ae6:	4458                	lw	a4,12(s0)
20013ae8:	4414                	lw	a3,8(s0)
20013aea:	9bf1                	andi	a5,a5,-4
20013aec:	97a2                	add	a5,a5,s0
20013aee:	c6d8                	sw	a4,12(a3)
20013af0:	c714                	sw	a3,8(a4)
20013af2:	43d8                	lw	a4,4(a5)
20013af4:	00176713          	ori	a4,a4,1
20013af8:	c3d8                	sw	a4,4(a5)
20013afa:	a051                	j	20013b7e <_malloc_r+0x11a>
20013afc:	0094d713          	srli	a4,s1,0x9
20013b00:	03f00793          	li	a5,63
20013b04:	cb01                	beqz	a4,20013b14 <_malloc_r+0xb0>
20013b06:	4791                	li	a5,4
20013b08:	08e7e063          	bltu	a5,a4,20013b88 <_malloc_r+0x124>
20013b0c:	0064d793          	srli	a5,s1,0x6
20013b10:	03878793          	addi	a5,a5,56
20013b14:	00178713          	addi	a4,a5,1
20013b18:	070e                	slli	a4,a4,0x3
20013b1a:	974e                	add	a4,a4,s3
20013b1c:	4340                	lw	s0,4(a4)
20013b1e:	ff870593          	addi	a1,a4,-8
20013b22:	453d                	li	a0,15
20013b24:	00b40963          	beq	s0,a1,20013b36 <_malloc_r+0xd2>
20013b28:	4058                	lw	a4,4(s0)
20013b2a:	9b71                	andi	a4,a4,-4
20013b2c:	40970633          	sub	a2,a4,s1
20013b30:	08c55f63          	bge	a0,a2,20013bce <_malloc_r+0x16a>
20013b34:	17fd                	addi	a5,a5,-1
20013b36:	0785                	addi	a5,a5,1
20013b38:	0109a403          	lw	s0,16(s3)
20013b3c:	5ffed597          	auipc	a1,0x5ffed
20013b40:	a6058593          	addi	a1,a1,-1440 # 8000059c <__malloc_av_+0x8>
20013b44:	0eb40c63          	beq	s0,a1,20013c3c <_malloc_r+0x1d8>
20013b48:	4058                	lw	a4,4(s0)
20013b4a:	46bd                	li	a3,15
20013b4c:	9b71                	andi	a4,a4,-4
20013b4e:	40970633          	sub	a2,a4,s1
20013b52:	08c6d963          	bge	a3,a2,20013be4 <_malloc_r+0x180>
20013b56:	0014e793          	ori	a5,s1,1
20013b5a:	c05c                	sw	a5,4(s0)
20013b5c:	009406b3          	add	a3,s0,s1
20013b60:	5ffed797          	auipc	a5,0x5ffed
20013b64:	a4d7a423          	sw	a3,-1464(a5) # 800005a8 <__malloc_av_+0x14>
20013b68:	5ffed797          	auipc	a5,0x5ffed
20013b6c:	a2d7ae23          	sw	a3,-1476(a5) # 800005a4 <__malloc_av_+0x10>
20013b70:	00166793          	ori	a5,a2,1
20013b74:	c6cc                	sw	a1,12(a3)
20013b76:	c68c                	sw	a1,8(a3)
20013b78:	c2dc                	sw	a5,4(a3)
20013b7a:	9722                	add	a4,a4,s0
20013b7c:	c310                	sw	a2,0(a4)
20013b7e:	854a                	mv	a0,s2
20013b80:	2331                	jal	2001408c <__malloc_unlock>
20013b82:	00840513          	addi	a0,s0,8
20013b86:	b739                	j	20013a94 <_malloc_r+0x30>
20013b88:	47d1                	li	a5,20
20013b8a:	00e7e563          	bltu	a5,a4,20013b94 <_malloc_r+0x130>
20013b8e:	05b70793          	addi	a5,a4,91
20013b92:	b749                	j	20013b14 <_malloc_r+0xb0>
20013b94:	05400793          	li	a5,84
20013b98:	00e7e763          	bltu	a5,a4,20013ba6 <_malloc_r+0x142>
20013b9c:	00c4d793          	srli	a5,s1,0xc
20013ba0:	06e78793          	addi	a5,a5,110
20013ba4:	bf85                	j	20013b14 <_malloc_r+0xb0>
20013ba6:	15400793          	li	a5,340
20013baa:	00e7e763          	bltu	a5,a4,20013bb8 <_malloc_r+0x154>
20013bae:	00f4d793          	srli	a5,s1,0xf
20013bb2:	07778793          	addi	a5,a5,119
20013bb6:	bfb9                	j	20013b14 <_malloc_r+0xb0>
20013bb8:	55400693          	li	a3,1364
20013bbc:	07e00793          	li	a5,126
20013bc0:	f4e6eae3          	bltu	a3,a4,20013b14 <_malloc_r+0xb0>
20013bc4:	0124d793          	srli	a5,s1,0x12
20013bc8:	07c78793          	addi	a5,a5,124
20013bcc:	b7a1                	j	20013b14 <_malloc_r+0xb0>
20013bce:	4454                	lw	a3,12(s0)
20013bd0:	00064863          	bltz	a2,20013be0 <_malloc_r+0x17c>
20013bd4:	441c                	lw	a5,8(s0)
20013bd6:	c7d4                	sw	a3,12(a5)
20013bd8:	c69c                	sw	a5,8(a3)
20013bda:	00e407b3          	add	a5,s0,a4
20013bde:	bf11                	j	20013af2 <_malloc_r+0x8e>
20013be0:	8436                	mv	s0,a3
20013be2:	b789                	j	20013b24 <_malloc_r+0xc0>
20013be4:	5ffed697          	auipc	a3,0x5ffed
20013be8:	9cb6a223          	sw	a1,-1596(a3) # 800005a8 <__malloc_av_+0x14>
20013bec:	5ffed697          	auipc	a3,0x5ffed
20013bf0:	9ab6ac23          	sw	a1,-1608(a3) # 800005a4 <__malloc_av_+0x10>
20013bf4:	00064863          	bltz	a2,20013c04 <_malloc_r+0x1a0>
20013bf8:	9722                	add	a4,a4,s0
20013bfa:	435c                	lw	a5,4(a4)
20013bfc:	0017e793          	ori	a5,a5,1
20013c00:	c35c                	sw	a5,4(a4)
20013c02:	bfb5                	j	20013b7e <_malloc_r+0x11a>
20013c04:	1ff00693          	li	a3,511
20013c08:	0049a803          	lw	a6,4(s3)
20013c0c:	14e6e863          	bltu	a3,a4,20013d5c <_malloc_r+0x2f8>
20013c10:	830d                	srli	a4,a4,0x3
20013c12:	40275613          	srai	a2,a4,0x2
20013c16:	4685                	li	a3,1
20013c18:	0705                	addi	a4,a4,1
20013c1a:	00c696b3          	sll	a3,a3,a2
20013c1e:	070e                	slli	a4,a4,0x3
20013c20:	974e                	add	a4,a4,s3
20013c22:	0106e6b3          	or	a3,a3,a6
20013c26:	5ffed617          	auipc	a2,0x5ffed
20013c2a:	96d62923          	sw	a3,-1678(a2) # 80000598 <__malloc_av_+0x4>
20013c2e:	4314                	lw	a3,0(a4)
20013c30:	ff870613          	addi	a2,a4,-8
20013c34:	c450                	sw	a2,12(s0)
20013c36:	c414                	sw	a3,8(s0)
20013c38:	c300                	sw	s0,0(a4)
20013c3a:	c6c0                	sw	s0,12(a3)
20013c3c:	4027d713          	srai	a4,a5,0x2
20013c40:	4305                	li	t1,1
20013c42:	00e31333          	sll	t1,t1,a4
20013c46:	0049a703          	lw	a4,4(s3)
20013c4a:	04676e63          	bltu	a4,t1,20013ca6 <_malloc_r+0x242>
20013c4e:	006776b3          	and	a3,a4,t1
20013c52:	e699                	bnez	a3,20013c60 <_malloc_r+0x1fc>
20013c54:	9bf1                	andi	a5,a5,-4
20013c56:	0306                	slli	t1,t1,0x1
20013c58:	006776b3          	and	a3,a4,t1
20013c5c:	0791                	addi	a5,a5,4
20013c5e:	dee5                	beqz	a3,20013c56 <_malloc_r+0x1f2>
20013c60:	4e3d                	li	t3,15
20013c62:	00379693          	slli	a3,a5,0x3
20013c66:	96ce                	add	a3,a3,s3
20013c68:	8836                	mv	a6,a3
20013c6a:	853e                	mv	a0,a5
20013c6c:	00c82403          	lw	s0,12(a6)
20013c70:	19041363          	bne	s0,a6,20013df6 <_malloc_r+0x392>
20013c74:	0505                	addi	a0,a0,1
20013c76:	00357713          	andi	a4,a0,3
20013c7a:	0821                	addi	a6,a6,8
20013c7c:	fb65                	bnez	a4,20013c6c <_malloc_r+0x208>
20013c7e:	0037f713          	andi	a4,a5,3
20013c82:	1c071763          	bnez	a4,20013e50 <_malloc_r+0x3ec>
20013c86:	0049a703          	lw	a4,4(s3)
20013c8a:	fff34793          	not	a5,t1
20013c8e:	8ff9                	and	a5,a5,a4
20013c90:	5ffed717          	auipc	a4,0x5ffed
20013c94:	90f72423          	sw	a5,-1784(a4) # 80000598 <__malloc_av_+0x4>
20013c98:	0049a703          	lw	a4,4(s3)
20013c9c:	0306                	slli	t1,t1,0x1
20013c9e:	00676463          	bltu	a4,t1,20013ca6 <_malloc_r+0x242>
20013ca2:	1c031363          	bnez	t1,20013e68 <_malloc_r+0x404>
20013ca6:	0089ab83          	lw	s7,8(s3)
20013caa:	004ba403          	lw	s0,4(s7)
20013cae:	ffc47a93          	andi	s5,s0,-4
20013cb2:	009ae763          	bltu	s5,s1,20013cc0 <_malloc_r+0x25c>
20013cb6:	409a8733          	sub	a4,s5,s1
20013cba:	47bd                	li	a5,15
20013cbc:	28e7cf63          	blt	a5,a4,20013f5a <_malloc_r+0x4f6>
20013cc0:	5ffed797          	auipc	a5,0x5ffed
20013cc4:	59478793          	addi	a5,a5,1428 # 80001254 <__malloc_top_pad>
20013cc8:	5ffed717          	auipc	a4,0x5ffed
20013ccc:	53470713          	addi	a4,a4,1332 # 800011fc <__malloc_sbrk_base>
20013cd0:	4380                	lw	s0,0(a5)
20013cd2:	4314                	lw	a3,0(a4)
20013cd4:	57fd                	li	a5,-1
20013cd6:	015b8c33          	add	s8,s7,s5
20013cda:	9426                	add	s0,s0,s1
20013cdc:	8a3a                	mv	s4,a4
20013cde:	18f69763          	bne	a3,a5,20013e6c <_malloc_r+0x408>
20013ce2:	0441                	addi	s0,s0,16
20013ce4:	85a2                	mv	a1,s0
20013ce6:	854a                	mv	a0,s2
20013ce8:	4e3000ef          	jal	ra,200149ca <_sbrk_r>
20013cec:	57fd                	li	a5,-1
20013cee:	8b2a                	mv	s6,a0
20013cf0:	20f50963          	beq	a0,a5,20013f02 <_malloc_r+0x49e>
20013cf4:	01857463          	bgeu	a0,s8,20013cfc <_malloc_r+0x298>
20013cf8:	213b9563          	bne	s7,s3,20013f02 <_malloc_r+0x49e>
20013cfc:	5ffedc97          	auipc	s9,0x5ffed
20013d00:	55cc8c93          	addi	s9,s9,1372 # 80001258 <__malloc_current_mallinfo>
20013d04:	000ca703          	lw	a4,0(s9)
20013d08:	9722                	add	a4,a4,s0
20013d0a:	5ffed797          	auipc	a5,0x5ffed
20013d0e:	54e7a723          	sw	a4,1358(a5) # 80001258 <__malloc_current_mallinfo>
20013d12:	176c1363          	bne	s8,s6,20013e78 <_malloc_r+0x414>
20013d16:	014c1793          	slli	a5,s8,0x14
20013d1a:	14079f63          	bnez	a5,20013e78 <_malloc_r+0x414>
20013d1e:	0089a783          	lw	a5,8(s3)
20013d22:	9456                	add	s0,s0,s5
20013d24:	00146413          	ori	s0,s0,1
20013d28:	c3c0                	sw	s0,4(a5)
20013d2a:	5ffed717          	auipc	a4,0x5ffed
20013d2e:	52670713          	addi	a4,a4,1318 # 80001250 <__malloc_max_sbrked_mem>
20013d32:	000ca783          	lw	a5,0(s9)
20013d36:	4318                	lw	a4,0(a4)
20013d38:	00f77663          	bgeu	a4,a5,20013d44 <_malloc_r+0x2e0>
20013d3c:	5ffed717          	auipc	a4,0x5ffed
20013d40:	50f72a23          	sw	a5,1300(a4) # 80001250 <__malloc_max_sbrked_mem>
20013d44:	5ffed717          	auipc	a4,0x5ffed
20013d48:	50870713          	addi	a4,a4,1288 # 8000124c <__malloc_max_total_mem>
20013d4c:	4318                	lw	a4,0(a4)
20013d4e:	1af77a63          	bgeu	a4,a5,20013f02 <_malloc_r+0x49e>
20013d52:	5ffed717          	auipc	a4,0x5ffed
20013d56:	4ef72d23          	sw	a5,1274(a4) # 8000124c <__malloc_max_total_mem>
20013d5a:	a265                	j	20013f02 <_malloc_r+0x49e>
20013d5c:	00975613          	srli	a2,a4,0x9
20013d60:	4691                	li	a3,4
20013d62:	02c6ee63          	bltu	a3,a2,20013d9e <_malloc_r+0x33a>
20013d66:	00675693          	srli	a3,a4,0x6
20013d6a:	03868693          	addi	a3,a3,56
20013d6e:	00168613          	addi	a2,a3,1
20013d72:	060e                	slli	a2,a2,0x3
20013d74:	964e                	add	a2,a2,s3
20013d76:	ff860513          	addi	a0,a2,-8
20013d7a:	4210                	lw	a2,0(a2)
20013d7c:	06c51763          	bne	a0,a2,20013dea <_malloc_r+0x386>
20013d80:	4705                	li	a4,1
20013d82:	8689                	srai	a3,a3,0x2
20013d84:	00d716b3          	sll	a3,a4,a3
20013d88:	0106e6b3          	or	a3,a3,a6
20013d8c:	5ffed717          	auipc	a4,0x5ffed
20013d90:	80d72623          	sw	a3,-2036(a4) # 80000598 <__malloc_av_+0x4>
20013d94:	c448                	sw	a0,12(s0)
20013d96:	c410                	sw	a2,8(s0)
20013d98:	c500                	sw	s0,8(a0)
20013d9a:	c640                	sw	s0,12(a2)
20013d9c:	b545                	j	20013c3c <_malloc_r+0x1d8>
20013d9e:	46d1                	li	a3,20
20013da0:	00c6e563          	bltu	a3,a2,20013daa <_malloc_r+0x346>
20013da4:	05b60693          	addi	a3,a2,91
20013da8:	b7d9                	j	20013d6e <_malloc_r+0x30a>
20013daa:	05400693          	li	a3,84
20013dae:	00c6e763          	bltu	a3,a2,20013dbc <_malloc_r+0x358>
20013db2:	00c75693          	srli	a3,a4,0xc
20013db6:	06e68693          	addi	a3,a3,110
20013dba:	bf55                	j	20013d6e <_malloc_r+0x30a>
20013dbc:	15400693          	li	a3,340
20013dc0:	00c6e763          	bltu	a3,a2,20013dce <_malloc_r+0x36a>
20013dc4:	00f75693          	srli	a3,a4,0xf
20013dc8:	07768693          	addi	a3,a3,119
20013dcc:	b74d                	j	20013d6e <_malloc_r+0x30a>
20013dce:	55400513          	li	a0,1364
20013dd2:	07e00693          	li	a3,126
20013dd6:	f8c56ce3          	bltu	a0,a2,20013d6e <_malloc_r+0x30a>
20013dda:	01275693          	srli	a3,a4,0x12
20013dde:	07c68693          	addi	a3,a3,124
20013de2:	b771                	j	20013d6e <_malloc_r+0x30a>
20013de4:	4610                	lw	a2,8(a2)
20013de6:	00c50663          	beq	a0,a2,20013df2 <_malloc_r+0x38e>
20013dea:	4254                	lw	a3,4(a2)
20013dec:	9af1                	andi	a3,a3,-4
20013dee:	fed76be3          	bltu	a4,a3,20013de4 <_malloc_r+0x380>
20013df2:	4648                	lw	a0,12(a2)
20013df4:	b745                	j	20013d94 <_malloc_r+0x330>
20013df6:	4058                	lw	a4,4(s0)
20013df8:	4450                	lw	a2,12(s0)
20013dfa:	9b71                	andi	a4,a4,-4
20013dfc:	409708b3          	sub	a7,a4,s1
20013e00:	031e5b63          	bge	t3,a7,20013e36 <_malloc_r+0x3d2>
20013e04:	0014e793          	ori	a5,s1,1
20013e08:	c05c                	sw	a5,4(s0)
20013e0a:	441c                	lw	a5,8(s0)
20013e0c:	009406b3          	add	a3,s0,s1
20013e10:	9722                	add	a4,a4,s0
20013e12:	c7d0                	sw	a2,12(a5)
20013e14:	c61c                	sw	a5,8(a2)
20013e16:	5ffec797          	auipc	a5,0x5ffec
20013e1a:	78d7a923          	sw	a3,1938(a5) # 800005a8 <__malloc_av_+0x14>
20013e1e:	5ffec797          	auipc	a5,0x5ffec
20013e22:	78d7a323          	sw	a3,1926(a5) # 800005a4 <__malloc_av_+0x10>
20013e26:	0018e793          	ori	a5,a7,1
20013e2a:	c6cc                	sw	a1,12(a3)
20013e2c:	c68c                	sw	a1,8(a3)
20013e2e:	c2dc                	sw	a5,4(a3)
20013e30:	01172023          	sw	a7,0(a4)
20013e34:	b3a9                	j	20013b7e <_malloc_r+0x11a>
20013e36:	0008cb63          	bltz	a7,20013e4c <_malloc_r+0x3e8>
20013e3a:	9722                	add	a4,a4,s0
20013e3c:	435c                	lw	a5,4(a4)
20013e3e:	0017e793          	ori	a5,a5,1
20013e42:	c35c                	sw	a5,4(a4)
20013e44:	441c                	lw	a5,8(s0)
20013e46:	c7d0                	sw	a2,12(a5)
20013e48:	c61c                	sw	a5,8(a2)
20013e4a:	bb15                	j	20013b7e <_malloc_r+0x11a>
20013e4c:	8432                	mv	s0,a2
20013e4e:	b50d                	j	20013c70 <_malloc_r+0x20c>
20013e50:	16e1                	addi	a3,a3,-8
20013e52:	4698                	lw	a4,8(a3)
20013e54:	17fd                	addi	a5,a5,-1
20013e56:	e2d704e3          	beq	a4,a3,20013c7e <_malloc_r+0x21a>
20013e5a:	bd3d                	j	20013c98 <_malloc_r+0x234>
20013e5c:	0791                	addi	a5,a5,4
20013e5e:	0306                	slli	t1,t1,0x1
20013e60:	006776b3          	and	a3,a4,t1
20013e64:	dee5                	beqz	a3,20013e5c <_malloc_r+0x3f8>
20013e66:	bbf5                	j	20013c62 <_malloc_r+0x1fe>
20013e68:	87aa                	mv	a5,a0
20013e6a:	bfdd                	j	20013e60 <_malloc_r+0x3fc>
20013e6c:	6705                	lui	a4,0x1
20013e6e:	073d                	addi	a4,a4,15
20013e70:	943a                	add	s0,s0,a4
20013e72:	77fd                	lui	a5,0xfffff
20013e74:	8c7d                	and	s0,s0,a5
20013e76:	b5bd                	j	20013ce4 <_malloc_r+0x280>
20013e78:	000a2683          	lw	a3,0(s4) # 1000 <__heap_size+0xc00>
20013e7c:	57fd                	li	a5,-1
20013e7e:	0af69063          	bne	a3,a5,20013f1e <_malloc_r+0x4ba>
20013e82:	5ffed797          	auipc	a5,0x5ffed
20013e86:	3767ad23          	sw	s6,890(a5) # 800011fc <__malloc_sbrk_base>
20013e8a:	007b7c13          	andi	s8,s6,7
20013e8e:	4781                	li	a5,0
20013e90:	000c0663          	beqz	s8,20013e9c <_malloc_r+0x438>
20013e94:	47a1                	li	a5,8
20013e96:	418787b3          	sub	a5,a5,s8
20013e9a:	9b3e                	add	s6,s6,a5
20013e9c:	6505                	lui	a0,0x1
20013e9e:	00a78a33          	add	s4,a5,a0
20013ea2:	945a                	add	s0,s0,s6
20013ea4:	157d                	addi	a0,a0,-1
20013ea6:	00a477b3          	and	a5,s0,a0
20013eaa:	40fa0a33          	sub	s4,s4,a5
20013eae:	00aa7a33          	and	s4,s4,a0
20013eb2:	85d2                	mv	a1,s4
20013eb4:	854a                	mv	a0,s2
20013eb6:	315000ef          	jal	ra,200149ca <_sbrk_r>
20013eba:	57fd                	li	a5,-1
20013ebc:	00f51963          	bne	a0,a5,20013ece <_malloc_r+0x46a>
20013ec0:	8522                	mv	a0,s0
20013ec2:	000c0563          	beqz	s8,20013ecc <_malloc_r+0x468>
20013ec6:	ff8c0513          	addi	a0,s8,-8
20013eca:	9522                	add	a0,a0,s0
20013ecc:	4a01                	li	s4,0
20013ece:	000ca783          	lw	a5,0(s9)
20013ed2:	41650533          	sub	a0,a0,s6
20013ed6:	97d2                	add	a5,a5,s4
20013ed8:	9a2a                	add	s4,s4,a0
20013eda:	5ffed717          	auipc	a4,0x5ffed
20013ede:	36f72f23          	sw	a5,894(a4) # 80001258 <__malloc_current_mallinfo>
20013ee2:	001a6a13          	ori	s4,s4,1
20013ee6:	5ffec797          	auipc	a5,0x5ffec
20013eea:	6b67ab23          	sw	s6,1718(a5) # 8000059c <__malloc_av_+0x8>
20013eee:	014b2223          	sw	s4,4(s6)
20013ef2:	e33b8ce3          	beq	s7,s3,20013d2a <_malloc_r+0x2c6>
20013ef6:	473d                	li	a4,15
20013ef8:	03576b63          	bltu	a4,s5,20013f2e <_malloc_r+0x4ca>
20013efc:	4785                	li	a5,1
20013efe:	00fb2223          	sw	a5,4(s6)
20013f02:	0089a783          	lw	a5,8(s3)
20013f06:	43dc                	lw	a5,4(a5)
20013f08:	9bf1                	andi	a5,a5,-4
20013f0a:	40978733          	sub	a4,a5,s1
20013f0e:	0097e563          	bltu	a5,s1,20013f18 <_malloc_r+0x4b4>
20013f12:	47bd                	li	a5,15
20013f14:	04e7c363          	blt	a5,a4,20013f5a <_malloc_r+0x4f6>
20013f18:	854a                	mv	a0,s2
20013f1a:	2a8d                	jal	2001408c <__malloc_unlock>
20013f1c:	be9d                	j	20013a92 <_malloc_r+0x2e>
20013f1e:	418b07b3          	sub	a5,s6,s8
20013f22:	97ba                	add	a5,a5,a4
20013f24:	5ffed717          	auipc	a4,0x5ffed
20013f28:	32f72a23          	sw	a5,820(a4) # 80001258 <__malloc_current_mallinfo>
20013f2c:	bfb9                	j	20013e8a <_malloc_r+0x426>
20013f2e:	004ba783          	lw	a5,4(s7)
20013f32:	ff4a8413          	addi	s0,s5,-12
20013f36:	9861                	andi	s0,s0,-8
20013f38:	8b85                	andi	a5,a5,1
20013f3a:	8fc1                	or	a5,a5,s0
20013f3c:	00fba223          	sw	a5,4(s7)
20013f40:	4695                	li	a3,5
20013f42:	008b87b3          	add	a5,s7,s0
20013f46:	c3d4                	sw	a3,4(a5)
20013f48:	c794                	sw	a3,8(a5)
20013f4a:	de8770e3          	bgeu	a4,s0,20013d2a <_malloc_r+0x2c6>
20013f4e:	008b8593          	addi	a1,s7,8
20013f52:	854a                	mv	a0,s2
20013f54:	87afe0ef          	jal	ra,20011fce <_free_r>
20013f58:	bbc9                	j	20013d2a <_malloc_r+0x2c6>
20013f5a:	0089a403          	lw	s0,8(s3)
20013f5e:	0014e793          	ori	a5,s1,1
20013f62:	c05c                	sw	a5,4(s0)
20013f64:	009407b3          	add	a5,s0,s1
20013f68:	5ffec697          	auipc	a3,0x5ffec
20013f6c:	62f6aa23          	sw	a5,1588(a3) # 8000059c <__malloc_av_+0x8>
20013f70:	b651                	j	20013af4 <_malloc_r+0x90>

20013f72 <_mbtowc_r>:
20013f72:	5ffed797          	auipc	a5,0x5ffed
20013f76:	28678793          	addi	a5,a5,646 # 800011f8 <_impure_ptr>
20013f7a:	439c                	lw	a5,0(a5)
20013f7c:	5bdc                	lw	a5,52(a5)
20013f7e:	e789                	bnez	a5,20013f88 <_mbtowc_r+0x16>
20013f80:	5ffec797          	auipc	a5,0x5ffec
20013f84:	4a878793          	addi	a5,a5,1192 # 80000428 <__global_locale>
20013f88:	0e47a303          	lw	t1,228(a5)
20013f8c:	8302                	jr	t1

20013f8e <__ascii_mbtowc>:
20013f8e:	e185                	bnez	a1,20013fae <__ascii_mbtowc+0x20>
20013f90:	1141                	addi	sp,sp,-16
20013f92:	006c                	addi	a1,sp,12
20013f94:	4501                	li	a0,0
20013f96:	ca11                	beqz	a2,20013faa <__ascii_mbtowc+0x1c>
20013f98:	5579                	li	a0,-2
20013f9a:	ca81                	beqz	a3,20013faa <__ascii_mbtowc+0x1c>
20013f9c:	00064783          	lbu	a5,0(a2)
20013fa0:	c19c                	sw	a5,0(a1)
20013fa2:	00064503          	lbu	a0,0(a2)
20013fa6:	00a03533          	snez	a0,a0
20013faa:	0141                	addi	sp,sp,16
20013fac:	8082                	ret
20013fae:	4501                	li	a0,0
20013fb0:	ca19                	beqz	a2,20013fc6 <__ascii_mbtowc+0x38>
20013fb2:	5579                	li	a0,-2
20013fb4:	ca89                	beqz	a3,20013fc6 <__ascii_mbtowc+0x38>
20013fb6:	00064783          	lbu	a5,0(a2)
20013fba:	c19c                	sw	a5,0(a1)
20013fbc:	00064503          	lbu	a0,0(a2)
20013fc0:	00a03533          	snez	a0,a0
20013fc4:	8082                	ret
20013fc6:	8082                	ret

20013fc8 <memchr>:
20013fc8:	0ff5f593          	andi	a1,a1,255
20013fcc:	962a                	add	a2,a2,a0
20013fce:	00c51463          	bne	a0,a2,20013fd6 <memchr+0xe>
20013fd2:	4501                	li	a0,0
20013fd4:	8082                	ret
20013fd6:	00054783          	lbu	a5,0(a0) # 1000 <__heap_size+0xc00>
20013fda:	feb78de3          	beq	a5,a1,20013fd4 <memchr+0xc>
20013fde:	0505                	addi	a0,a0,1
20013fe0:	b7fd                	j	20013fce <memchr+0x6>

20013fe2 <memset>:
20013fe2:	433d                	li	t1,15
20013fe4:	872a                	mv	a4,a0
20013fe6:	02c37363          	bgeu	t1,a2,2001400c <memset+0x2a>
20013fea:	00f77793          	andi	a5,a4,15
20013fee:	efbd                	bnez	a5,2001406c <memset+0x8a>
20013ff0:	e5ad                	bnez	a1,2001405a <memset+0x78>
20013ff2:	ff067693          	andi	a3,a2,-16
20013ff6:	8a3d                	andi	a2,a2,15
20013ff8:	96ba                	add	a3,a3,a4
20013ffa:	c30c                	sw	a1,0(a4)
20013ffc:	c34c                	sw	a1,4(a4)
20013ffe:	c70c                	sw	a1,8(a4)
20014000:	c74c                	sw	a1,12(a4)
20014002:	0741                	addi	a4,a4,16
20014004:	fed76be3          	bltu	a4,a3,20013ffa <memset+0x18>
20014008:	e211                	bnez	a2,2001400c <memset+0x2a>
2001400a:	8082                	ret
2001400c:	40c306b3          	sub	a3,t1,a2
20014010:	068a                	slli	a3,a3,0x2
20014012:	00000297          	auipc	t0,0x0
20014016:	9696                	add	a3,a3,t0
20014018:	00a68067          	jr	10(a3)
2001401c:	00b70723          	sb	a1,14(a4)
20014020:	00b706a3          	sb	a1,13(a4)
20014024:	00b70623          	sb	a1,12(a4)
20014028:	00b705a3          	sb	a1,11(a4)
2001402c:	00b70523          	sb	a1,10(a4)
20014030:	00b704a3          	sb	a1,9(a4)
20014034:	00b70423          	sb	a1,8(a4)
20014038:	00b703a3          	sb	a1,7(a4)
2001403c:	00b70323          	sb	a1,6(a4)
20014040:	00b702a3          	sb	a1,5(a4)
20014044:	00b70223          	sb	a1,4(a4)
20014048:	00b701a3          	sb	a1,3(a4)
2001404c:	00b70123          	sb	a1,2(a4)
20014050:	00b700a3          	sb	a1,1(a4)
20014054:	00b70023          	sb	a1,0(a4)
20014058:	8082                	ret
2001405a:	0ff5f593          	andi	a1,a1,255
2001405e:	00859693          	slli	a3,a1,0x8
20014062:	8dd5                	or	a1,a1,a3
20014064:	01059693          	slli	a3,a1,0x10
20014068:	8dd5                	or	a1,a1,a3
2001406a:	b761                	j	20013ff2 <memset+0x10>
2001406c:	00279693          	slli	a3,a5,0x2
20014070:	00000297          	auipc	t0,0x0
20014074:	9696                	add	a3,a3,t0
20014076:	8286                	mv	t0,ra
20014078:	fa8680e7          	jalr	-88(a3)
2001407c:	8096                	mv	ra,t0
2001407e:	17c1                	addi	a5,a5,-16
20014080:	8f1d                	sub	a4,a4,a5
20014082:	963e                	add	a2,a2,a5
20014084:	f8c374e3          	bgeu	t1,a2,2001400c <memset+0x2a>
20014088:	b7a5                	j	20013ff0 <memset+0xe>

2001408a <__malloc_lock>:
2001408a:	8082                	ret

2001408c <__malloc_unlock>:
2001408c:	8082                	ret

2001408e <_Balloc>:
2001408e:	457c                	lw	a5,76(a0)
20014090:	1141                	addi	sp,sp,-16
20014092:	c226                	sw	s1,4(sp)
20014094:	c04a                	sw	s2,0(sp)
20014096:	c606                	sw	ra,12(sp)
20014098:	c422                	sw	s0,8(sp)
2001409a:	84aa                	mv	s1,a0
2001409c:	892e                	mv	s2,a1
2001409e:	c795                	beqz	a5,200140ca <_Balloc+0x3c>
200140a0:	44f8                	lw	a4,76(s1)
200140a2:	00291793          	slli	a5,s2,0x2
200140a6:	97ba                	add	a5,a5,a4
200140a8:	4388                	lw	a0,0(a5)
200140aa:	ed15                	bnez	a0,200140e6 <_Balloc+0x58>
200140ac:	4405                	li	s0,1
200140ae:	01241433          	sll	s0,s0,s2
200140b2:	00540613          	addi	a2,s0,5
200140b6:	060a                	slli	a2,a2,0x2
200140b8:	4585                	li	a1,1
200140ba:	8526                	mv	a0,s1
200140bc:	4d5020ef          	jal	ra,20016d90 <_calloc_r>
200140c0:	cd01                	beqz	a0,200140d8 <_Balloc+0x4a>
200140c2:	01252223          	sw	s2,4(a0)
200140c6:	c500                	sw	s0,8(a0)
200140c8:	a00d                	j	200140ea <_Balloc+0x5c>
200140ca:	02100613          	li	a2,33
200140ce:	4591                	li	a1,4
200140d0:	4c1020ef          	jal	ra,20016d90 <_calloc_r>
200140d4:	c4e8                	sw	a0,76(s1)
200140d6:	f569                	bnez	a0,200140a0 <_Balloc+0x12>
200140d8:	4501                	li	a0,0
200140da:	40b2                	lw	ra,12(sp)
200140dc:	4422                	lw	s0,8(sp)
200140de:	4492                	lw	s1,4(sp)
200140e0:	4902                	lw	s2,0(sp)
200140e2:	0141                	addi	sp,sp,16
200140e4:	8082                	ret
200140e6:	4118                	lw	a4,0(a0)
200140e8:	c398                	sw	a4,0(a5)
200140ea:	00052823          	sw	zero,16(a0)
200140ee:	00052623          	sw	zero,12(a0)
200140f2:	b7e5                	j	200140da <_Balloc+0x4c>

200140f4 <_Bfree>:
200140f4:	c989                	beqz	a1,20014106 <_Bfree+0x12>
200140f6:	41dc                	lw	a5,4(a1)
200140f8:	00279713          	slli	a4,a5,0x2
200140fc:	457c                	lw	a5,76(a0)
200140fe:	97ba                	add	a5,a5,a4
20014100:	4398                	lw	a4,0(a5)
20014102:	c198                	sw	a4,0(a1)
20014104:	c38c                	sw	a1,0(a5)
20014106:	8082                	ret

20014108 <__multadd>:
20014108:	7179                	addi	sp,sp,-48
2001410a:	ce4e                	sw	s3,28(sp)
2001410c:	89aa                	mv	s3,a0
2001410e:	6541                	lui	a0,0x10
20014110:	d422                	sw	s0,40(sp)
20014112:	d226                	sw	s1,36(sp)
20014114:	842e                	mv	s0,a1
20014116:	4984                	lw	s1,16(a1)
20014118:	d606                	sw	ra,44(sp)
2001411a:	d04a                	sw	s2,32(sp)
2001411c:	05d1                	addi	a1,a1,20
2001411e:	4801                	li	a6,0
20014120:	157d                	addi	a0,a0,-1
20014122:	419c                	lw	a5,0(a1)
20014124:	0591                	addi	a1,a1,4
20014126:	0805                	addi	a6,a6,1
20014128:	00a7f733          	and	a4,a5,a0
2001412c:	02c70733          	mul	a4,a4,a2
20014130:	83c1                	srli	a5,a5,0x10
20014132:	02c787b3          	mul	a5,a5,a2
20014136:	9736                	add	a4,a4,a3
20014138:	01075693          	srli	a3,a4,0x10
2001413c:	8f69                	and	a4,a4,a0
2001413e:	97b6                	add	a5,a5,a3
20014140:	0107d693          	srli	a3,a5,0x10
20014144:	07c2                	slli	a5,a5,0x10
20014146:	97ba                	add	a5,a5,a4
20014148:	fef5ae23          	sw	a5,-4(a1)
2001414c:	fc984be3          	blt	a6,s1,20014122 <__multadd+0x1a>
20014150:	ce95                	beqz	a3,2001418c <__multadd+0x84>
20014152:	441c                	lw	a5,8(s0)
20014154:	02f4c563          	blt	s1,a5,2001417e <__multadd+0x76>
20014158:	404c                	lw	a1,4(s0)
2001415a:	854e                	mv	a0,s3
2001415c:	c636                	sw	a3,12(sp)
2001415e:	0585                	addi	a1,a1,1
20014160:	373d                	jal	2001408e <_Balloc>
20014162:	4810                	lw	a2,16(s0)
20014164:	00c40593          	addi	a1,s0,12
20014168:	892a                	mv	s2,a0
2001416a:	0609                	addi	a2,a2,2
2001416c:	060a                	slli	a2,a2,0x2
2001416e:	0531                	addi	a0,a0,12
20014170:	1c2030ef          	jal	ra,20017332 <memcpy>
20014174:	85a2                	mv	a1,s0
20014176:	854e                	mv	a0,s3
20014178:	3fb5                	jal	200140f4 <_Bfree>
2001417a:	46b2                	lw	a3,12(sp)
2001417c:	844a                	mv	s0,s2
2001417e:	00448793          	addi	a5,s1,4
20014182:	078a                	slli	a5,a5,0x2
20014184:	97a2                	add	a5,a5,s0
20014186:	c3d4                	sw	a3,4(a5)
20014188:	0485                	addi	s1,s1,1
2001418a:	c804                	sw	s1,16(s0)
2001418c:	8522                	mv	a0,s0
2001418e:	50b2                	lw	ra,44(sp)
20014190:	5422                	lw	s0,40(sp)
20014192:	5492                	lw	s1,36(sp)
20014194:	5902                	lw	s2,32(sp)
20014196:	49f2                	lw	s3,28(sp)
20014198:	6145                	addi	sp,sp,48
2001419a:	8082                	ret

2001419c <__s2b>:
2001419c:	7179                	addi	sp,sp,-48
2001419e:	00868793          	addi	a5,a3,8
200141a2:	cc52                	sw	s4,24(sp)
200141a4:	8a36                	mv	s4,a3
200141a6:	46a5                	li	a3,9
200141a8:	d422                	sw	s0,40(sp)
200141aa:	d226                	sw	s1,36(sp)
200141ac:	ce4e                	sw	s3,28(sp)
200141ae:	842e                	mv	s0,a1
200141b0:	02d7c7b3          	div	a5,a5,a3
200141b4:	d606                	sw	ra,44(sp)
200141b6:	d04a                	sw	s2,32(sp)
200141b8:	ca56                	sw	s5,20(sp)
200141ba:	89aa                	mv	s3,a0
200141bc:	84b2                	mv	s1,a2
200141be:	4685                	li	a3,1
200141c0:	4581                	li	a1,0
200141c2:	04f6ca63          	blt	a3,a5,20014216 <__s2b+0x7a>
200141c6:	854e                	mv	a0,s3
200141c8:	c63a                	sw	a4,12(sp)
200141ca:	35d1                	jal	2001408e <_Balloc>
200141cc:	4732                	lw	a4,12(sp)
200141ce:	4785                	li	a5,1
200141d0:	c91c                	sw	a5,16(a0)
200141d2:	c958                	sw	a4,20(a0)
200141d4:	47a5                	li	a5,9
200141d6:	0497d363          	bge	a5,s1,2001421c <__s2b+0x80>
200141da:	00940a93          	addi	s5,s0,9
200141de:	8956                	mv	s2,s5
200141e0:	9426                	add	s0,s0,s1
200141e2:	0905                	addi	s2,s2,1
200141e4:	fff94683          	lbu	a3,-1(s2)
200141e8:	85aa                	mv	a1,a0
200141ea:	4629                	li	a2,10
200141ec:	fd068693          	addi	a3,a3,-48
200141f0:	854e                	mv	a0,s3
200141f2:	3f19                	jal	20014108 <__multadd>
200141f4:	fe8917e3          	bne	s2,s0,200141e2 <__s2b+0x46>
200141f8:	ff848413          	addi	s0,s1,-8
200141fc:	9456                	add	s0,s0,s5
200141fe:	8926                	mv	s2,s1
20014200:	03494163          	blt	s2,s4,20014222 <__s2b+0x86>
20014204:	50b2                	lw	ra,44(sp)
20014206:	5422                	lw	s0,40(sp)
20014208:	5492                	lw	s1,36(sp)
2001420a:	5902                	lw	s2,32(sp)
2001420c:	49f2                	lw	s3,28(sp)
2001420e:	4a62                	lw	s4,24(sp)
20014210:	4ad2                	lw	s5,20(sp)
20014212:	6145                	addi	sp,sp,48
20014214:	8082                	ret
20014216:	0686                	slli	a3,a3,0x1
20014218:	0585                	addi	a1,a1,1
2001421a:	b765                	j	200141c2 <__s2b+0x26>
2001421c:	0429                	addi	s0,s0,10
2001421e:	44a5                	li	s1,9
20014220:	bff9                	j	200141fe <__s2b+0x62>
20014222:	409907b3          	sub	a5,s2,s1
20014226:	97a2                	add	a5,a5,s0
20014228:	0007c683          	lbu	a3,0(a5)
2001422c:	85aa                	mv	a1,a0
2001422e:	4629                	li	a2,10
20014230:	fd068693          	addi	a3,a3,-48
20014234:	854e                	mv	a0,s3
20014236:	3dc9                	jal	20014108 <__multadd>
20014238:	0905                	addi	s2,s2,1
2001423a:	b7d9                	j	20014200 <__s2b+0x64>

2001423c <__hi0bits>:
2001423c:	7741                	lui	a4,0xffff0
2001423e:	8f69                	and	a4,a4,a0
20014240:	87aa                	mv	a5,a0
20014242:	4501                	li	a0,0
20014244:	e319                	bnez	a4,2001424a <__hi0bits+0xe>
20014246:	07c2                	slli	a5,a5,0x10
20014248:	4541                	li	a0,16
2001424a:	ff000737          	lui	a4,0xff000
2001424e:	8f7d                	and	a4,a4,a5
20014250:	e319                	bnez	a4,20014256 <__hi0bits+0x1a>
20014252:	0521                	addi	a0,a0,8
20014254:	07a2                	slli	a5,a5,0x8
20014256:	f0000737          	lui	a4,0xf0000
2001425a:	8f7d                	and	a4,a4,a5
2001425c:	e319                	bnez	a4,20014262 <__hi0bits+0x26>
2001425e:	0511                	addi	a0,a0,4
20014260:	0792                	slli	a5,a5,0x4
20014262:	c0000737          	lui	a4,0xc0000
20014266:	8f7d                	and	a4,a4,a5
20014268:	e319                	bnez	a4,2001426e <__hi0bits+0x32>
2001426a:	0509                	addi	a0,a0,2
2001426c:	078a                	slli	a5,a5,0x2
2001426e:	0007c963          	bltz	a5,20014280 <__hi0bits+0x44>
20014272:	00179713          	slli	a4,a5,0x1
20014276:	0505                	addi	a0,a0,1
20014278:	00074463          	bltz	a4,20014280 <__hi0bits+0x44>
2001427c:	02000513          	li	a0,32
20014280:	8082                	ret

20014282 <__lo0bits>:
20014282:	411c                	lw	a5,0(a0)
20014284:	0077f713          	andi	a4,a5,7
20014288:	c30d                	beqz	a4,200142aa <__lo0bits+0x28>
2001428a:	0017f693          	andi	a3,a5,1
2001428e:	4701                	li	a4,0
20014290:	e699                	bnez	a3,2001429e <__lo0bits+0x1c>
20014292:	0027f713          	andi	a4,a5,2
20014296:	c711                	beqz	a4,200142a2 <__lo0bits+0x20>
20014298:	8385                	srli	a5,a5,0x1
2001429a:	c11c                	sw	a5,0(a0)
2001429c:	4705                	li	a4,1
2001429e:	853a                	mv	a0,a4
200142a0:	8082                	ret
200142a2:	8389                	srli	a5,a5,0x2
200142a4:	c11c                	sw	a5,0(a0)
200142a6:	4709                	li	a4,2
200142a8:	bfdd                	j	2001429e <__lo0bits+0x1c>
200142aa:	01079693          	slli	a3,a5,0x10
200142ae:	82c1                	srli	a3,a3,0x10
200142b0:	4701                	li	a4,0
200142b2:	e299                	bnez	a3,200142b8 <__lo0bits+0x36>
200142b4:	83c1                	srli	a5,a5,0x10
200142b6:	4741                	li	a4,16
200142b8:	0ff7f693          	andi	a3,a5,255
200142bc:	e299                	bnez	a3,200142c2 <__lo0bits+0x40>
200142be:	0721                	addi	a4,a4,8
200142c0:	83a1                	srli	a5,a5,0x8
200142c2:	00f7f693          	andi	a3,a5,15
200142c6:	e299                	bnez	a3,200142cc <__lo0bits+0x4a>
200142c8:	0711                	addi	a4,a4,4
200142ca:	8391                	srli	a5,a5,0x4
200142cc:	0037f693          	andi	a3,a5,3
200142d0:	e299                	bnez	a3,200142d6 <__lo0bits+0x54>
200142d2:	0709                	addi	a4,a4,2
200142d4:	8389                	srli	a5,a5,0x2
200142d6:	0017f693          	andi	a3,a5,1
200142da:	e681                	bnez	a3,200142e2 <__lo0bits+0x60>
200142dc:	8385                	srli	a5,a5,0x1
200142de:	0705                	addi	a4,a4,1
200142e0:	c399                	beqz	a5,200142e6 <__lo0bits+0x64>
200142e2:	c11c                	sw	a5,0(a0)
200142e4:	bf6d                	j	2001429e <__lo0bits+0x1c>
200142e6:	02000713          	li	a4,32
200142ea:	bf55                	j	2001429e <__lo0bits+0x1c>

200142ec <__i2b>:
200142ec:	1141                	addi	sp,sp,-16
200142ee:	c422                	sw	s0,8(sp)
200142f0:	842e                	mv	s0,a1
200142f2:	4585                	li	a1,1
200142f4:	c606                	sw	ra,12(sp)
200142f6:	3b61                	jal	2001408e <_Balloc>
200142f8:	c940                	sw	s0,20(a0)
200142fa:	40b2                	lw	ra,12(sp)
200142fc:	4422                	lw	s0,8(sp)
200142fe:	4705                	li	a4,1
20014300:	c918                	sw	a4,16(a0)
20014302:	0141                	addi	sp,sp,16
20014304:	8082                	ret

20014306 <__multiply>:
20014306:	4998                	lw	a4,16(a1)
20014308:	4a1c                	lw	a5,16(a2)
2001430a:	7179                	addi	sp,sp,-48
2001430c:	d226                	sw	s1,36(sp)
2001430e:	d606                	sw	ra,44(sp)
20014310:	d422                	sw	s0,40(sp)
20014312:	d04a                	sw	s2,32(sp)
20014314:	ce4e                	sw	s3,28(sp)
20014316:	84ae                	mv	s1,a1
20014318:	00f75463          	bge	a4,a5,20014320 <__multiply+0x1a>
2001431c:	84b2                	mv	s1,a2
2001431e:	862e                	mv	a2,a1
20014320:	0104a983          	lw	s3,16(s1)
20014324:	01062903          	lw	s2,16(a2)
20014328:	449c                	lw	a5,8(s1)
2001432a:	40cc                	lw	a1,4(s1)
2001432c:	01298433          	add	s0,s3,s2
20014330:	0087d363          	bge	a5,s0,20014336 <__multiply+0x30>
20014334:	0585                	addi	a1,a1,1
20014336:	c632                	sw	a2,12(sp)
20014338:	3b99                	jal	2001408e <_Balloc>
2001433a:	4632                	lw	a2,12(sp)
2001433c:	01450813          	addi	a6,a0,20 # 10014 <__heap_size+0xfc14>
20014340:	00241313          	slli	t1,s0,0x2
20014344:	9342                	add	t1,t1,a6
20014346:	87c2                	mv	a5,a6
20014348:	0267ed63          	bltu	a5,t1,20014382 <__multiply+0x7c>
2001434c:	01448593          	addi	a1,s1,20
20014350:	00299893          	slli	a7,s3,0x2
20014354:	0651                	addi	a2,a2,20
20014356:	00291e13          	slli	t3,s2,0x2
2001435a:	66c1                	lui	a3,0x10
2001435c:	98ae                	add	a7,a7,a1
2001435e:	9e32                	add	t3,t3,a2
20014360:	16fd                	addi	a3,a3,-1
20014362:	03c66463          	bltu	a2,t3,2001438a <__multiply+0x84>
20014366:	00805663          	blez	s0,20014372 <__multiply+0x6c>
2001436a:	1371                	addi	t1,t1,-4
2001436c:	00032783          	lw	a5,0(t1) # 10000 <__heap_size+0xfc00>
20014370:	cbf1                	beqz	a5,20014444 <__multiply+0x13e>
20014372:	c900                	sw	s0,16(a0)
20014374:	50b2                	lw	ra,44(sp)
20014376:	5422                	lw	s0,40(sp)
20014378:	5492                	lw	s1,36(sp)
2001437a:	5902                	lw	s2,32(sp)
2001437c:	49f2                	lw	s3,28(sp)
2001437e:	6145                	addi	sp,sp,48
20014380:	8082                	ret
20014382:	0007a023          	sw	zero,0(a5)
20014386:	0791                	addi	a5,a5,4
20014388:	b7c1                	j	20014348 <__multiply+0x42>
2001438a:	00062f83          	lw	t6,0(a2)
2001438e:	00dfffb3          	and	t6,t6,a3
20014392:	040f8a63          	beqz	t6,200143e6 <__multiply+0xe0>
20014396:	8f42                	mv	t5,a6
20014398:	82ae                	mv	t0,a1
2001439a:	4481                	li	s1,0
2001439c:	0002a703          	lw	a4,0(t0) # 20014070 <memset+0x8e>
200143a0:	000f2383          	lw	t2,0(t5)
200143a4:	0f11                	addi	t5,t5,4
200143a6:	00d77eb3          	and	t4,a4,a3
200143aa:	03fe8eb3          	mul	t4,t4,t6
200143ae:	00d3f7b3          	and	a5,t2,a3
200143b2:	0103d393          	srli	t2,t2,0x10
200143b6:	0291                	addi	t0,t0,4
200143b8:	9ebe                	add	t4,t4,a5
200143ba:	01075793          	srli	a5,a4,0x10
200143be:	03f787b3          	mul	a5,a5,t6
200143c2:	9ea6                	add	t4,t4,s1
200143c4:	010ed713          	srli	a4,t4,0x10
200143c8:	00defeb3          	and	t4,t4,a3
200143cc:	979e                	add	a5,a5,t2
200143ce:	97ba                	add	a5,a5,a4
200143d0:	0107d493          	srli	s1,a5,0x10
200143d4:	07c2                	slli	a5,a5,0x10
200143d6:	01d7e7b3          	or	a5,a5,t4
200143da:	feff2e23          	sw	a5,-4(t5)
200143de:	fb12efe3          	bltu	t0,a7,2001439c <__multiply+0x96>
200143e2:	009f2023          	sw	s1,0(t5)
200143e6:	00265283          	lhu	t0,2(a2)
200143ea:	04028a63          	beqz	t0,2001443e <__multiply+0x138>
200143ee:	00082783          	lw	a5,0(a6)
200143f2:	8ec2                	mv	t4,a6
200143f4:	8f2e                	mv	t5,a1
200143f6:	4f81                	li	t6,0
200143f8:	000f2703          	lw	a4,0(t5)
200143fc:	002ed383          	lhu	t2,2(t4)
20014400:	8ff5                	and	a5,a5,a3
20014402:	8f75                	and	a4,a4,a3
20014404:	02570733          	mul	a4,a4,t0
20014408:	0e91                	addi	t4,t4,4
2001440a:	0f11                	addi	t5,t5,4
2001440c:	971e                	add	a4,a4,t2
2001440e:	977e                	add	a4,a4,t6
20014410:	01071f93          	slli	t6,a4,0x10
20014414:	00ffe7b3          	or	a5,t6,a5
20014418:	fefeae23          	sw	a5,-4(t4)
2001441c:	ffef5783          	lhu	a5,-2(t5)
20014420:	000eaf83          	lw	t6,0(t4)
20014424:	8341                	srli	a4,a4,0x10
20014426:	025787b3          	mul	a5,a5,t0
2001442a:	00dfffb3          	and	t6,t6,a3
2001442e:	97fe                	add	a5,a5,t6
20014430:	97ba                	add	a5,a5,a4
20014432:	0107df93          	srli	t6,a5,0x10
20014436:	fd1f61e3          	bltu	t5,a7,200143f8 <__multiply+0xf2>
2001443a:	00fea023          	sw	a5,0(t4)
2001443e:	0611                	addi	a2,a2,4
20014440:	0811                	addi	a6,a6,4
20014442:	b705                	j	20014362 <__multiply+0x5c>
20014444:	147d                	addi	s0,s0,-1
20014446:	b705                	j	20014366 <__multiply+0x60>

20014448 <__pow5mult>:
20014448:	1101                	addi	sp,sp,-32
2001444a:	ca26                	sw	s1,20(sp)
2001444c:	c84a                	sw	s2,16(sp)
2001444e:	c64e                	sw	s3,12(sp)
20014450:	ce06                	sw	ra,28(sp)
20014452:	cc22                	sw	s0,24(sp)
20014454:	c452                	sw	s4,8(sp)
20014456:	00367793          	andi	a5,a2,3
2001445a:	892a                	mv	s2,a0
2001445c:	84b2                	mv	s1,a2
2001445e:	89ae                	mv	s3,a1
20014460:	cf81                	beqz	a5,20014478 <__pow5mult+0x30>
20014462:	17fd                	addi	a5,a5,-1
20014464:	0000a717          	auipc	a4,0xa
20014468:	bf470713          	addi	a4,a4,-1036 # 2001e058 <p05.3308>
2001446c:	078a                	slli	a5,a5,0x2
2001446e:	97ba                	add	a5,a5,a4
20014470:	4390                	lw	a2,0(a5)
20014472:	4681                	li	a3,0
20014474:	3951                	jal	20014108 <__multadd>
20014476:	89aa                	mv	s3,a0
20014478:	8489                	srai	s1,s1,0x2
2001447a:	c4b1                	beqz	s1,200144c6 <__pow5mult+0x7e>
2001447c:	04892403          	lw	s0,72(s2)
20014480:	e811                	bnez	s0,20014494 <__pow5mult+0x4c>
20014482:	27100593          	li	a1,625
20014486:	854a                	mv	a0,s2
20014488:	3595                	jal	200142ec <__i2b>
2001448a:	04a92423          	sw	a0,72(s2)
2001448e:	842a                	mv	s0,a0
20014490:	00052023          	sw	zero,0(a0)
20014494:	0014f793          	andi	a5,s1,1
20014498:	cb91                	beqz	a5,200144ac <__pow5mult+0x64>
2001449a:	85ce                	mv	a1,s3
2001449c:	8622                	mv	a2,s0
2001449e:	854a                	mv	a0,s2
200144a0:	359d                	jal	20014306 <__multiply>
200144a2:	8a2a                	mv	s4,a0
200144a4:	85ce                	mv	a1,s3
200144a6:	854a                	mv	a0,s2
200144a8:	31b1                	jal	200140f4 <_Bfree>
200144aa:	89d2                	mv	s3,s4
200144ac:	8485                	srai	s1,s1,0x1
200144ae:	cc81                	beqz	s1,200144c6 <__pow5mult+0x7e>
200144b0:	4008                	lw	a0,0(s0)
200144b2:	e901                	bnez	a0,200144c2 <__pow5mult+0x7a>
200144b4:	8622                	mv	a2,s0
200144b6:	85a2                	mv	a1,s0
200144b8:	854a                	mv	a0,s2
200144ba:	35b1                	jal	20014306 <__multiply>
200144bc:	c008                	sw	a0,0(s0)
200144be:	00052023          	sw	zero,0(a0)
200144c2:	842a                	mv	s0,a0
200144c4:	bfc1                	j	20014494 <__pow5mult+0x4c>
200144c6:	40f2                	lw	ra,28(sp)
200144c8:	4462                	lw	s0,24(sp)
200144ca:	854e                	mv	a0,s3
200144cc:	44d2                	lw	s1,20(sp)
200144ce:	4942                	lw	s2,16(sp)
200144d0:	49b2                	lw	s3,12(sp)
200144d2:	4a22                	lw	s4,8(sp)
200144d4:	6105                	addi	sp,sp,32
200144d6:	8082                	ret

200144d8 <__lshift>:
200144d8:	7179                	addi	sp,sp,-48
200144da:	d226                	sw	s1,36(sp)
200144dc:	84ae                	mv	s1,a1
200144de:	ce4e                	sw	s3,28(sp)
200144e0:	0104a983          	lw	s3,16(s1)
200144e4:	d422                	sw	s0,40(sp)
200144e6:	41cc                	lw	a1,4(a1)
200144e8:	40565413          	srai	s0,a2,0x5
200144ec:	449c                	lw	a5,8(s1)
200144ee:	99a2                	add	s3,s3,s0
200144f0:	d04a                	sw	s2,32(sp)
200144f2:	ca56                	sw	s5,20(sp)
200144f4:	d606                	sw	ra,44(sp)
200144f6:	cc52                	sw	s4,24(sp)
200144f8:	8aaa                	mv	s5,a0
200144fa:	00198913          	addi	s2,s3,1
200144fe:	0927c263          	blt	a5,s2,20014582 <__lshift+0xaa>
20014502:	8556                	mv	a0,s5
20014504:	c632                	sw	a2,12(sp)
20014506:	3661                	jal	2001408e <_Balloc>
20014508:	4632                	lw	a2,12(sp)
2001450a:	01450793          	addi	a5,a0,20
2001450e:	8a2a                	mv	s4,a0
20014510:	86be                	mv	a3,a5
20014512:	4701                	li	a4,0
20014514:	0691                	addi	a3,a3,4
20014516:	06874963          	blt	a4,s0,20014588 <__lshift+0xb0>
2001451a:	00045363          	bgez	s0,20014520 <__lshift+0x48>
2001451e:	4401                	li	s0,0
20014520:	4894                	lw	a3,16(s1)
20014522:	040a                	slli	s0,s0,0x2
20014524:	00878733          	add	a4,a5,s0
20014528:	068a                	slli	a3,a3,0x2
2001452a:	01448793          	addi	a5,s1,20
2001452e:	8a7d                	andi	a2,a2,31
20014530:	96be                	add	a3,a3,a5
20014532:	ce39                	beqz	a2,20014590 <__lshift+0xb8>
20014534:	02000813          	li	a6,32
20014538:	40c80833          	sub	a6,a6,a2
2001453c:	4581                	li	a1,0
2001453e:	4388                	lw	a0,0(a5)
20014540:	0711                	addi	a4,a4,4
20014542:	0791                	addi	a5,a5,4
20014544:	00c51533          	sll	a0,a0,a2
20014548:	8dc9                	or	a1,a1,a0
2001454a:	feb72e23          	sw	a1,-4(a4)
2001454e:	ffc7a583          	lw	a1,-4(a5)
20014552:	0105d5b3          	srl	a1,a1,a6
20014556:	fed7e4e3          	bltu	a5,a3,2001453e <__lshift+0x66>
2001455a:	c30c                	sw	a1,0(a4)
2001455c:	c199                	beqz	a1,20014562 <__lshift+0x8a>
2001455e:	00298913          	addi	s2,s3,2
20014562:	197d                	addi	s2,s2,-1
20014564:	012a2823          	sw	s2,16(s4)
20014568:	8556                	mv	a0,s5
2001456a:	85a6                	mv	a1,s1
2001456c:	3661                	jal	200140f4 <_Bfree>
2001456e:	50b2                	lw	ra,44(sp)
20014570:	5422                	lw	s0,40(sp)
20014572:	8552                	mv	a0,s4
20014574:	5492                	lw	s1,36(sp)
20014576:	5902                	lw	s2,32(sp)
20014578:	49f2                	lw	s3,28(sp)
2001457a:	4a62                	lw	s4,24(sp)
2001457c:	4ad2                	lw	s5,20(sp)
2001457e:	6145                	addi	sp,sp,48
20014580:	8082                	ret
20014582:	0585                	addi	a1,a1,1
20014584:	0786                	slli	a5,a5,0x1
20014586:	bfa5                	j	200144fe <__lshift+0x26>
20014588:	fe06ae23          	sw	zero,-4(a3) # fffc <__heap_size+0xfbfc>
2001458c:	0705                	addi	a4,a4,1
2001458e:	b759                	j	20014514 <__lshift+0x3c>
20014590:	0791                	addi	a5,a5,4
20014592:	ffc7a603          	lw	a2,-4(a5)
20014596:	0711                	addi	a4,a4,4
20014598:	fec72e23          	sw	a2,-4(a4)
2001459c:	fed7eae3          	bltu	a5,a3,20014590 <__lshift+0xb8>
200145a0:	b7c9                	j	20014562 <__lshift+0x8a>

200145a2 <__mcmp>:
200145a2:	491c                	lw	a5,16(a0)
200145a4:	4998                	lw	a4,16(a1)
200145a6:	8f99                	sub	a5,a5,a4
200145a8:	e38d                	bnez	a5,200145ca <__mcmp+0x28>
200145aa:	070a                	slli	a4,a4,0x2
200145ac:	0551                	addi	a0,a0,20
200145ae:	05d1                	addi	a1,a1,20
200145b0:	00e506b3          	add	a3,a0,a4
200145b4:	95ba                	add	a1,a1,a4
200145b6:	16f1                	addi	a3,a3,-4
200145b8:	15f1                	addi	a1,a1,-4
200145ba:	4290                	lw	a2,0(a3)
200145bc:	4198                	lw	a4,0(a1)
200145be:	00e60863          	beq	a2,a4,200145ce <__mcmp+0x2c>
200145c2:	57fd                	li	a5,-1
200145c4:	00e66363          	bltu	a2,a4,200145ca <__mcmp+0x28>
200145c8:	4785                	li	a5,1
200145ca:	853e                	mv	a0,a5
200145cc:	8082                	ret
200145ce:	fed564e3          	bltu	a0,a3,200145b6 <__mcmp+0x14>
200145d2:	bfe5                	j	200145ca <__mcmp+0x28>

200145d4 <__mdiff>:
200145d4:	1101                	addi	sp,sp,-32
200145d6:	ca26                	sw	s1,20(sp)
200145d8:	84ae                	mv	s1,a1
200145da:	c64e                	sw	s3,12(sp)
200145dc:	85b2                	mv	a1,a2
200145de:	89aa                	mv	s3,a0
200145e0:	8526                	mv	a0,s1
200145e2:	cc22                	sw	s0,24(sp)
200145e4:	ce06                	sw	ra,28(sp)
200145e6:	c84a                	sw	s2,16(sp)
200145e8:	8432                	mv	s0,a2
200145ea:	3f65                	jal	200145a2 <__mcmp>
200145ec:	ed19                	bnez	a0,2001460a <__mdiff+0x36>
200145ee:	4581                	li	a1,0
200145f0:	854e                	mv	a0,s3
200145f2:	3c71                	jal	2001408e <_Balloc>
200145f4:	4785                	li	a5,1
200145f6:	c91c                	sw	a5,16(a0)
200145f8:	00052a23          	sw	zero,20(a0)
200145fc:	40f2                	lw	ra,28(sp)
200145fe:	4462                	lw	s0,24(sp)
20014600:	44d2                	lw	s1,20(sp)
20014602:	4942                	lw	s2,16(sp)
20014604:	49b2                	lw	s3,12(sp)
20014606:	6105                	addi	sp,sp,32
20014608:	8082                	ret
2001460a:	4905                	li	s2,1
2001460c:	00054663          	bltz	a0,20014618 <__mdiff+0x44>
20014610:	87a2                	mv	a5,s0
20014612:	4901                	li	s2,0
20014614:	8426                	mv	s0,s1
20014616:	84be                	mv	s1,a5
20014618:	404c                	lw	a1,4(s0)
2001461a:	854e                	mv	a0,s3
2001461c:	3c8d                	jal	2001408e <_Balloc>
2001461e:	01042303          	lw	t1,16(s0)
20014622:	0104a883          	lw	a7,16(s1)
20014626:	01440613          	addi	a2,s0,20
2001462a:	00231e13          	slli	t3,t1,0x2
2001462e:	01448813          	addi	a6,s1,20
20014632:	088a                	slli	a7,a7,0x2
20014634:	6ec1                	lui	t4,0x10
20014636:	01252623          	sw	s2,12(a0)
2001463a:	9e32                	add	t3,t3,a2
2001463c:	98c2                	add	a7,a7,a6
2001463e:	01450693          	addi	a3,a0,20
20014642:	4f01                	li	t5,0
20014644:	1efd                	addi	t4,t4,-1
20014646:	4218                	lw	a4,0(a2)
20014648:	00082f83          	lw	t6,0(a6)
2001464c:	0691                	addi	a3,a3,4
2001464e:	01d775b3          	and	a1,a4,t4
20014652:	01dff7b3          	and	a5,t6,t4
20014656:	95fa                	add	a1,a1,t5
20014658:	8d9d                	sub	a1,a1,a5
2001465a:	010fdf93          	srli	t6,t6,0x10
2001465e:	01075793          	srli	a5,a4,0x10
20014662:	41f787b3          	sub	a5,a5,t6
20014666:	4105d713          	srai	a4,a1,0x10
2001466a:	97ba                	add	a5,a5,a4
2001466c:	4107df13          	srai	t5,a5,0x10
20014670:	01d5f5b3          	and	a1,a1,t4
20014674:	07c2                	slli	a5,a5,0x10
20014676:	8fcd                	or	a5,a5,a1
20014678:	0811                	addi	a6,a6,4
2001467a:	fef6ae23          	sw	a5,-4(a3)
2001467e:	0611                	addi	a2,a2,4
20014680:	fd1863e3          	bltu	a6,a7,20014646 <__mdiff+0x72>
20014684:	65c1                	lui	a1,0x10
20014686:	15fd                	addi	a1,a1,-1
20014688:	01c66863          	bltu	a2,t3,20014698 <__mdiff+0xc4>
2001468c:	16f1                	addi	a3,a3,-4
2001468e:	429c                	lw	a5,0(a3)
20014690:	c795                	beqz	a5,200146bc <__mdiff+0xe8>
20014692:	00652823          	sw	t1,16(a0)
20014696:	b79d                	j	200145fc <__mdiff+0x28>
20014698:	421c                	lw	a5,0(a2)
2001469a:	0691                	addi	a3,a3,4
2001469c:	0611                	addi	a2,a2,4
2001469e:	00b7f733          	and	a4,a5,a1
200146a2:	977a                	add	a4,a4,t5
200146a4:	41075813          	srai	a6,a4,0x10
200146a8:	83c1                	srli	a5,a5,0x10
200146aa:	97c2                	add	a5,a5,a6
200146ac:	4107df13          	srai	t5,a5,0x10
200146b0:	8f6d                	and	a4,a4,a1
200146b2:	07c2                	slli	a5,a5,0x10
200146b4:	8fd9                	or	a5,a5,a4
200146b6:	fef6ae23          	sw	a5,-4(a3)
200146ba:	b7f9                	j	20014688 <__mdiff+0xb4>
200146bc:	137d                	addi	t1,t1,-1
200146be:	b7f9                	j	2001468c <__mdiff+0xb8>

200146c0 <__ulp>:
200146c0:	7ff007b7          	lui	a5,0x7ff00
200146c4:	8dfd                	and	a1,a1,a5
200146c6:	fcc007b7          	lui	a5,0xfcc00
200146ca:	95be                	add	a1,a1,a5
200146cc:	00b05563          	blez	a1,200146d6 <__ulp+0x16>
200146d0:	4781                	li	a5,0
200146d2:	853e                	mv	a0,a5
200146d4:	8082                	ret
200146d6:	40b005b3          	neg	a1,a1
200146da:	4145d793          	srai	a5,a1,0x14
200146de:	474d                	li	a4,19
200146e0:	00f74763          	blt	a4,a5,200146ee <__ulp+0x2e>
200146e4:	000805b7          	lui	a1,0x80
200146e8:	40f5d5b3          	sra	a1,a1,a5
200146ec:	b7d5                	j	200146d0 <__ulp+0x10>
200146ee:	fec78713          	addi	a4,a5,-20 # fcbfffec <metal_segment_heap_target_end+0x7cbfbfec>
200146f2:	46f9                	li	a3,30
200146f4:	4581                	li	a1,0
200146f6:	4785                	li	a5,1
200146f8:	fce6cde3          	blt	a3,a4,200146d2 <__ulp+0x12>
200146fc:	800007b7          	lui	a5,0x80000
20014700:	00e7d7b3          	srl	a5,a5,a4
20014704:	b7f9                	j	200146d2 <__ulp+0x12>

20014706 <__b2d>:
20014706:	7179                	addi	sp,sp,-48
20014708:	d226                	sw	s1,36(sp)
2001470a:	4904                	lw	s1,16(a0)
2001470c:	ce4e                	sw	s3,28(sp)
2001470e:	01450993          	addi	s3,a0,20
20014712:	048a                	slli	s1,s1,0x2
20014714:	94ce                	add	s1,s1,s3
20014716:	d422                	sw	s0,40(sp)
20014718:	ffc4a403          	lw	s0,-4(s1)
2001471c:	d04a                	sw	s2,32(sp)
2001471e:	c62e                	sw	a1,12(sp)
20014720:	8522                	mv	a0,s0
20014722:	d606                	sw	ra,44(sp)
20014724:	3e21                	jal	2001423c <__hi0bits>
20014726:	45b2                	lw	a1,12(sp)
20014728:	02000793          	li	a5,32
2001472c:	8f89                	sub	a5,a5,a0
2001472e:	c19c                	sw	a5,0(a1)
20014730:	47a9                	li	a5,10
20014732:	ffc48913          	addi	s2,s1,-4
20014736:	02a7cd63          	blt	a5,a0,20014770 <__b2d+0x6a>
2001473a:	47ad                	li	a5,11
2001473c:	8f89                	sub	a5,a5,a0
2001473e:	3ff00737          	lui	a4,0x3ff00
20014742:	00f456b3          	srl	a3,s0,a5
20014746:	8ed9                	or	a3,a3,a4
20014748:	4701                	li	a4,0
2001474a:	0129f463          	bgeu	s3,s2,20014752 <__b2d+0x4c>
2001474e:	ff84a703          	lw	a4,-8(s1)
20014752:	0555                	addi	a0,a0,21
20014754:	00a41533          	sll	a0,s0,a0
20014758:	00f757b3          	srl	a5,a4,a5
2001475c:	8fc9                	or	a5,a5,a0
2001475e:	50b2                	lw	ra,44(sp)
20014760:	5422                	lw	s0,40(sp)
20014762:	5492                	lw	s1,36(sp)
20014764:	5902                	lw	s2,32(sp)
20014766:	49f2                	lw	s3,28(sp)
20014768:	853e                	mv	a0,a5
2001476a:	85b6                	mv	a1,a3
2001476c:	6145                	addi	sp,sp,48
2001476e:	8082                	ret
20014770:	4781                	li	a5,0
20014772:	0129f663          	bgeu	s3,s2,2001477e <__b2d+0x78>
20014776:	ff84a783          	lw	a5,-8(s1)
2001477a:	ff848913          	addi	s2,s1,-8
2001477e:	1555                	addi	a0,a0,-11
20014780:	c905                	beqz	a0,200147b0 <__b2d+0xaa>
20014782:	02000713          	li	a4,32
20014786:	40a70633          	sub	a2,a4,a0
2001478a:	00c7d733          	srl	a4,a5,a2
2001478e:	00a41433          	sll	s0,s0,a0
20014792:	8c59                	or	s0,s0,a4
20014794:	3ff006b7          	lui	a3,0x3ff00
20014798:	8ec1                	or	a3,a3,s0
2001479a:	4701                	li	a4,0
2001479c:	0129f463          	bgeu	s3,s2,200147a4 <__b2d+0x9e>
200147a0:	ffc92703          	lw	a4,-4(s2)
200147a4:	00a797b3          	sll	a5,a5,a0
200147a8:	00c75733          	srl	a4,a4,a2
200147ac:	8fd9                	or	a5,a5,a4
200147ae:	bf45                	j	2001475e <__b2d+0x58>
200147b0:	3ff006b7          	lui	a3,0x3ff00
200147b4:	8ec1                	or	a3,a3,s0
200147b6:	b765                	j	2001475e <__b2d+0x58>

200147b8 <__d2b>:
200147b8:	7179                	addi	sp,sp,-48
200147ba:	d422                	sw	s0,40(sp)
200147bc:	842e                	mv	s0,a1
200147be:	4585                	li	a1,1
200147c0:	d226                	sw	s1,36(sp)
200147c2:	d04a                	sw	s2,32(sp)
200147c4:	84b2                	mv	s1,a2
200147c6:	ce4e                	sw	s3,28(sp)
200147c8:	cc52                	sw	s4,24(sp)
200147ca:	893a                	mv	s2,a4
200147cc:	d606                	sw	ra,44(sp)
200147ce:	8a36                	mv	s4,a3
200147d0:	387d                	jal	2001408e <_Balloc>
200147d2:	00100737          	lui	a4,0x100
200147d6:	fff70793          	addi	a5,a4,-1 # fffff <__heap_size+0xffbff>
200147da:	8fe5                	and	a5,a5,s1
200147dc:	80d1                	srli	s1,s1,0x14
200147de:	7ff4f493          	andi	s1,s1,2047
200147e2:	89aa                	mv	s3,a0
200147e4:	e0ad                	bnez	s1,20014846 <__d2b+0x8e>
200147e6:	c63e                	sw	a5,12(sp)
200147e8:	c425                	beqz	s0,20014850 <__d2b+0x98>
200147ea:	0028                	addi	a0,sp,8
200147ec:	c422                	sw	s0,8(sp)
200147ee:	3c51                	jal	20014282 <__lo0bits>
200147f0:	46a2                	lw	a3,8(sp)
200147f2:	cd21                	beqz	a0,2001484a <__d2b+0x92>
200147f4:	4732                	lw	a4,12(sp)
200147f6:	02000793          	li	a5,32
200147fa:	8f89                	sub	a5,a5,a0
200147fc:	00f717b3          	sll	a5,a4,a5
20014800:	8fd5                	or	a5,a5,a3
20014802:	00a75733          	srl	a4,a4,a0
20014806:	00f9aa23          	sw	a5,20(s3)
2001480a:	c63a                	sw	a4,12(sp)
2001480c:	4432                	lw	s0,12(sp)
2001480e:	0089ac23          	sw	s0,24(s3)
20014812:	00803433          	snez	s0,s0
20014816:	0405                	addi	s0,s0,1
20014818:	0089a823          	sw	s0,16(s3)
2001481c:	c4b1                	beqz	s1,20014868 <__d2b+0xb0>
2001481e:	bcd48493          	addi	s1,s1,-1075
20014822:	94aa                	add	s1,s1,a0
20014824:	03500793          	li	a5,53
20014828:	009a2023          	sw	s1,0(s4)
2001482c:	40a78533          	sub	a0,a5,a0
20014830:	00a92023          	sw	a0,0(s2)
20014834:	50b2                	lw	ra,44(sp)
20014836:	5422                	lw	s0,40(sp)
20014838:	854e                	mv	a0,s3
2001483a:	5492                	lw	s1,36(sp)
2001483c:	5902                	lw	s2,32(sp)
2001483e:	49f2                	lw	s3,28(sp)
20014840:	4a62                	lw	s4,24(sp)
20014842:	6145                	addi	sp,sp,48
20014844:	8082                	ret
20014846:	8fd9                	or	a5,a5,a4
20014848:	bf79                	j	200147e6 <__d2b+0x2e>
2001484a:	00d9aa23          	sw	a3,20(s3)
2001484e:	bf7d                	j	2001480c <__d2b+0x54>
20014850:	0068                	addi	a0,sp,12
20014852:	3c05                	jal	20014282 <__lo0bits>
20014854:	47b2                	lw	a5,12(sp)
20014856:	02050513          	addi	a0,a0,32
2001485a:	4405                	li	s0,1
2001485c:	00f9aa23          	sw	a5,20(s3)
20014860:	4785                	li	a5,1
20014862:	00f9a823          	sw	a5,16(s3)
20014866:	bf5d                	j	2001481c <__d2b+0x64>
20014868:	00241793          	slli	a5,s0,0x2
2001486c:	bce50513          	addi	a0,a0,-1074
20014870:	97ce                	add	a5,a5,s3
20014872:	00aa2023          	sw	a0,0(s4)
20014876:	4b88                	lw	a0,16(a5)
20014878:	0416                	slli	s0,s0,0x5
2001487a:	32c9                	jal	2001423c <__hi0bits>
2001487c:	8c09                	sub	s0,s0,a0
2001487e:	00892023          	sw	s0,0(s2)
20014882:	bf4d                	j	20014834 <__d2b+0x7c>

20014884 <__ratio>:
20014884:	7179                	addi	sp,sp,-48
20014886:	d04a                	sw	s2,32(sp)
20014888:	892e                	mv	s2,a1
2001488a:	002c                	addi	a1,sp,8
2001488c:	d606                	sw	ra,44(sp)
2001488e:	d422                	sw	s0,40(sp)
20014890:	d226                	sw	s1,36(sp)
20014892:	ce4e                	sw	s3,28(sp)
20014894:	cc52                	sw	s4,24(sp)
20014896:	8a2a                	mv	s4,a0
20014898:	35bd                	jal	20014706 <__b2d>
2001489a:	89aa                	mv	s3,a0
2001489c:	84ae                	mv	s1,a1
2001489e:	842e                	mv	s0,a1
200148a0:	854a                	mv	a0,s2
200148a2:	006c                	addi	a1,sp,12
200148a4:	358d                	jal	20014706 <__b2d>
200148a6:	01092783          	lw	a5,16(s2)
200148aa:	010a2703          	lw	a4,16(s4)
200148ae:	46a2                	lw	a3,8(sp)
200148b0:	8f1d                	sub	a4,a4,a5
200148b2:	47b2                	lw	a5,12(sp)
200148b4:	0716                	slli	a4,a4,0x5
200148b6:	8e9d                	sub	a3,a3,a5
200148b8:	00d707b3          	add	a5,a4,a3
200148bc:	02f05563          	blez	a5,200148e6 <__ratio+0x62>
200148c0:	07d2                	slli	a5,a5,0x14
200148c2:	862e                	mv	a2,a1
200148c4:	00978433          	add	s0,a5,s1
200148c8:	8732                	mv	a4,a2
200148ca:	85a2                	mv	a1,s0
200148cc:	862a                	mv	a2,a0
200148ce:	86ba                	mv	a3,a4
200148d0:	854e                	mv	a0,s3
200148d2:	0e6040ef          	jal	ra,200189b8 <__divdf3>
200148d6:	50b2                	lw	ra,44(sp)
200148d8:	5422                	lw	s0,40(sp)
200148da:	5492                	lw	s1,36(sp)
200148dc:	5902                	lw	s2,32(sp)
200148de:	49f2                	lw	s3,28(sp)
200148e0:	4a62                	lw	s4,24(sp)
200148e2:	6145                	addi	sp,sp,48
200148e4:	8082                	ret
200148e6:	fff00737          	lui	a4,0xfff00
200148ea:	02e787b3          	mul	a5,a5,a4
200148ee:	00b78633          	add	a2,a5,a1
200148f2:	bfd9                	j	200148c8 <__ratio+0x44>

200148f4 <_mprec_log10>:
200148f4:	1141                	addi	sp,sp,-16
200148f6:	c422                	sw	s0,8(sp)
200148f8:	c606                	sw	ra,12(sp)
200148fa:	c24a                	sw	s2,4(sp)
200148fc:	c04e                	sw	s3,0(sp)
200148fe:	47dd                	li	a5,23
20014900:	842a                	mv	s0,a0
20014902:	02a7c163          	blt	a5,a0,20014924 <_mprec_log10+0x30>
20014906:	00351413          	slli	s0,a0,0x3
2001490a:	00009797          	auipc	a5,0x9
2001490e:	74e78793          	addi	a5,a5,1870 # 2001e058 <p05.3308>
20014912:	943e                	add	s0,s0,a5
20014914:	4808                	lw	a0,16(s0)
20014916:	484c                	lw	a1,20(s0)
20014918:	40b2                	lw	ra,12(sp)
2001491a:	4422                	lw	s0,8(sp)
2001491c:	4912                	lw	s2,4(sp)
2001491e:	4982                	lw	s3,0(sp)
20014920:	0141                	addi	sp,sp,16
20014922:	8082                	ret
20014924:	5ffed797          	auipc	a5,0x5ffed
20014928:	90c78793          	addi	a5,a5,-1780 # 80001230 <__metal_cpu_table+0x8>
2001492c:	4388                	lw	a0,0(a5)
2001492e:	43cc                	lw	a1,4(a5)
20014930:	5ffed797          	auipc	a5,0x5ffed
20014934:	90878793          	addi	a5,a5,-1784 # 80001238 <__metal_cpu_table+0x10>
20014938:	0007a903          	lw	s2,0(a5)
2001493c:	0047a983          	lw	s3,4(a5)
20014940:	864a                	mv	a2,s2
20014942:	86ce                	mv	a3,s3
20014944:	147d                	addi	s0,s0,-1
20014946:	5bc040ef          	jal	ra,20018f02 <__muldf3>
2001494a:	f87d                	bnez	s0,20014940 <_mprec_log10+0x4c>
2001494c:	b7f1                	j	20014918 <_mprec_log10+0x24>

2001494e <__copybits>:
2001494e:	fff58793          	addi	a5,a1,-1 # 7ffff <__heap_size+0x7fbff>
20014952:	4a18                	lw	a4,16(a2)
20014954:	8795                	srai	a5,a5,0x5
20014956:	0785                	addi	a5,a5,1
20014958:	078a                	slli	a5,a5,0x2
2001495a:	01460693          	addi	a3,a2,20
2001495e:	070a                	slli	a4,a4,0x2
20014960:	97aa                	add	a5,a5,a0
20014962:	9736                	add	a4,a4,a3
20014964:	00e6e563          	bltu	a3,a4,2001496e <__copybits+0x20>
20014968:	00f56a63          	bltu	a0,a5,2001497c <__copybits+0x2e>
2001496c:	8082                	ret
2001496e:	0691                	addi	a3,a3,4
20014970:	ffc6a603          	lw	a2,-4(a3) # 3feffffc <__init_array_end+0x1fee0c28>
20014974:	0511                	addi	a0,a0,4
20014976:	fec52e23          	sw	a2,-4(a0)
2001497a:	b7ed                	j	20014964 <__copybits+0x16>
2001497c:	0511                	addi	a0,a0,4
2001497e:	fe052e23          	sw	zero,-4(a0)
20014982:	b7dd                	j	20014968 <__copybits+0x1a>

20014984 <__any_on>:
20014984:	4914                	lw	a3,16(a0)
20014986:	4055d793          	srai	a5,a1,0x5
2001498a:	01450713          	addi	a4,a0,20
2001498e:	02f6c763          	blt	a3,a5,200149bc <__any_on+0x38>
20014992:	00d7df63          	bge	a5,a3,200149b0 <__any_on+0x2c>
20014996:	89fd                	andi	a1,a1,31
20014998:	cd81                	beqz	a1,200149b0 <__any_on+0x2c>
2001499a:	00279693          	slli	a3,a5,0x2
2001499e:	96ba                	add	a3,a3,a4
200149a0:	4290                	lw	a2,0(a3)
200149a2:	4505                	li	a0,1
200149a4:	00b656b3          	srl	a3,a2,a1
200149a8:	00b695b3          	sll	a1,a3,a1
200149ac:	00b61e63          	bne	a2,a1,200149c8 <__any_on+0x44>
200149b0:	078a                	slli	a5,a5,0x2
200149b2:	97ba                	add	a5,a5,a4
200149b4:	00f76663          	bltu	a4,a5,200149c0 <__any_on+0x3c>
200149b8:	4501                	li	a0,0
200149ba:	8082                	ret
200149bc:	87b6                	mv	a5,a3
200149be:	bfcd                	j	200149b0 <__any_on+0x2c>
200149c0:	17f1                	addi	a5,a5,-4
200149c2:	4394                	lw	a3,0(a5)
200149c4:	dae5                	beqz	a3,200149b4 <__any_on+0x30>
200149c6:	4505                	li	a0,1
200149c8:	8082                	ret

200149ca <_sbrk_r>:
200149ca:	1141                	addi	sp,sp,-16
200149cc:	c422                	sw	s0,8(sp)
200149ce:	842a                	mv	s0,a0
200149d0:	852e                	mv	a0,a1
200149d2:	8801a423          	sw	zero,-1912(gp) # 80001280 <errno>
200149d6:	c606                	sw	ra,12(sp)
200149d8:	40f060ef          	jal	ra,2001b5e6 <_sbrk>
200149dc:	57fd                	li	a5,-1
200149de:	00f51763          	bne	a0,a5,200149ec <_sbrk_r+0x22>
200149e2:	88818793          	addi	a5,gp,-1912 # 80001280 <errno>
200149e6:	439c                	lw	a5,0(a5)
200149e8:	c391                	beqz	a5,200149ec <_sbrk_r+0x22>
200149ea:	c01c                	sw	a5,0(s0)
200149ec:	40b2                	lw	ra,12(sp)
200149ee:	4422                	lw	s0,8(sp)
200149f0:	0141                	addi	sp,sp,16
200149f2:	8082                	ret

200149f4 <frexp>:
200149f4:	1141                	addi	sp,sp,-16
200149f6:	c226                	sw	s1,4(sp)
200149f8:	800004b7          	lui	s1,0x80000
200149fc:	c422                	sw	s0,8(sp)
200149fe:	c606                	sw	ra,12(sp)
20014a00:	fff4c493          	not	s1,s1
20014a04:	00b4f733          	and	a4,s1,a1
20014a08:	00062023          	sw	zero,0(a2)
20014a0c:	7ff00837          	lui	a6,0x7ff00
20014a10:	86aa                	mv	a3,a0
20014a12:	87ae                	mv	a5,a1
20014a14:	8432                	mv	s0,a2
20014a16:	05075763          	bge	a4,a6,20014a64 <frexp+0x70>
20014a1a:	00a768b3          	or	a7,a4,a0
20014a1e:	04088363          	beqz	a7,20014a64 <frexp+0x70>
20014a22:	0105f833          	and	a6,a1,a6
20014a26:	862e                	mv	a2,a1
20014a28:	02081163          	bnez	a6,20014a4a <frexp+0x56>
20014a2c:	5ffed797          	auipc	a5,0x5ffed
20014a30:	81478793          	addi	a5,a5,-2028 # 80001240 <__metal_cpu_table+0x18>
20014a34:	4390                	lw	a2,0(a5)
20014a36:	43d4                	lw	a3,4(a5)
20014a38:	4ca040ef          	jal	ra,20018f02 <__muldf3>
20014a3c:	fca00793          	li	a5,-54
20014a40:	86aa                	mv	a3,a0
20014a42:	862e                	mv	a2,a1
20014a44:	00b4f733          	and	a4,s1,a1
20014a48:	c01c                	sw	a5,0(s0)
20014a4a:	401c                	lw	a5,0(s0)
20014a4c:	8751                	srai	a4,a4,0x14
20014a4e:	c0270713          	addi	a4,a4,-1022 # ffeffc02 <metal_segment_heap_target_end+0x7fefbc02>
20014a52:	973e                	add	a4,a4,a5
20014a54:	801007b7          	lui	a5,0x80100
20014a58:	17fd                	addi	a5,a5,-1
20014a5a:	8e7d                	and	a2,a2,a5
20014a5c:	3fe007b7          	lui	a5,0x3fe00
20014a60:	c018                	sw	a4,0(s0)
20014a62:	8fd1                	or	a5,a5,a2
20014a64:	40b2                	lw	ra,12(sp)
20014a66:	4422                	lw	s0,8(sp)
20014a68:	4492                	lw	s1,4(sp)
20014a6a:	8536                	mv	a0,a3
20014a6c:	85be                	mv	a1,a5
20014a6e:	0141                	addi	sp,sp,16
20014a70:	8082                	ret

20014a72 <_sprintf_r>:
20014a72:	7135                	addi	sp,sp,-160
20014a74:	cb3e                	sw	a5,148(sp)
20014a76:	800007b7          	lui	a5,0x80000
20014a7a:	fff7c793          	not	a5,a5
20014a7e:	ce3e                	sw	a5,28(sp)
20014a80:	c83e                	sw	a5,16(sp)
20014a82:	77c1                	lui	a5,0xffff0
20014a84:	c736                	sw	a3,140(sp)
20014a86:	c42e                	sw	a1,8(sp)
20014a88:	cc2e                	sw	a1,24(sp)
20014a8a:	20878793          	addi	a5,a5,520 # ffff0208 <metal_segment_heap_target_end+0x7ffec208>
20014a8e:	0174                	addi	a3,sp,140
20014a90:	002c                	addi	a1,sp,8
20014a92:	de86                	sw	ra,124(sp)
20014a94:	ca3e                	sw	a5,20(sp)
20014a96:	c93a                	sw	a4,144(sp)
20014a98:	cd42                	sw	a6,152(sp)
20014a9a:	cf46                	sw	a7,156(sp)
20014a9c:	c236                	sw	a3,4(sp)
20014a9e:	2451                	jal	20014d22 <_svfprintf_r>
20014aa0:	47a2                	lw	a5,8(sp)
20014aa2:	00078023          	sb	zero,0(a5)
20014aa6:	50f6                	lw	ra,124(sp)
20014aa8:	610d                	addi	sp,sp,160
20014aaa:	8082                	ret

20014aac <sprintf>:
20014aac:	7135                	addi	sp,sp,-160
20014aae:	cb3e                	sw	a5,148(sp)
20014ab0:	800007b7          	lui	a5,0x80000
20014ab4:	fff7c793          	not	a5,a5
20014ab8:	ce3e                	sw	a5,28(sp)
20014aba:	c83e                	sw	a5,16(sp)
20014abc:	77c1                	lui	a5,0xffff0
20014abe:	20878793          	addi	a5,a5,520 # ffff0208 <metal_segment_heap_target_end+0x7ffec208>
20014ac2:	c532                	sw	a2,136(sp)
20014ac4:	c736                	sw	a3,140(sp)
20014ac6:	c93a                	sw	a4,144(sp)
20014ac8:	cd42                	sw	a6,152(sp)
20014aca:	cf46                	sw	a7,156(sp)
20014acc:	ca3e                	sw	a5,20(sp)
20014ace:	5ffec797          	auipc	a5,0x5ffec
20014ad2:	72a78793          	addi	a5,a5,1834 # 800011f8 <_impure_ptr>
20014ad6:	c42a                	sw	a0,8(sp)
20014ad8:	cc2a                	sw	a0,24(sp)
20014ada:	4388                	lw	a0,0(a5)
20014adc:	0134                	addi	a3,sp,136
20014ade:	862e                	mv	a2,a1
20014ae0:	002c                	addi	a1,sp,8
20014ae2:	de86                	sw	ra,124(sp)
20014ae4:	c236                	sw	a3,4(sp)
20014ae6:	2c35                	jal	20014d22 <_svfprintf_r>
20014ae8:	47a2                	lw	a5,8(sp)
20014aea:	00078023          	sb	zero,0(a5)
20014aee:	50f6                	lw	ra,124(sp)
20014af0:	610d                	addi	sp,sp,160
20014af2:	8082                	ret

20014af4 <__sread>:
20014af4:	1141                	addi	sp,sp,-16
20014af6:	c422                	sw	s0,8(sp)
20014af8:	842e                	mv	s0,a1
20014afa:	00e59583          	lh	a1,14(a1)
20014afe:	c606                	sw	ra,12(sp)
20014b00:	133020ef          	jal	ra,20017432 <_read_r>
20014b04:	00054963          	bltz	a0,20014b16 <__sread+0x22>
20014b08:	483c                	lw	a5,80(s0)
20014b0a:	97aa                	add	a5,a5,a0
20014b0c:	c83c                	sw	a5,80(s0)
20014b0e:	40b2                	lw	ra,12(sp)
20014b10:	4422                	lw	s0,8(sp)
20014b12:	0141                	addi	sp,sp,16
20014b14:	8082                	ret
20014b16:	00c45783          	lhu	a5,12(s0)
20014b1a:	777d                	lui	a4,0xfffff
20014b1c:	177d                	addi	a4,a4,-1
20014b1e:	8ff9                	and	a5,a5,a4
20014b20:	00f41623          	sh	a5,12(s0)
20014b24:	b7ed                	j	20014b0e <__sread+0x1a>

20014b26 <__seofread>:
20014b26:	4501                	li	a0,0
20014b28:	8082                	ret

20014b2a <__swrite>:
20014b2a:	00c5d783          	lhu	a5,12(a1)
20014b2e:	1101                	addi	sp,sp,-32
20014b30:	cc22                	sw	s0,24(sp)
20014b32:	ca26                	sw	s1,20(sp)
20014b34:	c84a                	sw	s2,16(sp)
20014b36:	c64e                	sw	s3,12(sp)
20014b38:	ce06                	sw	ra,28(sp)
20014b3a:	1007f793          	andi	a5,a5,256
20014b3e:	84aa                	mv	s1,a0
20014b40:	842e                	mv	s0,a1
20014b42:	8932                	mv	s2,a2
20014b44:	89b6                	mv	s3,a3
20014b46:	c799                	beqz	a5,20014b54 <__swrite+0x2a>
20014b48:	00e59583          	lh	a1,14(a1)
20014b4c:	4689                	li	a3,2
20014b4e:	4601                	li	a2,0
20014b50:	7b4020ef          	jal	ra,20017304 <_lseek_r>
20014b54:	00c45783          	lhu	a5,12(s0)
20014b58:	777d                	lui	a4,0xfffff
20014b5a:	177d                	addi	a4,a4,-1
20014b5c:	8ff9                	and	a5,a5,a4
20014b5e:	00f41623          	sh	a5,12(s0)
20014b62:	00e41583          	lh	a1,14(s0)
20014b66:	4462                	lw	s0,24(sp)
20014b68:	40f2                	lw	ra,28(sp)
20014b6a:	86ce                	mv	a3,s3
20014b6c:	864a                	mv	a2,s2
20014b6e:	49b2                	lw	s3,12(sp)
20014b70:	4942                	lw	s2,16(sp)
20014b72:	8526                	mv	a0,s1
20014b74:	44d2                	lw	s1,20(sp)
20014b76:	6105                	addi	sp,sp,32
20014b78:	1ea0206f          	j	20016d62 <_write_r>

20014b7c <__sseek>:
20014b7c:	1141                	addi	sp,sp,-16
20014b7e:	c422                	sw	s0,8(sp)
20014b80:	842e                	mv	s0,a1
20014b82:	00e59583          	lh	a1,14(a1)
20014b86:	c606                	sw	ra,12(sp)
20014b88:	77c020ef          	jal	ra,20017304 <_lseek_r>
20014b8c:	57fd                	li	a5,-1
20014b8e:	00c45703          	lhu	a4,12(s0)
20014b92:	00f51b63          	bne	a0,a5,20014ba8 <__sseek+0x2c>
20014b96:	77fd                	lui	a5,0xfffff
20014b98:	17fd                	addi	a5,a5,-1
20014b9a:	8ff9                	and	a5,a5,a4
20014b9c:	00f41623          	sh	a5,12(s0)
20014ba0:	40b2                	lw	ra,12(sp)
20014ba2:	4422                	lw	s0,8(sp)
20014ba4:	0141                	addi	sp,sp,16
20014ba6:	8082                	ret
20014ba8:	6785                	lui	a5,0x1
20014baa:	8fd9                	or	a5,a5,a4
20014bac:	00f41623          	sh	a5,12(s0)
20014bb0:	c828                	sw	a0,80(s0)
20014bb2:	b7fd                	j	20014ba0 <__sseek+0x24>

20014bb4 <__sclose>:
20014bb4:	00e59583          	lh	a1,14(a1)
20014bb8:	2500206f          	j	20016e08 <_close_r>

20014bbc <strcmp>:
20014bbc:	00b56733          	or	a4,a0,a1
20014bc0:	53fd                	li	t2,-1
20014bc2:	8b0d                	andi	a4,a4,3
20014bc4:	e779                	bnez	a4,20014c92 <strcmp+0xd6>
20014bc6:	7f7f87b7          	lui	a5,0x7f7f8
20014bca:	f7f78793          	addi	a5,a5,-129 # 7f7f7f7f <__init_array_end+0x5f7d8bab>
20014bce:	4110                	lw	a2,0(a0)
20014bd0:	4194                	lw	a3,0(a1)
20014bd2:	00f672b3          	and	t0,a2,a5
20014bd6:	00f66333          	or	t1,a2,a5
20014bda:	92be                	add	t0,t0,a5
20014bdc:	0062e2b3          	or	t0,t0,t1
20014be0:	0c729763          	bne	t0,t2,20014cae <strcmp+0xf2>
20014be4:	06d61863          	bne	a2,a3,20014c54 <strcmp+0x98>
20014be8:	4150                	lw	a2,4(a0)
20014bea:	41d4                	lw	a3,4(a1)
20014bec:	00f672b3          	and	t0,a2,a5
20014bf0:	00f66333          	or	t1,a2,a5
20014bf4:	92be                	add	t0,t0,a5
20014bf6:	0062e2b3          	or	t0,t0,t1
20014bfa:	0a729863          	bne	t0,t2,20014caa <strcmp+0xee>
20014bfe:	04d61b63          	bne	a2,a3,20014c54 <strcmp+0x98>
20014c02:	4510                	lw	a2,8(a0)
20014c04:	4594                	lw	a3,8(a1)
20014c06:	00f672b3          	and	t0,a2,a5
20014c0a:	00f66333          	or	t1,a2,a5
20014c0e:	92be                	add	t0,t0,a5
20014c10:	0062e2b3          	or	t0,t0,t1
20014c14:	0a729163          	bne	t0,t2,20014cb6 <strcmp+0xfa>
20014c18:	02d61e63          	bne	a2,a3,20014c54 <strcmp+0x98>
20014c1c:	4550                	lw	a2,12(a0)
20014c1e:	45d4                	lw	a3,12(a1)
20014c20:	00f672b3          	and	t0,a2,a5
20014c24:	00f66333          	or	t1,a2,a5
20014c28:	92be                	add	t0,t0,a5
20014c2a:	0062e2b3          	or	t0,t0,t1
20014c2e:	08729a63          	bne	t0,t2,20014cc2 <strcmp+0x106>
20014c32:	02d61163          	bne	a2,a3,20014c54 <strcmp+0x98>
20014c36:	4910                	lw	a2,16(a0)
20014c38:	4994                	lw	a3,16(a1)
20014c3a:	00f672b3          	and	t0,a2,a5
20014c3e:	00f66333          	or	t1,a2,a5
20014c42:	92be                	add	t0,t0,a5
20014c44:	0062e2b3          	or	t0,t0,t1
20014c48:	08729363          	bne	t0,t2,20014cce <strcmp+0x112>
20014c4c:	0551                	addi	a0,a0,20
20014c4e:	05d1                	addi	a1,a1,20
20014c50:	f6d60fe3          	beq	a2,a3,20014bce <strcmp+0x12>
20014c54:	01061713          	slli	a4,a2,0x10
20014c58:	01069793          	slli	a5,a3,0x10
20014c5c:	00f71c63          	bne	a4,a5,20014c74 <strcmp+0xb8>
20014c60:	01065713          	srli	a4,a2,0x10
20014c64:	0106d793          	srli	a5,a3,0x10
20014c68:	40f70533          	sub	a0,a4,a5
20014c6c:	0ff57593          	andi	a1,a0,255
20014c70:	e991                	bnez	a1,20014c84 <strcmp+0xc8>
20014c72:	8082                	ret
20014c74:	8341                	srli	a4,a4,0x10
20014c76:	83c1                	srli	a5,a5,0x10
20014c78:	40f70533          	sub	a0,a4,a5
20014c7c:	0ff57593          	andi	a1,a0,255
20014c80:	e191                	bnez	a1,20014c84 <strcmp+0xc8>
20014c82:	8082                	ret
20014c84:	0ff77713          	andi	a4,a4,255
20014c88:	0ff7f793          	andi	a5,a5,255
20014c8c:	40f70533          	sub	a0,a4,a5
20014c90:	8082                	ret
20014c92:	00054603          	lbu	a2,0(a0)
20014c96:	0005c683          	lbu	a3,0(a1)
20014c9a:	0505                	addi	a0,a0,1
20014c9c:	0585                	addi	a1,a1,1
20014c9e:	00d61363          	bne	a2,a3,20014ca4 <strcmp+0xe8>
20014ca2:	fa65                	bnez	a2,20014c92 <strcmp+0xd6>
20014ca4:	40d60533          	sub	a0,a2,a3
20014ca8:	8082                	ret
20014caa:	0511                	addi	a0,a0,4
20014cac:	0591                	addi	a1,a1,4
20014cae:	fed612e3          	bne	a2,a3,20014c92 <strcmp+0xd6>
20014cb2:	4501                	li	a0,0
20014cb4:	8082                	ret
20014cb6:	0521                	addi	a0,a0,8
20014cb8:	05a1                	addi	a1,a1,8
20014cba:	fcd61ce3          	bne	a2,a3,20014c92 <strcmp+0xd6>
20014cbe:	4501                	li	a0,0
20014cc0:	8082                	ret
20014cc2:	0531                	addi	a0,a0,12
20014cc4:	05b1                	addi	a1,a1,12
20014cc6:	fcd616e3          	bne	a2,a3,20014c92 <strcmp+0xd6>
20014cca:	4501                	li	a0,0
20014ccc:	8082                	ret
20014cce:	0541                	addi	a0,a0,16
20014cd0:	05c1                	addi	a1,a1,16
20014cd2:	fcd610e3          	bne	a2,a3,20014c92 <strcmp+0xd6>
20014cd6:	4501                	li	a0,0
20014cd8:	8082                	ret

20014cda <strcpy>:
20014cda:	87aa                	mv	a5,a0
20014cdc:	0005c703          	lbu	a4,0(a1)
20014ce0:	0785                	addi	a5,a5,1
20014ce2:	0585                	addi	a1,a1,1
20014ce4:	fee78fa3          	sb	a4,-1(a5)
20014ce8:	fb75                	bnez	a4,20014cdc <strcpy+0x2>
20014cea:	8082                	ret

20014cec <strlen>:
20014cec:	87aa                	mv	a5,a0
20014cee:	0785                	addi	a5,a5,1
20014cf0:	fff7c703          	lbu	a4,-1(a5)
20014cf4:	ff6d                	bnez	a4,20014cee <strlen+0x2>
20014cf6:	40a78533          	sub	a0,a5,a0
20014cfa:	157d                	addi	a0,a0,-1
20014cfc:	8082                	ret

20014cfe <strncpy>:
20014cfe:	87aa                	mv	a5,a0
20014d00:	ca09                	beqz	a2,20014d12 <strncpy+0x14>
20014d02:	0585                	addi	a1,a1,1
20014d04:	fff5c703          	lbu	a4,-1(a1)
20014d08:	0785                	addi	a5,a5,1
20014d0a:	167d                	addi	a2,a2,-1
20014d0c:	fee78fa3          	sb	a4,-1(a5)
20014d10:	fb65                	bnez	a4,20014d00 <strncpy+0x2>
20014d12:	963e                	add	a2,a2,a5
20014d14:	00c79363          	bne	a5,a2,20014d1a <strncpy+0x1c>
20014d18:	8082                	ret
20014d1a:	0785                	addi	a5,a5,1
20014d1c:	fe078fa3          	sb	zero,-1(a5)
20014d20:	bfd5                	j	20014d14 <strncpy+0x16>

20014d22 <_svfprintf_r>:
20014d22:	7145                	addi	sp,sp,-464
20014d24:	1c112623          	sw	ra,460(sp)
20014d28:	1c912223          	sw	s1,452(sp)
20014d2c:	1d212023          	sw	s2,448(sp)
20014d30:	1b312e23          	sw	s3,444(sp)
20014d34:	1b612823          	sw	s6,432(sp)
20014d38:	89ae                	mv	s3,a1
20014d3a:	84b2                	mv	s1,a2
20014d3c:	8b36                	mv	s6,a3
20014d3e:	1c812423          	sw	s0,456(sp)
20014d42:	1b412c23          	sw	s4,440(sp)
20014d46:	1b512a23          	sw	s5,436(sp)
20014d4a:	1b712623          	sw	s7,428(sp)
20014d4e:	1b812423          	sw	s8,424(sp)
20014d52:	1b912223          	sw	s9,420(sp)
20014d56:	1ba12023          	sw	s10,416(sp)
20014d5a:	19b12e23          	sw	s11,412(sp)
20014d5e:	892a                	mv	s2,a0
20014d60:	b23fe0ef          	jal	ra,20013882 <_localeconv_r>
20014d64:	411c                	lw	a5,0(a0)
20014d66:	853e                	mv	a0,a5
20014d68:	d43e                	sw	a5,40(sp)
20014d6a:	3749                	jal	20014cec <strlen>
20014d6c:	00c9d783          	lhu	a5,12(s3)
20014d70:	ca2a                	sw	a0,20(sp)
20014d72:	c982                	sw	zero,208(sp)
20014d74:	cb82                	sw	zero,212(sp)
20014d76:	cd82                	sw	zero,216(sp)
20014d78:	cf82                	sw	zero,220(sp)
20014d7a:	0807f793          	andi	a5,a5,128
20014d7e:	cb85                	beqz	a5,20014dae <_svfprintf_r+0x8c>
20014d80:	0109a783          	lw	a5,16(s3)
20014d84:	e78d                	bnez	a5,20014dae <_svfprintf_r+0x8c>
20014d86:	04000593          	li	a1,64
20014d8a:	854a                	mv	a0,s2
20014d8c:	cd9fe0ef          	jal	ra,20013a64 <_malloc_r>
20014d90:	00a9a023          	sw	a0,0(s3)
20014d94:	00a9a823          	sw	a0,16(s3)
20014d98:	e519                	bnez	a0,20014da6 <_svfprintf_r+0x84>
20014d9a:	47b1                	li	a5,12
20014d9c:	00f92023          	sw	a5,0(s2)
20014da0:	57fd                	li	a5,-1
20014da2:	cc3e                	sw	a5,24(sp)
20014da4:	a361                	j	2001532c <_svfprintf_r+0x60a>
20014da6:	04000793          	li	a5,64
20014daa:	00f9aa23          	sw	a5,20(s3)
20014dae:	11fc                	addi	a5,sp,236
20014db0:	c3be                	sw	a5,196(sp)
20014db2:	c782                	sw	zero,204(sp)
20014db4:	c582                	sw	zero,200(sp)
20014db6:	4a01                	li	s4,0
20014db8:	8c3e                	mv	s8,a5
20014dba:	da02                	sw	zero,52(sp)
20014dbc:	d802                	sw	zero,48(sp)
20014dbe:	c202                	sw	zero,4(sp)
20014dc0:	d202                	sw	zero,36(sp)
20014dc2:	d602                	sw	zero,44(sp)
20014dc4:	cc02                	sw	zero,24(sp)
20014dc6:	8426                	mv	s0,s1
20014dc8:	02500713          	li	a4,37
20014dcc:	00044783          	lbu	a5,0(s0)
20014dd0:	c399                	beqz	a5,20014dd6 <_svfprintf_r+0xb4>
20014dd2:	08e79463          	bne	a5,a4,20014e5a <_svfprintf_r+0x138>
20014dd6:	40940ab3          	sub	s5,s0,s1
20014dda:	020a8c63          	beqz	s5,20014e12 <_svfprintf_r+0xf0>
20014dde:	47be                	lw	a5,204(sp)
20014de0:	009c2023          	sw	s1,0(s8)
20014de4:	015c2223          	sw	s5,4(s8)
20014de8:	97d6                	add	a5,a5,s5
20014dea:	c7be                	sw	a5,204(sp)
20014dec:	47ae                	lw	a5,200(sp)
20014dee:	471d                	li	a4,7
20014df0:	0c21                	addi	s8,s8,8
20014df2:	0785                	addi	a5,a5,1
20014df4:	c5be                	sw	a5,200(sp)
20014df6:	00f75b63          	bge	a4,a5,20014e0c <_svfprintf_r+0xea>
20014dfa:	01d0                	addi	a2,sp,196
20014dfc:	85ce                	mv	a1,s3
20014dfe:	854a                	mv	a0,s2
20014e00:	201020ef          	jal	ra,20017800 <__ssprint_r>
20014e04:	50051e63          	bnez	a0,20015320 <_svfprintf_r+0x5fe>
20014e08:	0ec10c13          	addi	s8,sp,236
20014e0c:	47e2                	lw	a5,24(sp)
20014e0e:	97d6                	add	a5,a5,s5
20014e10:	cc3e                	sw	a5,24(sp)
20014e12:	00044783          	lbu	a5,0(s0)
20014e16:	e399                	bnez	a5,20014e1c <_svfprintf_r+0xfa>
20014e18:	4ae0106f          	j	200162c6 <_svfprintf_r+0x15a4>
20014e1c:	00140793          	addi	a5,s0,1
20014e20:	0a0103a3          	sb	zero,167(sp)
20014e24:	5dfd                	li	s11,-1
20014e26:	ce02                	sw	zero,28(sp)
20014e28:	4401                	li	s0,0
20014e2a:	4ba9                	li	s7,10
20014e2c:	4d25                	li	s10,9
20014e2e:	02a00c93          	li	s9,42
20014e32:	0007ca83          	lbu	s5,0(a5)
20014e36:	00178713          	addi	a4,a5,1
20014e3a:	c83a                	sw	a4,16(sp)
20014e3c:	05a00693          	li	a3,90
20014e40:	fe0a8793          	addi	a5,s5,-32
20014e44:	50f6e2e3          	bltu	a3,a5,20015b48 <_svfprintf_r+0xe26>
20014e48:	00009717          	auipc	a4,0x9
20014e4c:	33870713          	addi	a4,a4,824 # 2001e180 <__mprec_bigtens+0x28>
20014e50:	078a                	slli	a5,a5,0x2
20014e52:	97ba                	add	a5,a5,a4
20014e54:	439c                	lw	a5,0(a5)
20014e56:	97ba                	add	a5,a5,a4
20014e58:	8782                	jr	a5
20014e5a:	0405                	addi	s0,s0,1
20014e5c:	bf85                	j	20014dcc <_svfprintf_r+0xaa>
20014e5e:	854a                	mv	a0,s2
20014e60:	a23fe0ef          	jal	ra,20013882 <_localeconv_r>
20014e64:	415c                	lw	a5,4(a0)
20014e66:	853e                	mv	a0,a5
20014e68:	d63e                	sw	a5,44(sp)
20014e6a:	3549                	jal	20014cec <strlen>
20014e6c:	d22a                	sw	a0,36(sp)
20014e6e:	854a                	mv	a0,s2
20014e70:	a13fe0ef          	jal	ra,20013882 <_localeconv_r>
20014e74:	451c                	lw	a5,8(a0)
20014e76:	c23e                	sw	a5,4(sp)
20014e78:	5792                	lw	a5,36(sp)
20014e7a:	cb81                	beqz	a5,20014e8a <_svfprintf_r+0x168>
20014e7c:	4792                	lw	a5,4(sp)
20014e7e:	c791                	beqz	a5,20014e8a <_svfprintf_r+0x168>
20014e80:	0007c783          	lbu	a5,0(a5)
20014e84:	c399                	beqz	a5,20014e8a <_svfprintf_r+0x168>
20014e86:	40046413          	ori	s0,s0,1024
20014e8a:	47c2                	lw	a5,16(sp)
20014e8c:	b75d                	j	20014e32 <_svfprintf_r+0x110>
20014e8e:	0a714783          	lbu	a5,167(sp)
20014e92:	ffe5                	bnez	a5,20014e8a <_svfprintf_r+0x168>
20014e94:	02000793          	li	a5,32
20014e98:	0af103a3          	sb	a5,167(sp)
20014e9c:	b7fd                	j	20014e8a <_svfprintf_r+0x168>
20014e9e:	00146413          	ori	s0,s0,1
20014ea2:	b7e5                	j	20014e8a <_svfprintf_r+0x168>
20014ea4:	000b2783          	lw	a5,0(s6)
20014ea8:	0b11                	addi	s6,s6,4
20014eaa:	ce3e                	sw	a5,28(sp)
20014eac:	fc07dfe3          	bgez	a5,20014e8a <_svfprintf_r+0x168>
20014eb0:	40f007b3          	neg	a5,a5
20014eb4:	ce3e                	sw	a5,28(sp)
20014eb6:	00446413          	ori	s0,s0,4
20014eba:	bfc1                	j	20014e8a <_svfprintf_r+0x168>
20014ebc:	02b00793          	li	a5,43
20014ec0:	bfe1                	j	20014e98 <_svfprintf_r+0x176>
20014ec2:	4742                	lw	a4,16(sp)
20014ec4:	47c2                	lw	a5,16(sp)
20014ec6:	00074a83          	lbu	s5,0(a4)
20014eca:	0785                	addi	a5,a5,1
20014ecc:	039a9963          	bne	s5,s9,20014efe <_svfprintf_r+0x1dc>
20014ed0:	000b2d83          	lw	s11,0(s6)
20014ed4:	004b0713          	addi	a4,s6,4
20014ed8:	000dd363          	bgez	s11,20014ede <_svfprintf_r+0x1bc>
20014edc:	5dfd                	li	s11,-1
20014ede:	8b3a                	mv	s6,a4
20014ee0:	c83e                	sw	a5,16(sp)
20014ee2:	b765                	j	20014e8a <_svfprintf_r+0x168>
20014ee4:	037d8333          	mul	t1,s11,s7
20014ee8:	0785                	addi	a5,a5,1
20014eea:	fff7ca83          	lbu	s5,-1(a5)
20014eee:	00e30db3          	add	s11,t1,a4
20014ef2:	fd0a8713          	addi	a4,s5,-48
20014ef6:	feed77e3          	bgeu	s10,a4,20014ee4 <_svfprintf_r+0x1c2>
20014efa:	c83e                	sw	a5,16(sp)
20014efc:	b791                	j	20014e40 <_svfprintf_r+0x11e>
20014efe:	4d81                	li	s11,0
20014f00:	bfcd                	j	20014ef2 <_svfprintf_r+0x1d0>
20014f02:	08046413          	ori	s0,s0,128
20014f06:	b751                	j	20014e8a <_svfprintf_r+0x168>
20014f08:	47c2                	lw	a5,16(sp)
20014f0a:	ce02                	sw	zero,28(sp)
20014f0c:	4772                	lw	a4,28(sp)
20014f0e:	fd0a8a93          	addi	s5,s5,-48
20014f12:	0785                	addi	a5,a5,1
20014f14:	03770733          	mul	a4,a4,s7
20014f18:	9756                	add	a4,a4,s5
20014f1a:	fff7ca83          	lbu	s5,-1(a5)
20014f1e:	ce3a                	sw	a4,28(sp)
20014f20:	fd0a8713          	addi	a4,s5,-48
20014f24:	feed74e3          	bgeu	s10,a4,20014f0c <_svfprintf_r+0x1ea>
20014f28:	bfc9                	j	20014efa <_svfprintf_r+0x1d8>
20014f2a:	00846413          	ori	s0,s0,8
20014f2e:	bfb1                	j	20014e8a <_svfprintf_r+0x168>
20014f30:	47c2                	lw	a5,16(sp)
20014f32:	0007c703          	lbu	a4,0(a5)
20014f36:	06800793          	li	a5,104
20014f3a:	00f71863          	bne	a4,a5,20014f4a <_svfprintf_r+0x228>
20014f3e:	47c2                	lw	a5,16(sp)
20014f40:	20046413          	ori	s0,s0,512
20014f44:	0785                	addi	a5,a5,1
20014f46:	c83e                	sw	a5,16(sp)
20014f48:	b789                	j	20014e8a <_svfprintf_r+0x168>
20014f4a:	04046413          	ori	s0,s0,64
20014f4e:	bf35                	j	20014e8a <_svfprintf_r+0x168>
20014f50:	47c2                	lw	a5,16(sp)
20014f52:	0007c703          	lbu	a4,0(a5)
20014f56:	06c00793          	li	a5,108
20014f5a:	00f71863          	bne	a4,a5,20014f6a <_svfprintf_r+0x248>
20014f5e:	47c2                	lw	a5,16(sp)
20014f60:	0785                	addi	a5,a5,1
20014f62:	c83e                	sw	a5,16(sp)
20014f64:	02046413          	ori	s0,s0,32
20014f68:	b70d                	j	20014e8a <_svfprintf_r+0x168>
20014f6a:	01046413          	ori	s0,s0,16
20014f6e:	bf31                	j	20014e8a <_svfprintf_r+0x168>
20014f70:	004b0793          	addi	a5,s6,4
20014f74:	c63e                	sw	a5,12(sp)
20014f76:	000b2783          	lw	a5,0(s6)
20014f7a:	0a0103a3          	sb	zero,167(sp)
20014f7e:	12f10623          	sb	a5,300(sp)
20014f82:	4b01                	li	s6,0
20014f84:	4d85                	li	s11,1
20014f86:	4d01                	li	s10,0
20014f88:	c402                	sw	zero,8(sp)
20014f8a:	4b81                	li	s7,0
20014f8c:	4c81                	li	s9,0
20014f8e:	1264                	addi	s1,sp,300
20014f90:	d06a                	sw	s10,32(sp)
20014f92:	01bd5363          	bge	s10,s11,20014f98 <_svfprintf_r+0x276>
20014f96:	d06e                	sw	s11,32(sp)
20014f98:	0a714703          	lbu	a4,167(sp)
20014f9c:	c701                	beqz	a4,20014fa4 <_svfprintf_r+0x282>
20014f9e:	5782                	lw	a5,32(sp)
20014fa0:	0785                	addi	a5,a5,1
20014fa2:	d03e                	sw	a5,32(sp)
20014fa4:	00247793          	andi	a5,s0,2
20014fa8:	dc3e                	sw	a5,56(sp)
20014faa:	c781                	beqz	a5,20014fb2 <_svfprintf_r+0x290>
20014fac:	5782                	lw	a5,32(sp)
20014fae:	0789                	addi	a5,a5,2
20014fb0:	d03e                	sw	a5,32(sp)
20014fb2:	08447793          	andi	a5,s0,132
20014fb6:	de3e                	sw	a5,60(sp)
20014fb8:	eba9                	bnez	a5,2001500a <_svfprintf_r+0x2e8>
20014fba:	47f2                	lw	a5,28(sp)
20014fbc:	5702                	lw	a4,32(sp)
20014fbe:	40e78733          	sub	a4,a5,a4
20014fc2:	04e05463          	blez	a4,2001500a <_svfprintf_r+0x2e8>
20014fc6:	4ec1                	li	t4,16
20014fc8:	00009e17          	auipc	t3,0x9
20014fcc:	324e0e13          	addi	t3,t3,804 # 2001e2ec <blanks.4498>
20014fd0:	4f1d                	li	t5,7
20014fd2:	46ae                	lw	a3,200(sp)
20014fd4:	01cc2023          	sw	t3,0(s8)
20014fd8:	463e                	lw	a2,204(sp)
20014fda:	0685                	addi	a3,a3,1
20014fdc:	008c0593          	addi	a1,s8,8
20014fe0:	36eecde3          	blt	t4,a4,20015b5a <_svfprintf_r+0xe38>
20014fe4:	00ec2223          	sw	a4,4(s8)
20014fe8:	9732                	add	a4,a4,a2
20014fea:	c7ba                	sw	a4,204(sp)
20014fec:	c5b6                	sw	a3,200(sp)
20014fee:	471d                	li	a4,7
20014ff0:	8c2e                	mv	s8,a1
20014ff2:	00d75c63          	bge	a4,a3,2001500a <_svfprintf_r+0x2e8>
20014ff6:	01d0                	addi	a2,sp,196
20014ff8:	85ce                	mv	a1,s3
20014ffa:	854a                	mv	a0,s2
20014ffc:	005020ef          	jal	ra,20017800 <__ssprint_r>
20015000:	c119                	beqz	a0,20015006 <_svfprintf_r+0x2e4>
20015002:	2820106f          	j	20016284 <_svfprintf_r+0x1562>
20015006:	0ec10c13          	addi	s8,sp,236
2001500a:	0a714703          	lbu	a4,167(sp)
2001500e:	cf05                	beqz	a4,20015046 <_svfprintf_r+0x324>
20015010:	0a710713          	addi	a4,sp,167
20015014:	00ec2023          	sw	a4,0(s8)
20015018:	4705                	li	a4,1
2001501a:	00ec2223          	sw	a4,4(s8)
2001501e:	473e                	lw	a4,204(sp)
20015020:	469d                	li	a3,7
20015022:	0c21                	addi	s8,s8,8
20015024:	0705                	addi	a4,a4,1
20015026:	c7ba                	sw	a4,204(sp)
20015028:	472e                	lw	a4,200(sp)
2001502a:	0705                	addi	a4,a4,1
2001502c:	c5ba                	sw	a4,200(sp)
2001502e:	00e6dc63          	bge	a3,a4,20015046 <_svfprintf_r+0x324>
20015032:	01d0                	addi	a2,sp,196
20015034:	85ce                	mv	a1,s3
20015036:	854a                	mv	a0,s2
20015038:	7c8020ef          	jal	ra,20017800 <__ssprint_r>
2001503c:	c119                	beqz	a0,20015042 <_svfprintf_r+0x320>
2001503e:	2460106f          	j	20016284 <_svfprintf_r+0x1562>
20015042:	0ec10c13          	addi	s8,sp,236
20015046:	57e2                	lw	a5,56(sp)
20015048:	cb9d                	beqz	a5,2001507e <_svfprintf_r+0x35c>
2001504a:	1138                	addi	a4,sp,168
2001504c:	00ec2023          	sw	a4,0(s8)
20015050:	4709                	li	a4,2
20015052:	00ec2223          	sw	a4,4(s8)
20015056:	473e                	lw	a4,204(sp)
20015058:	469d                	li	a3,7
2001505a:	0c21                	addi	s8,s8,8
2001505c:	0709                	addi	a4,a4,2
2001505e:	c7ba                	sw	a4,204(sp)
20015060:	472e                	lw	a4,200(sp)
20015062:	0705                	addi	a4,a4,1
20015064:	c5ba                	sw	a4,200(sp)
20015066:	00e6dc63          	bge	a3,a4,2001507e <_svfprintf_r+0x35c>
2001506a:	01d0                	addi	a2,sp,196
2001506c:	85ce                	mv	a1,s3
2001506e:	854a                	mv	a0,s2
20015070:	790020ef          	jal	ra,20017800 <__ssprint_r>
20015074:	c119                	beqz	a0,2001507a <_svfprintf_r+0x358>
20015076:	20e0106f          	j	20016284 <_svfprintf_r+0x1562>
2001507a:	0ec10c13          	addi	s8,sp,236
2001507e:	57f2                	lw	a5,60(sp)
20015080:	08000713          	li	a4,128
20015084:	04e79963          	bne	a5,a4,200150d6 <_svfprintf_r+0x3b4>
20015088:	47f2                	lw	a5,28(sp)
2001508a:	5702                	lw	a4,32(sp)
2001508c:	8f99                	sub	a5,a5,a4
2001508e:	04f05463          	blez	a5,200150d6 <_svfprintf_r+0x3b4>
20015092:	4841                	li	a6,16
20015094:	4e1d                	li	t3,7
20015096:	472e                	lw	a4,200(sp)
20015098:	00009597          	auipc	a1,0x9
2001509c:	26458593          	addi	a1,a1,612 # 2001e2fc <zeroes.4499>
200150a0:	00bc2023          	sw	a1,0(s8)
200150a4:	46be                	lw	a3,204(sp)
200150a6:	0705                	addi	a4,a4,1
200150a8:	008c0613          	addi	a2,s8,8
200150ac:	2ef842e3          	blt	a6,a5,20015b90 <_svfprintf_r+0xe6e>
200150b0:	00fc2223          	sw	a5,4(s8)
200150b4:	97b6                	add	a5,a5,a3
200150b6:	c7be                	sw	a5,204(sp)
200150b8:	c5ba                	sw	a4,200(sp)
200150ba:	469d                	li	a3,7
200150bc:	8c32                	mv	s8,a2
200150be:	00e6dc63          	bge	a3,a4,200150d6 <_svfprintf_r+0x3b4>
200150c2:	01d0                	addi	a2,sp,196
200150c4:	85ce                	mv	a1,s3
200150c6:	854a                	mv	a0,s2
200150c8:	738020ef          	jal	ra,20017800 <__ssprint_r>
200150cc:	c119                	beqz	a0,200150d2 <_svfprintf_r+0x3b0>
200150ce:	1b60106f          	j	20016284 <_svfprintf_r+0x1562>
200150d2:	0ec10c13          	addi	s8,sp,236
200150d6:	41bd0d33          	sub	s10,s10,s11
200150da:	05a05463          	blez	s10,20015122 <_svfprintf_r+0x400>
200150de:	47c1                	li	a5,16
200150e0:	481d                	li	a6,7
200150e2:	472e                	lw	a4,200(sp)
200150e4:	46be                	lw	a3,204(sp)
200150e6:	008c0613          	addi	a2,s8,8
200150ea:	0705                	addi	a4,a4,1
200150ec:	2da7c9e3          	blt	a5,s10,20015bbe <_svfprintf_r+0xe9c>
200150f0:	01ac2223          	sw	s10,4(s8)
200150f4:	00009797          	auipc	a5,0x9
200150f8:	20878793          	addi	a5,a5,520 # 2001e2fc <zeroes.4499>
200150fc:	9d36                	add	s10,s10,a3
200150fe:	00fc2023          	sw	a5,0(s8)
20015102:	c7ea                	sw	s10,204(sp)
20015104:	c5ba                	sw	a4,200(sp)
20015106:	469d                	li	a3,7
20015108:	8c32                	mv	s8,a2
2001510a:	00e6dc63          	bge	a3,a4,20015122 <_svfprintf_r+0x400>
2001510e:	01d0                	addi	a2,sp,196
20015110:	85ce                	mv	a1,s3
20015112:	854a                	mv	a0,s2
20015114:	6ec020ef          	jal	ra,20017800 <__ssprint_r>
20015118:	c119                	beqz	a0,2001511e <_svfprintf_r+0x3fc>
2001511a:	16a0106f          	j	20016284 <_svfprintf_r+0x1562>
2001511e:	0ec10c13          	addi	s8,sp,236
20015122:	10047713          	andi	a4,s0,256
20015126:	4d3e                	lw	s10,204(sp)
20015128:	2c0716e3          	bnez	a4,20015bf4 <_svfprintf_r+0xed2>
2001512c:	47ae                	lw	a5,200(sp)
2001512e:	01ad8333          	add	t1,s11,s10
20015132:	009c2023          	sw	s1,0(s8)
20015136:	0785                	addi	a5,a5,1
20015138:	01bc2223          	sw	s11,4(s8)
2001513c:	c79a                	sw	t1,204(sp)
2001513e:	c5be                	sw	a5,200(sp)
20015140:	471d                	li	a4,7
20015142:	0c21                	addi	s8,s8,8
20015144:	48f75be3          	bge	a4,a5,20015dda <_svfprintf_r+0x10b8>
20015148:	01d0                	addi	a2,sp,196
2001514a:	85ce                	mv	a1,s3
2001514c:	854a                	mv	a0,s2
2001514e:	6b2020ef          	jal	ra,20017800 <__ssprint_r>
20015152:	c119                	beqz	a0,20015158 <_svfprintf_r+0x436>
20015154:	1300106f          	j	20016284 <_svfprintf_r+0x1562>
20015158:	0ec10c13          	addi	s8,sp,236
2001515c:	47f0006f          	j	20015dda <_svfprintf_r+0x10b8>
20015160:	01046413          	ori	s0,s0,16
20015164:	02047793          	andi	a5,s0,32
20015168:	cfa9                	beqz	a5,200151c2 <_svfprintf_r+0x4a0>
2001516a:	0b1d                	addi	s6,s6,7
2001516c:	ff8b7b13          	andi	s6,s6,-8
20015170:	000b2d03          	lw	s10,0(s6)
20015174:	004b2c83          	lw	s9,4(s6)
20015178:	008b0793          	addi	a5,s6,8
2001517c:	c63e                	sw	a5,12(sp)
2001517e:	000cc463          	bltz	s9,20015186 <_svfprintf_r+0x464>
20015182:	15a0106f          	j	200162dc <_svfprintf_r+0x15ba>
20015186:	41a00d33          	neg	s10,s10
2001518a:	01a037b3          	snez	a5,s10
2001518e:	41900cb3          	neg	s9,s9
20015192:	40fc8cb3          	sub	s9,s9,a5
20015196:	02d00793          	li	a5,45
2001519a:	0af103a3          	sb	a5,167(sp)
2001519e:	4785                	li	a5,1
200151a0:	577d                	li	a4,-1
200151a2:	08ed82e3          	beq	s11,a4,20015a26 <_svfprintf_r+0xd04>
200151a6:	8722                	mv	a4,s0
200151a8:	019d66b3          	or	a3,s10,s9
200151ac:	f7f47413          	andi	s0,s0,-129
200151b0:	06069be3          	bnez	a3,20015a26 <_svfprintf_r+0xd04>
200151b4:	180d80e3          	beqz	s11,20015b34 <_svfprintf_r+0xe12>
200151b8:	4705                	li	a4,1
200151ba:	06e799e3          	bne	a5,a4,20015a2c <_svfprintf_r+0xd0a>
200151be:	12e0106f          	j	200162ec <_svfprintf_r+0x15ca>
200151c2:	004b0793          	addi	a5,s6,4
200151c6:	c63e                	sw	a5,12(sp)
200151c8:	01047793          	andi	a5,s0,16
200151cc:	c791                	beqz	a5,200151d8 <_svfprintf_r+0x4b6>
200151ce:	000b2d03          	lw	s10,0(s6)
200151d2:	41fd5c93          	srai	s9,s10,0x1f
200151d6:	b765                	j	2001517e <_svfprintf_r+0x45c>
200151d8:	04047793          	andi	a5,s0,64
200151dc:	000b2d03          	lw	s10,0(s6)
200151e0:	c789                	beqz	a5,200151ea <_svfprintf_r+0x4c8>
200151e2:	0d42                	slli	s10,s10,0x10
200151e4:	410d5d13          	srai	s10,s10,0x10
200151e8:	b7ed                	j	200151d2 <_svfprintf_r+0x4b0>
200151ea:	20047793          	andi	a5,s0,512
200151ee:	d3f5                	beqz	a5,200151d2 <_svfprintf_r+0x4b0>
200151f0:	0d62                	slli	s10,s10,0x18
200151f2:	418d5d13          	srai	s10,s10,0x18
200151f6:	bff1                	j	200151d2 <_svfprintf_r+0x4b0>
200151f8:	00847793          	andi	a5,s0,8
200151fc:	cfb5                	beqz	a5,20015278 <_svfprintf_r+0x556>
200151fe:	004b0793          	addi	a5,s6,4
20015202:	c63e                	sw	a5,12(sp)
20015204:	000b2783          	lw	a5,0(s6)
20015208:	4390                	lw	a2,0(a5)
2001520a:	43d4                	lw	a3,4(a5)
2001520c:	4798                	lw	a4,8(a5)
2001520e:	47dc                	lw	a5,12(a5)
20015210:	c9b2                	sw	a2,208(sp)
20015212:	cbb6                	sw	a3,212(sp)
20015214:	cdba                	sw	a4,216(sp)
20015216:	0988                	addi	a0,sp,208
20015218:	cfbe                	sw	a5,220(sp)
2001521a:	e24fe0ef          	jal	ra,2001383e <_ldcheck>
2001521e:	d72a                	sw	a0,172(sp)
20015220:	4789                	li	a5,2
20015222:	08f51063          	bne	a0,a5,200152a2 <_svfprintf_r+0x580>
20015226:	47ce                	lw	a5,208(sp)
20015228:	010c                	addi	a1,sp,128
2001522a:	0908                	addi	a0,sp,144
2001522c:	c93e                	sw	a5,144(sp)
2001522e:	47de                	lw	a5,212(sp)
20015230:	c102                	sw	zero,128(sp)
20015232:	c302                	sw	zero,132(sp)
20015234:	cb3e                	sw	a5,148(sp)
20015236:	47ee                	lw	a5,216(sp)
20015238:	c502                	sw	zero,136(sp)
2001523a:	c702                	sw	zero,140(sp)
2001523c:	cd3e                	sw	a5,152(sp)
2001523e:	47fe                	lw	a5,220(sp)
20015240:	cf3e                	sw	a5,156(sp)
20015242:	2b0040ef          	jal	ra,200194f2 <__letf2>
20015246:	00055663          	bgez	a0,20015252 <_svfprintf_r+0x530>
2001524a:	02d00793          	li	a5,45
2001524e:	0af103a3          	sb	a5,167(sp)
20015252:	04700793          	li	a5,71
20015256:	00009497          	auipc	s1,0x9
2001525a:	b3a48493          	addi	s1,s1,-1222 # 2001dd90 <zeroes.4514+0x10>
2001525e:	0157d663          	bge	a5,s5,2001526a <_svfprintf_r+0x548>
20015262:	00009497          	auipc	s1,0x9
20015266:	b3248493          	addi	s1,s1,-1230 # 2001dd94 <zeroes.4514+0x14>
2001526a:	f7f47413          	andi	s0,s0,-129
2001526e:	4b01                	li	s6,0
20015270:	4d8d                	li	s11,3
20015272:	4d01                	li	s10,0
20015274:	0070006f          	j	20015a7a <_svfprintf_r+0xd58>
20015278:	0b1d                	addi	s6,s6,7
2001527a:	ff8b7b13          	andi	s6,s6,-8
2001527e:	000b2583          	lw	a1,0(s6)
20015282:	004b2603          	lw	a2,4(s6)
20015286:	008b0793          	addi	a5,s6,8
2001528a:	0908                	addi	a0,sp,144
2001528c:	c63e                	sw	a5,12(sp)
2001528e:	6db050ef          	jal	ra,2001b168 <__extenddftf2>
20015292:	47ca                	lw	a5,144(sp)
20015294:	c9be                	sw	a5,208(sp)
20015296:	47da                	lw	a5,148(sp)
20015298:	cbbe                	sw	a5,212(sp)
2001529a:	47ea                	lw	a5,152(sp)
2001529c:	cdbe                	sw	a5,216(sp)
2001529e:	47fa                	lw	a5,156(sp)
200152a0:	bf9d                	j	20015216 <_svfprintf_r+0x4f4>
200152a2:	4785                	li	a5,1
200152a4:	02f51663          	bne	a0,a5,200152d0 <_svfprintf_r+0x5ae>
200152a8:	47fe                	lw	a5,220(sp)
200152aa:	0007d663          	bgez	a5,200152b6 <_svfprintf_r+0x594>
200152ae:	02d00793          	li	a5,45
200152b2:	0af103a3          	sb	a5,167(sp)
200152b6:	04700793          	li	a5,71
200152ba:	00009497          	auipc	s1,0x9
200152be:	ade48493          	addi	s1,s1,-1314 # 2001dd98 <zeroes.4514+0x18>
200152c2:	fb57d4e3          	bge	a5,s5,2001526a <_svfprintf_r+0x548>
200152c6:	00009497          	auipc	s1,0x9
200152ca:	ad648493          	addi	s1,s1,-1322 # 2001dd9c <zeroes.4514+0x1c>
200152ce:	bf71                	j	2001526a <_svfprintf_r+0x548>
200152d0:	fdfafb93          	andi	s7,s5,-33
200152d4:	04100793          	li	a5,65
200152d8:	08fb9763          	bne	s7,a5,20015366 <_svfprintf_r+0x644>
200152dc:	03000793          	li	a5,48
200152e0:	0af10423          	sb	a5,168(sp)
200152e4:	06100713          	li	a4,97
200152e8:	07800793          	li	a5,120
200152ec:	00ea8463          	beq	s5,a4,200152f4 <_svfprintf_r+0x5d2>
200152f0:	05800793          	li	a5,88
200152f4:	0af104a3          	sb	a5,169(sp)
200152f8:	06300793          	li	a5,99
200152fc:	00246413          	ori	s0,s0,2
20015300:	35b7dc63          	bge	a5,s11,20015658 <_svfprintf_r+0x936>
20015304:	001d8593          	addi	a1,s11,1
20015308:	854a                	mv	a0,s2
2001530a:	f5afe0ef          	jal	ra,20013a64 <_malloc_r>
2001530e:	84aa                	mv	s1,a0
20015310:	34051763          	bnez	a0,2001565e <_svfprintf_r+0x93c>
20015314:	00c9d783          	lhu	a5,12(s3)
20015318:	0407e793          	ori	a5,a5,64
2001531c:	00f99623          	sh	a5,12(s3)
20015320:	00c9d783          	lhu	a5,12(s3)
20015324:	0407f793          	andi	a5,a5,64
20015328:	a6079ce3          	bnez	a5,20014da0 <_svfprintf_r+0x7e>
2001532c:	1cc12083          	lw	ra,460(sp)
20015330:	1c812403          	lw	s0,456(sp)
20015334:	4562                	lw	a0,24(sp)
20015336:	1c412483          	lw	s1,452(sp)
2001533a:	1c012903          	lw	s2,448(sp)
2001533e:	1bc12983          	lw	s3,444(sp)
20015342:	1b812a03          	lw	s4,440(sp)
20015346:	1b412a83          	lw	s5,436(sp)
2001534a:	1b012b03          	lw	s6,432(sp)
2001534e:	1ac12b83          	lw	s7,428(sp)
20015352:	1a812c03          	lw	s8,424(sp)
20015356:	1a412c83          	lw	s9,420(sp)
2001535a:	1a012d03          	lw	s10,416(sp)
2001535e:	19c12d83          	lw	s11,412(sp)
20015362:	6179                	addi	sp,sp,464
20015364:	8082                	ret
20015366:	57fd                	li	a5,-1
20015368:	2efd8d63          	beq	s11,a5,20015662 <_svfprintf_r+0x940>
2001536c:	04700793          	li	a5,71
20015370:	4b01                	li	s6,0
20015372:	00fb9663          	bne	s7,a5,2001537e <_svfprintf_r+0x65c>
20015376:	000d9463          	bnez	s11,2001537e <_svfprintf_r+0x65c>
2001537a:	8b6e                	mv	s6,s11
2001537c:	4d85                	li	s11,1
2001537e:	4a7e                	lw	s4,220(sp)
20015380:	10046793          	ori	a5,s0,256
20015384:	d03e                	sw	a5,32(sp)
20015386:	dc02                	sw	zero,56(sp)
20015388:	4e4e                	lw	t3,208(sp)
2001538a:	48de                	lw	a7,212(sp)
2001538c:	4d6e                	lw	s10,216(sp)
2001538e:	000a5963          	bgez	s4,200153a0 <_svfprintf_r+0x67e>
20015392:	800007b7          	lui	a5,0x80000
20015396:	0147ca33          	xor	s4,a5,s4
2001539a:	02d00793          	li	a5,45
2001539e:	dc3e                	sw	a5,56(sp)
200153a0:	04100793          	li	a5,65
200153a4:	2efb9763          	bne	s7,a5,20015692 <_svfprintf_r+0x970>
200153a8:	0908                	addi	a0,sp,144
200153aa:	c972                	sw	t3,144(sp)
200153ac:	cb46                	sw	a7,148(sp)
200153ae:	cd6a                	sw	s10,152(sp)
200153b0:	cf52                	sw	s4,156(sp)
200153b2:	709050ef          	jal	ra,2001b2ba <__trunctfdf2>
200153b6:	1170                	addi	a2,sp,172
200153b8:	e3cff0ef          	jal	ra,200149f4 <frexp>
200153bc:	862e                	mv	a2,a1
200153be:	85aa                	mv	a1,a0
200153c0:	0908                	addi	a0,sp,144
200153c2:	5a7050ef          	jal	ra,2001b168 <__extenddftf2>
200153c6:	47ca                	lw	a5,144(sp)
200153c8:	1090                	addi	a2,sp,96
200153ca:	188c                	addi	a1,sp,112
200153cc:	d8be                	sw	a5,112(sp)
200153ce:	47da                	lw	a5,148(sp)
200153d0:	0108                	addi	a0,sp,128
200153d2:	d082                	sw	zero,96(sp)
200153d4:	dabe                	sw	a5,116(sp)
200153d6:	47ea                	lw	a5,152(sp)
200153d8:	d282                	sw	zero,100(sp)
200153da:	d482                	sw	zero,104(sp)
200153dc:	dcbe                	sw	a5,120(sp)
200153de:	47fa                	lw	a5,156(sp)
200153e0:	debe                	sw	a5,124(sp)
200153e2:	3ffc07b7          	lui	a5,0x3ffc0
200153e6:	d6be                	sw	a5,108(sp)
200153e8:	204040ef          	jal	ra,200195ec <__multf3>
200153ec:	480a                	lw	a6,128(sp)
200153ee:	461a                	lw	a2,132(sp)
200153f0:	46aa                	lw	a3,136(sp)
200153f2:	4d3a                	lw	s10,140(sp)
200153f4:	010c                	addi	a1,sp,128
200153f6:	0908                	addi	a0,sp,144
200153f8:	c942                	sw	a6,144(sp)
200153fa:	c0c2                	sw	a6,64(sp)
200153fc:	cb32                	sw	a2,148(sp)
200153fe:	de32                	sw	a2,60(sp)
20015400:	cd36                	sw	a3,152(sp)
20015402:	c436                	sw	a3,8(sp)
20015404:	cf6a                	sw	s10,156(sp)
20015406:	c102                	sw	zero,128(sp)
20015408:	c302                	sw	zero,132(sp)
2001540a:	c502                	sw	zero,136(sp)
2001540c:	c702                	sw	zero,140(sp)
2001540e:	745030ef          	jal	ra,20019352 <__eqtf2>
20015412:	46a2                	lw	a3,8(sp)
20015414:	5672                	lw	a2,60(sp)
20015416:	4806                	lw	a6,64(sp)
20015418:	e119                	bnez	a0,2001541e <_svfprintf_r+0x6fc>
2001541a:	4705                	li	a4,1
2001541c:	d73a                	sw	a4,172(sp)
2001541e:	00009797          	auipc	a5,0x9
20015422:	98278793          	addi	a5,a5,-1662 # 2001dda0 <zeroes.4514+0x20>
20015426:	06100713          	li	a4,97
2001542a:	c43e                	sw	a5,8(sp)
2001542c:	00ea8763          	beq	s5,a4,2001543a <_svfprintf_r+0x718>
20015430:	00009797          	auipc	a5,0x9
20015434:	98478793          	addi	a5,a5,-1660 # 2001ddb4 <zeroes.4514+0x34>
20015438:	c43e                	sw	a5,8(sp)
2001543a:	fffd8e13          	addi	t3,s11,-1
2001543e:	8ca6                	mv	s9,s1
20015440:	400307b7          	lui	a5,0x40030
20015444:	010c                	addi	a1,sp,128
20015446:	c332                	sw	a2,132(sp)
20015448:	0908                	addi	a0,sp,144
2001544a:	1890                	addi	a2,sp,112
2001544c:	c4f2                	sw	t3,72(sp)
2001544e:	c142                	sw	a6,128(sp)
20015450:	c536                	sw	a3,136(sp)
20015452:	c76a                	sw	s10,140(sp)
20015454:	debe                	sw	a5,124(sp)
20015456:	d882                	sw	zero,112(sp)
20015458:	da82                	sw	zero,116(sp)
2001545a:	dc82                	sw	zero,120(sp)
2001545c:	190040ef          	jal	ra,200195ec <__multf3>
20015460:	464a                	lw	a2,144(sp)
20015462:	46da                	lw	a3,148(sp)
20015464:	47ea                	lw	a5,152(sp)
20015466:	0908                	addi	a0,sp,144
20015468:	c2b2                	sw	a2,68(sp)
2001546a:	c0b6                	sw	a3,64(sp)
2001546c:	de3e                	sw	a5,60(sp)
2001546e:	317050ef          	jal	ra,2001af84 <__fixtfsi>
20015472:	85aa                	mv	a1,a0
20015474:	8a2a                	mv	s4,a0
20015476:	0908                	addi	a0,sp,144
20015478:	4d7a                	lw	s10,156(sp)
2001547a:	3f7050ef          	jal	ra,2001b070 <__floatsitf>
2001547e:	57f2                	lw	a5,60(sp)
20015480:	4616                	lw	a2,68(sp)
20015482:	4686                	lw	a3,64(sp)
20015484:	dcbe                	sw	a5,120(sp)
20015486:	47ca                	lw	a5,144(sp)
20015488:	d8b2                	sw	a2,112(sp)
2001548a:	188c                	addi	a1,sp,112
2001548c:	d0be                	sw	a5,96(sp)
2001548e:	47da                	lw	a5,148(sp)
20015490:	1090                	addi	a2,sp,96
20015492:	0108                	addi	a0,sp,128
20015494:	d2be                	sw	a5,100(sp)
20015496:	47ea                	lw	a5,152(sp)
20015498:	deea                	sw	s10,124(sp)
2001549a:	dab6                	sw	a3,116(sp)
2001549c:	d4be                	sw	a5,104(sp)
2001549e:	47fa                	lw	a5,156(sp)
200154a0:	0c85                	addi	s9,s9,1
200154a2:	d6be                	sw	a5,108(sp)
200154a4:	485040ef          	jal	ra,2001a128 <__subtf3>
200154a8:	47a2                	lw	a5,8(sp)
200154aa:	4e26                	lw	t3,72(sp)
200154ac:	4eba                	lw	t4,140(sp)
200154ae:	014785b3          	add	a1,a5,s4
200154b2:	0005c583          	lbu	a1,0(a1)
200154b6:	428a                	lw	t0,128(sp)
200154b8:	4f9a                	lw	t6,132(sp)
200154ba:	4f2a                	lw	t5,136(sp)
200154bc:	de72                	sw	t3,60(sp)
200154be:	febc8fa3          	sb	a1,-1(s9)
200154c2:	57fd                	li	a5,-1
200154c4:	8d76                	mv	s10,t4
200154c6:	04fe0063          	beq	t3,a5,20015506 <_svfprintf_r+0x7e4>
200154ca:	1e7d                	addi	t3,t3,-1
200154cc:	010c                	addi	a1,sp,128
200154ce:	0908                	addi	a0,sp,144
200154d0:	cef6                	sw	t4,92(sp)
200154d2:	ccfa                	sw	t5,88(sp)
200154d4:	cafe                	sw	t6,84(sp)
200154d6:	c896                	sw	t0,80(sp)
200154d8:	c6f2                	sw	t3,76(sp)
200154da:	c916                	sw	t0,144(sp)
200154dc:	c496                	sw	t0,72(sp)
200154de:	cb7e                	sw	t6,148(sp)
200154e0:	c2fe                	sw	t6,68(sp)
200154e2:	cd7a                	sw	t5,152(sp)
200154e4:	c0fa                	sw	t5,64(sp)
200154e6:	cf76                	sw	t4,156(sp)
200154e8:	c102                	sw	zero,128(sp)
200154ea:	c302                	sw	zero,132(sp)
200154ec:	c502                	sw	zero,136(sp)
200154ee:	c702                	sw	zero,140(sp)
200154f0:	663030ef          	jal	ra,20019352 <__eqtf2>
200154f4:	4686                	lw	a3,64(sp)
200154f6:	4616                	lw	a2,68(sp)
200154f8:	4826                	lw	a6,72(sp)
200154fa:	4e36                	lw	t3,76(sp)
200154fc:	42c6                	lw	t0,80(sp)
200154fe:	4fd6                	lw	t6,84(sp)
20015500:	4f66                	lw	t5,88(sp)
20015502:	4ef6                	lw	t4,92(sp)
20015504:	fd15                	bnez	a0,20015440 <_svfprintf_r+0x71e>
20015506:	3ffe0d37          	lui	s10,0x3ffe0
2001550a:	010c                	addi	a1,sp,128
2001550c:	0908                	addi	a0,sp,144
2001550e:	c916                	sw	t0,144(sp)
20015510:	c696                	sw	t0,76(sp)
20015512:	cb7e                	sw	t6,148(sp)
20015514:	c4fe                	sw	t6,72(sp)
20015516:	cd7a                	sw	t5,152(sp)
20015518:	c2fa                	sw	t5,68(sp)
2001551a:	cf76                	sw	t4,156(sp)
2001551c:	c0f6                	sw	t4,64(sp)
2001551e:	c102                	sw	zero,128(sp)
20015520:	c302                	sw	zero,132(sp)
20015522:	c502                	sw	zero,136(sp)
20015524:	c76a                	sw	s10,140(sp)
20015526:	6d3030ef          	jal	ra,200193f8 <__getf2>
2001552a:	02a04863          	bgtz	a0,2001555a <_svfprintf_r+0x838>
2001552e:	42b6                	lw	t0,76(sp)
20015530:	4fa6                	lw	t6,72(sp)
20015532:	4f16                	lw	t5,68(sp)
20015534:	4e86                	lw	t4,64(sp)
20015536:	010c                	addi	a1,sp,128
20015538:	0908                	addi	a0,sp,144
2001553a:	c916                	sw	t0,144(sp)
2001553c:	cb7e                	sw	t6,148(sp)
2001553e:	cd7a                	sw	t5,152(sp)
20015540:	cf76                	sw	t4,156(sp)
20015542:	c102                	sw	zero,128(sp)
20015544:	c302                	sw	zero,132(sp)
20015546:	c502                	sw	zero,136(sp)
20015548:	c76a                	sw	s10,140(sp)
2001554a:	609030ef          	jal	ra,20019352 <__eqtf2>
2001554e:	12051c63          	bnez	a0,20015686 <_svfprintf_r+0x964>
20015552:	001a7a13          	andi	s4,s4,1
20015556:	120a0863          	beqz	s4,20015686 <_svfprintf_r+0x964>
2001555a:	47a2                	lw	a5,8(sp)
2001555c:	df66                	sw	s9,188(sp)
2001555e:	03000593          	li	a1,48
20015562:	00f7c603          	lbu	a2,15(a5) # 4003000f <__init_array_end+0x20010c3b>
20015566:	56fa                	lw	a3,188(sp)
20015568:	fff68793          	addi	a5,a3,-1
2001556c:	df3e                	sw	a5,188(sp)
2001556e:	fff6c783          	lbu	a5,-1(a3)
20015572:	0ec78b63          	beq	a5,a2,20015668 <_svfprintf_r+0x946>
20015576:	03900613          	li	a2,57
2001557a:	0ec79a63          	bne	a5,a2,2001566e <_svfprintf_r+0x94c>
2001557e:	47a2                	lw	a5,8(sp)
20015580:	00a7c783          	lbu	a5,10(a5)
20015584:	fef68fa3          	sb	a5,-1(a3)
20015588:	8a66                	mv	s4,s9
2001558a:	04700713          	li	a4,71
2001558e:	409a0a33          	sub	s4,s4,s1
20015592:	5cba                	lw	s9,172(sp)
20015594:	1ceb9a63          	bne	s7,a4,20015768 <_svfprintf_r+0xa46>
20015598:	5775                	li	a4,-3
2001559a:	00ecc463          	blt	s9,a4,200155a2 <_svfprintf_r+0x880>
2001559e:	239dd663          	bge	s11,s9,200157ca <_svfprintf_r+0xaa8>
200155a2:	1af9                	addi	s5,s5,-2
200155a4:	fffc8693          	addi	a3,s9,-1
200155a8:	d736                	sw	a3,172(sp)
200155aa:	fdfaf613          	andi	a2,s5,-33
200155ae:	04100513          	li	a0,65
200155b2:	0ffaf713          	andi	a4,s5,255
200155b6:	4581                	li	a1,0
200155b8:	00a61663          	bne	a2,a0,200155c4 <_svfprintf_r+0x8a2>
200155bc:	073d                	addi	a4,a4,15
200155be:	0ff77713          	andi	a4,a4,255
200155c2:	4585                	li	a1,1
200155c4:	0ae10a23          	sb	a4,180(sp)
200155c8:	02b00793          	li	a5,43
200155cc:	0006d763          	bgez	a3,200155da <_svfprintf_r+0x8b8>
200155d0:	4685                	li	a3,1
200155d2:	419686b3          	sub	a3,a3,s9
200155d6:	02d00793          	li	a5,45
200155da:	0af10aa3          	sb	a5,181(sp)
200155de:	47a5                	li	a5,9
200155e0:	1cd7d063          	bge	a5,a3,200157a0 <_svfprintf_r+0xa7e>
200155e4:	0c310713          	addi	a4,sp,195
200155e8:	853a                	mv	a0,a4
200155ea:	45a9                	li	a1,10
200155ec:	06300813          	li	a6,99
200155f0:	02b6e7b3          	rem	a5,a3,a1
200155f4:	fff70613          	addi	a2,a4,-1
200155f8:	03078793          	addi	a5,a5,48
200155fc:	fef70fa3          	sb	a5,-1(a4)
20015600:	02b6c7b3          	div	a5,a3,a1
20015604:	18d84463          	blt	a6,a3,2001578c <_svfprintf_r+0xa6a>
20015608:	03078793          	addi	a5,a5,48
2001560c:	fef60fa3          	sb	a5,-1(a2)
20015610:	1779                	addi	a4,a4,-2
20015612:	0b610613          	addi	a2,sp,182
20015616:	16a76e63          	bltu	a4,a0,20015792 <_svfprintf_r+0xa70>
2001561a:	195c                	addi	a5,sp,180
2001561c:	40f607b3          	sub	a5,a2,a5
20015620:	d83e                	sw	a5,48(sp)
20015622:	01478db3          	add	s11,a5,s4
20015626:	4785                	li	a5,1
20015628:	0147c563          	blt	a5,s4,20015632 <_svfprintf_r+0x910>
2001562c:	00147793          	andi	a5,s0,1
20015630:	c399                	beqz	a5,20015636 <_svfprintf_r+0x914>
20015632:	47d2                	lw	a5,20(sp)
20015634:	9dbe                	add	s11,s11,a5
20015636:	bff47413          	andi	s0,s0,-1025
2001563a:	10046793          	ori	a5,s0,256
2001563e:	d03e                	sw	a5,32(sp)
20015640:	c402                	sw	zero,8(sp)
20015642:	4b81                	li	s7,0
20015644:	4c81                	li	s9,0
20015646:	57e2                	lw	a5,56(sp)
20015648:	c789                	beqz	a5,20015652 <_svfprintf_r+0x930>
2001564a:	02d00713          	li	a4,45
2001564e:	0ae103a3          	sb	a4,167(sp)
20015652:	5402                	lw	s0,32(sp)
20015654:	4d01                	li	s10,0
20015656:	ba2d                	j	20014f90 <_svfprintf_r+0x26e>
20015658:	4b01                	li	s6,0
2001565a:	1264                	addi	s1,sp,300
2001565c:	b30d                	j	2001537e <_svfprintf_r+0x65c>
2001565e:	8b2a                	mv	s6,a0
20015660:	bb39                	j	2001537e <_svfprintf_r+0x65c>
20015662:	4b01                	li	s6,0
20015664:	4d99                	li	s11,6
20015666:	bb21                	j	2001537e <_svfprintf_r+0x65c>
20015668:	feb68fa3          	sb	a1,-1(a3)
2001566c:	bded                	j	20015566 <_svfprintf_r+0x844>
2001566e:	0785                	addi	a5,a5,1
20015670:	0ff7f793          	andi	a5,a5,255
20015674:	bf01                	j	20015584 <_svfprintf_r+0x862>
20015676:	0a05                	addi	s4,s4,1
20015678:	feea0fa3          	sb	a4,-1(s4)
2001567c:	414c87b3          	sub	a5,s9,s4
20015680:	fe07dbe3          	bgez	a5,20015676 <_svfprintf_r+0x954>
20015684:	b719                	j	2001558a <_svfprintf_r+0x868>
20015686:	57f2                	lw	a5,60(sp)
20015688:	8a66                	mv	s4,s9
2001568a:	03000713          	li	a4,48
2001568e:	9cbe                	add	s9,s9,a5
20015690:	b7f5                	j	2001567c <_svfprintf_r+0x95a>
20015692:	04600793          	li	a5,70
20015696:	00fb8b63          	beq	s7,a5,200156ac <_svfprintf_r+0x98a>
2001569a:	04500793          	li	a5,69
2001569e:	001d8313          	addi	t1,s11,1
200156a2:	00fb8363          	beq	s7,a5,200156a8 <_svfprintf_r+0x986>
200156a6:	836e                	mv	t1,s11
200156a8:	4609                	li	a2,2
200156aa:	a019                	j	200156b0 <_svfprintf_r+0x98e>
200156ac:	836e                	mv	t1,s11
200156ae:	460d                	li	a2,3
200156b0:	191c                	addi	a5,sp,176
200156b2:	869a                	mv	a3,t1
200156b4:	0bc10813          	addi	a6,sp,188
200156b8:	1178                	addi	a4,sp,172
200156ba:	090c                	addi	a1,sp,144
200156bc:	854a                	mv	a0,s2
200156be:	c972                	sw	t3,144(sp)
200156c0:	c0f2                	sw	t3,64(sp)
200156c2:	cb46                	sw	a7,148(sp)
200156c4:	de46                	sw	a7,60(sp)
200156c6:	c41a                	sw	t1,8(sp)
200156c8:	cd6a                	sw	s10,152(sp)
200156ca:	cf52                	sw	s4,156(sp)
200156cc:	87ffd0ef          	jal	ra,20012f4a <_ldtoa_r>
200156d0:	04700793          	li	a5,71
200156d4:	84aa                	mv	s1,a0
200156d6:	4322                	lw	t1,8(sp)
200156d8:	58f2                	lw	a7,60(sp)
200156da:	4e06                	lw	t3,64(sp)
200156dc:	00fb9763          	bne	s7,a5,200156ea <_svfprintf_r+0x9c8>
200156e0:	00147793          	andi	a5,s0,1
200156e4:	e399                	bnez	a5,200156ea <_svfprintf_r+0x9c8>
200156e6:	5a7a                	lw	s4,188(sp)
200156e8:	b54d                	j	2001558a <_svfprintf_r+0x868>
200156ea:	04600793          	li	a5,70
200156ee:	00648cb3          	add	s9,s1,t1
200156f2:	04fb9163          	bne	s7,a5,20015734 <_svfprintf_r+0xa12>
200156f6:	0004c703          	lbu	a4,0(s1)
200156fa:	03000793          	li	a5,48
200156fe:	02f71963          	bne	a4,a5,20015730 <_svfprintf_r+0xa0e>
20015702:	010c                	addi	a1,sp,128
20015704:	0908                	addi	a0,sp,144
20015706:	c972                	sw	t3,144(sp)
20015708:	de72                	sw	t3,60(sp)
2001570a:	cb46                	sw	a7,148(sp)
2001570c:	c446                	sw	a7,8(sp)
2001570e:	c09a                	sw	t1,64(sp)
20015710:	cd6a                	sw	s10,152(sp)
20015712:	cf52                	sw	s4,156(sp)
20015714:	c102                	sw	zero,128(sp)
20015716:	c302                	sw	zero,132(sp)
20015718:	c502                	sw	zero,136(sp)
2001571a:	c702                	sw	zero,140(sp)
2001571c:	437030ef          	jal	ra,20019352 <__eqtf2>
20015720:	48a2                	lw	a7,8(sp)
20015722:	5e72                	lw	t3,60(sp)
20015724:	c511                	beqz	a0,20015730 <_svfprintf_r+0xa0e>
20015726:	4306                	lw	t1,64(sp)
20015728:	4785                	li	a5,1
2001572a:	406787b3          	sub	a5,a5,t1
2001572e:	d73e                	sw	a5,172(sp)
20015730:	57ba                	lw	a5,172(sp)
20015732:	9cbe                	add	s9,s9,a5
20015734:	010c                	addi	a1,sp,128
20015736:	0908                	addi	a0,sp,144
20015738:	c972                	sw	t3,144(sp)
2001573a:	cb46                	sw	a7,148(sp)
2001573c:	cd6a                	sw	s10,152(sp)
2001573e:	cf52                	sw	s4,156(sp)
20015740:	c102                	sw	zero,128(sp)
20015742:	c302                	sw	zero,132(sp)
20015744:	c502                	sw	zero,136(sp)
20015746:	c702                	sw	zero,140(sp)
20015748:	40b030ef          	jal	ra,20019352 <__eqtf2>
2001574c:	e111                	bnez	a0,20015750 <_svfprintf_r+0xa2e>
2001574e:	df66                	sw	s9,188(sp)
20015750:	03000713          	li	a4,48
20015754:	a031                	j	20015760 <_svfprintf_r+0xa3e>
20015756:	00178693          	addi	a3,a5,1
2001575a:	df36                	sw	a3,188(sp)
2001575c:	00e78023          	sb	a4,0(a5)
20015760:	57fa                	lw	a5,188(sp)
20015762:	ff97eae3          	bltu	a5,s9,20015756 <_svfprintf_r+0xa34>
20015766:	b741                	j	200156e6 <_svfprintf_r+0x9c4>
20015768:	04600713          	li	a4,70
2001576c:	e2eb9ce3          	bne	s7,a4,200155a4 <_svfprintf_r+0x882>
20015770:	00147713          	andi	a4,s0,1
20015774:	01b76733          	or	a4,a4,s11
20015778:	05905463          	blez	s9,200157c0 <_svfprintf_r+0xa9e>
2001577c:	cb49                	beqz	a4,2001580e <_svfprintf_r+0xaec>
2001577e:	47d2                	lw	a5,20(sp)
20015780:	00fc8733          	add	a4,s9,a5
20015784:	9dba                	add	s11,s11,a4
20015786:	06600a93          	li	s5,102
2001578a:	a0bd                	j	200157f8 <_svfprintf_r+0xad6>
2001578c:	8732                	mv	a4,a2
2001578e:	86be                	mv	a3,a5
20015790:	b585                	j	200155f0 <_svfprintf_r+0x8ce>
20015792:	0705                	addi	a4,a4,1
20015794:	fff74783          	lbu	a5,-1(a4)
20015798:	0605                	addi	a2,a2,1
2001579a:	fef60fa3          	sb	a5,-1(a2)
2001579e:	bda5                	j	20015616 <_svfprintf_r+0x8f4>
200157a0:	0b610713          	addi	a4,sp,182
200157a4:	e599                	bnez	a1,200157b2 <_svfprintf_r+0xa90>
200157a6:	03000793          	li	a5,48
200157aa:	0af10b23          	sb	a5,182(sp)
200157ae:	0b710713          	addi	a4,sp,183
200157b2:	03068793          	addi	a5,a3,48
200157b6:	00170613          	addi	a2,a4,1
200157ba:	00f70023          	sb	a5,0(a4)
200157be:	bdb1                	j	2001561a <_svfprintf_r+0x8f8>
200157c0:	cb29                	beqz	a4,20015812 <_svfprintf_r+0xaf0>
200157c2:	47d2                	lw	a5,20(sp)
200157c4:	00178713          	addi	a4,a5,1
200157c8:	bf75                	j	20015784 <_svfprintf_r+0xa62>
200157ca:	014ccc63          	blt	s9,s4,200157e2 <_svfprintf_r+0xac0>
200157ce:	00147713          	andi	a4,s0,1
200157d2:	8de6                	mv	s11,s9
200157d4:	c701                	beqz	a4,200157dc <_svfprintf_r+0xaba>
200157d6:	47d2                	lw	a5,20(sp)
200157d8:	00fc8db3          	add	s11,s9,a5
200157dc:	06700a93          	li	s5,103
200157e0:	a821                	j	200157f8 <_svfprintf_r+0xad6>
200157e2:	47d2                	lw	a5,20(sp)
200157e4:	06700a93          	li	s5,103
200157e8:	00fa0db3          	add	s11,s4,a5
200157ec:	01904663          	bgtz	s9,200157f8 <_svfprintf_r+0xad6>
200157f0:	419d8333          	sub	t1,s11,s9
200157f4:	00130d93          	addi	s11,t1,1
200157f8:	40047b93          	andi	s7,s0,1024
200157fc:	c402                	sw	zero,8(sp)
200157fe:	e40b84e3          	beqz	s7,20015646 <_svfprintf_r+0x924>
20015802:	4b81                	li	s7,0
20015804:	e59051e3          	blez	s9,20015646 <_svfprintf_r+0x924>
20015808:	0ff00693          	li	a3,255
2001580c:	a015                	j	20015830 <_svfprintf_r+0xb0e>
2001580e:	8de6                	mv	s11,s9
20015810:	bf9d                	j	20015786 <_svfprintf_r+0xa64>
20015812:	06600a93          	li	s5,102
20015816:	4d85                	li	s11,1
20015818:	b7c5                	j	200157f8 <_svfprintf_r+0xad6>
2001581a:	03975063          	bge	a4,s9,2001583a <_svfprintf_r+0xb18>
2001581e:	4792                	lw	a5,4(sp)
20015820:	40ec8cb3          	sub	s9,s9,a4
20015824:	0017c703          	lbu	a4,1(a5)
20015828:	c30d                	beqz	a4,2001584a <_svfprintf_r+0xb28>
2001582a:	0785                	addi	a5,a5,1
2001582c:	0b85                	addi	s7,s7,1
2001582e:	c23e                	sw	a5,4(sp)
20015830:	4792                	lw	a5,4(sp)
20015832:	0007c703          	lbu	a4,0(a5)
20015836:	fed712e3          	bne	a4,a3,2001581a <_svfprintf_r+0xaf8>
2001583a:	47a2                	lw	a5,8(sp)
2001583c:	00fb8733          	add	a4,s7,a5
20015840:	5792                	lw	a5,36(sp)
20015842:	02f70733          	mul	a4,a4,a5
20015846:	9dba                	add	s11,s11,a4
20015848:	bbfd                	j	20015646 <_svfprintf_r+0x924>
2001584a:	47a2                	lw	a5,8(sp)
2001584c:	0785                	addi	a5,a5,1
2001584e:	c43e                	sw	a5,8(sp)
20015850:	b7c5                	j	20015830 <_svfprintf_r+0xb0e>
20015852:	004b0713          	addi	a4,s6,4
20015856:	c63a                	sw	a4,12(sp)
20015858:	02047713          	andi	a4,s0,32
2001585c:	000b2783          	lw	a5,0(s6)
20015860:	cb09                	beqz	a4,20015872 <_svfprintf_r+0xb50>
20015862:	4762                	lw	a4,24(sp)
20015864:	c398                	sw	a4,0(a5)
20015866:	877d                	srai	a4,a4,0x1f
20015868:	c3d8                	sw	a4,4(a5)
2001586a:	4b32                	lw	s6,12(sp)
2001586c:	44c2                	lw	s1,16(sp)
2001586e:	d58ff06f          	j	20014dc6 <_svfprintf_r+0xa4>
20015872:	01047713          	andi	a4,s0,16
20015876:	c701                	beqz	a4,2001587e <_svfprintf_r+0xb5c>
20015878:	4762                	lw	a4,24(sp)
2001587a:	c398                	sw	a4,0(a5)
2001587c:	b7fd                	j	2001586a <_svfprintf_r+0xb48>
2001587e:	04047713          	andi	a4,s0,64
20015882:	c709                	beqz	a4,2001588c <_svfprintf_r+0xb6a>
20015884:	4762                	lw	a4,24(sp)
20015886:	00e79023          	sh	a4,0(a5)
2001588a:	b7c5                	j	2001586a <_svfprintf_r+0xb48>
2001588c:	20047413          	andi	s0,s0,512
20015890:	d465                	beqz	s0,20015878 <_svfprintf_r+0xb56>
20015892:	4762                	lw	a4,24(sp)
20015894:	00e78023          	sb	a4,0(a5)
20015898:	bfc9                	j	2001586a <_svfprintf_r+0xb48>
2001589a:	01046413          	ori	s0,s0,16
2001589e:	02047793          	andi	a5,s0,32
200158a2:	c38d                	beqz	a5,200158c4 <_svfprintf_r+0xba2>
200158a4:	0b1d                	addi	s6,s6,7
200158a6:	ff8b7b13          	andi	s6,s6,-8
200158aa:	000b2d03          	lw	s10,0(s6)
200158ae:	004b2c83          	lw	s9,4(s6)
200158b2:	008b0793          	addi	a5,s6,8
200158b6:	c63e                	sw	a5,12(sp)
200158b8:	bff47413          	andi	s0,s0,-1025
200158bc:	4781                	li	a5,0
200158be:	0a0103a3          	sb	zero,167(sp)
200158c2:	b8f9                	j	200151a0 <_svfprintf_r+0x47e>
200158c4:	004b0793          	addi	a5,s6,4
200158c8:	c63e                	sw	a5,12(sp)
200158ca:	01047793          	andi	a5,s0,16
200158ce:	c781                	beqz	a5,200158d6 <_svfprintf_r+0xbb4>
200158d0:	000b2d03          	lw	s10,0(s6)
200158d4:	a031                	j	200158e0 <_svfprintf_r+0xbbe>
200158d6:	04047793          	andi	a5,s0,64
200158da:	c789                	beqz	a5,200158e4 <_svfprintf_r+0xbc2>
200158dc:	000b5d03          	lhu	s10,0(s6)
200158e0:	4c81                	li	s9,0
200158e2:	bfd9                	j	200158b8 <_svfprintf_r+0xb96>
200158e4:	20047793          	andi	a5,s0,512
200158e8:	d7e5                	beqz	a5,200158d0 <_svfprintf_r+0xbae>
200158ea:	000b4d03          	lbu	s10,0(s6)
200158ee:	bfcd                	j	200158e0 <_svfprintf_r+0xbbe>
200158f0:	004b0793          	addi	a5,s6,4
200158f4:	c63e                	sw	a5,12(sp)
200158f6:	77e1                	lui	a5,0xffff8
200158f8:	8307c793          	xori	a5,a5,-2000
200158fc:	0af11423          	sh	a5,168(sp)
20015900:	00008797          	auipc	a5,0x8
20015904:	4a078793          	addi	a5,a5,1184 # 2001dda0 <zeroes.4514+0x20>
20015908:	da3e                	sw	a5,52(sp)
2001590a:	000b2d03          	lw	s10,0(s6)
2001590e:	4c81                	li	s9,0
20015910:	00246413          	ori	s0,s0,2
20015914:	4789                	li	a5,2
20015916:	07800a93          	li	s5,120
2001591a:	b755                	j	200158be <_svfprintf_r+0xb9c>
2001591c:	004b0793          	addi	a5,s6,4
20015920:	c63e                	sw	a5,12(sp)
20015922:	0a0103a3          	sb	zero,167(sp)
20015926:	57fd                	li	a5,-1
20015928:	000b2483          	lw	s1,0(s6)
2001592c:	00fd8e63          	beq	s11,a5,20015948 <_svfprintf_r+0xc26>
20015930:	866e                	mv	a2,s11
20015932:	4581                	li	a1,0
20015934:	8526                	mv	a0,s1
20015936:	e92fe0ef          	jal	ra,20013fc8 <memchr>
2001593a:	8b2a                	mv	s6,a0
2001593c:	92050be3          	beqz	a0,20015272 <_svfprintf_r+0x550>
20015940:	40950db3          	sub	s11,a0,s1
20015944:	4b01                	li	s6,0
20015946:	b235                	j	20015272 <_svfprintf_r+0x550>
20015948:	8526                	mv	a0,s1
2001594a:	ba2ff0ef          	jal	ra,20014cec <strlen>
2001594e:	8daa                	mv	s11,a0
20015950:	bfd5                	j	20015944 <_svfprintf_r+0xc22>
20015952:	01046413          	ori	s0,s0,16
20015956:	02047793          	andi	a5,s0,32
2001595a:	cf89                	beqz	a5,20015974 <_svfprintf_r+0xc52>
2001595c:	0b1d                	addi	s6,s6,7
2001595e:	ff8b7b13          	andi	s6,s6,-8
20015962:	000b2d03          	lw	s10,0(s6)
20015966:	004b2c83          	lw	s9,4(s6)
2001596a:	008b0793          	addi	a5,s6,8
2001596e:	c63e                	sw	a5,12(sp)
20015970:	4785                	li	a5,1
20015972:	b7b1                	j	200158be <_svfprintf_r+0xb9c>
20015974:	004b0793          	addi	a5,s6,4
20015978:	c63e                	sw	a5,12(sp)
2001597a:	01047793          	andi	a5,s0,16
2001597e:	c781                	beqz	a5,20015986 <_svfprintf_r+0xc64>
20015980:	000b2d03          	lw	s10,0(s6)
20015984:	a031                	j	20015990 <_svfprintf_r+0xc6e>
20015986:	04047793          	andi	a5,s0,64
2001598a:	c789                	beqz	a5,20015994 <_svfprintf_r+0xc72>
2001598c:	000b5d03          	lhu	s10,0(s6)
20015990:	4c81                	li	s9,0
20015992:	bff9                	j	20015970 <_svfprintf_r+0xc4e>
20015994:	20047793          	andi	a5,s0,512
20015998:	d7e5                	beqz	a5,20015980 <_svfprintf_r+0xc5e>
2001599a:	000b4d03          	lbu	s10,0(s6)
2001599e:	bfcd                	j	20015990 <_svfprintf_r+0xc6e>
200159a0:	00008797          	auipc	a5,0x8
200159a4:	41478793          	addi	a5,a5,1044 # 2001ddb4 <zeroes.4514+0x34>
200159a8:	da3e                	sw	a5,52(sp)
200159aa:	02047793          	andi	a5,s0,32
200159ae:	c3b1                	beqz	a5,200159f2 <_svfprintf_r+0xcd0>
200159b0:	0b1d                	addi	s6,s6,7
200159b2:	ff8b7b13          	andi	s6,s6,-8
200159b6:	000b2d03          	lw	s10,0(s6)
200159ba:	004b2c83          	lw	s9,4(s6)
200159be:	008b0793          	addi	a5,s6,8
200159c2:	c63e                	sw	a5,12(sp)
200159c4:	00147793          	andi	a5,s0,1
200159c8:	cf81                	beqz	a5,200159e0 <_svfprintf_r+0xcbe>
200159ca:	019d67b3          	or	a5,s10,s9
200159ce:	cb89                	beqz	a5,200159e0 <_svfprintf_r+0xcbe>
200159d0:	03000793          	li	a5,48
200159d4:	0af10423          	sb	a5,168(sp)
200159d8:	0b5104a3          	sb	s5,169(sp)
200159dc:	00246413          	ori	s0,s0,2
200159e0:	bff47413          	andi	s0,s0,-1025
200159e4:	4789                	li	a5,2
200159e6:	bde1                	j	200158be <_svfprintf_r+0xb9c>
200159e8:	00008797          	auipc	a5,0x8
200159ec:	3b878793          	addi	a5,a5,952 # 2001dda0 <zeroes.4514+0x20>
200159f0:	bf65                	j	200159a8 <_svfprintf_r+0xc86>
200159f2:	004b0793          	addi	a5,s6,4
200159f6:	c63e                	sw	a5,12(sp)
200159f8:	01047793          	andi	a5,s0,16
200159fc:	c781                	beqz	a5,20015a04 <_svfprintf_r+0xce2>
200159fe:	000b2d03          	lw	s10,0(s6)
20015a02:	a031                	j	20015a0e <_svfprintf_r+0xcec>
20015a04:	04047793          	andi	a5,s0,64
20015a08:	c789                	beqz	a5,20015a12 <_svfprintf_r+0xcf0>
20015a0a:	000b5d03          	lhu	s10,0(s6)
20015a0e:	4c81                	li	s9,0
20015a10:	bf55                	j	200159c4 <_svfprintf_r+0xca2>
20015a12:	20047793          	andi	a5,s0,512
20015a16:	d7e5                	beqz	a5,200159fe <_svfprintf_r+0xcdc>
20015a18:	000b4d03          	lbu	s10,0(s6)
20015a1c:	bfcd                	j	20015a0e <_svfprintf_r+0xcec>
20015a1e:	8722                	mv	a4,s0
20015a20:	4785                	li	a5,1
20015a22:	f86ff06f          	j	200151a8 <_svfprintf_r+0x486>
20015a26:	4705                	li	a4,1
20015a28:	0ae78de3          	beq	a5,a4,200162e2 <_svfprintf_r+0x15c0>
20015a2c:	4709                	li	a4,2
20015a2e:	0ce78d63          	beq	a5,a4,20015b08 <_svfprintf_r+0xde6>
20015a32:	0b1c                	addi	a5,sp,400
20015a34:	01dc9693          	slli	a3,s9,0x1d
20015a38:	007d7713          	andi	a4,s10,7
20015a3c:	003d5d13          	srli	s10,s10,0x3
20015a40:	03070713          	addi	a4,a4,48
20015a44:	01a6ed33          	or	s10,a3,s10
20015a48:	003cdc93          	srli	s9,s9,0x3
20015a4c:	fee78fa3          	sb	a4,-1(a5)
20015a50:	019d66b3          	or	a3,s10,s9
20015a54:	fff78493          	addi	s1,a5,-1
20015a58:	e695                	bnez	a3,20015a84 <_svfprintf_r+0xd62>
20015a5a:	00147693          	andi	a3,s0,1
20015a5e:	ca89                	beqz	a3,20015a70 <_svfprintf_r+0xd4e>
20015a60:	03000693          	li	a3,48
20015a64:	00d70663          	beq	a4,a3,20015a70 <_svfprintf_r+0xd4e>
20015a68:	fed48fa3          	sb	a3,-1(s1)
20015a6c:	ffe78493          	addi	s1,a5,-2
20015a70:	0b1c                	addi	a5,sp,400
20015a72:	8d6e                	mv	s10,s11
20015a74:	4b01                	li	s6,0
20015a76:	40978db3          	sub	s11,a5,s1
20015a7a:	c402                	sw	zero,8(sp)
20015a7c:	4b81                	li	s7,0
20015a7e:	4c81                	li	s9,0
20015a80:	d10ff06f          	j	20014f90 <_svfprintf_r+0x26e>
20015a84:	87a6                	mv	a5,s1
20015a86:	b77d                	j	20015a34 <_svfprintf_r+0xd12>
20015a88:	4a01                	li	s4,0
20015a8a:	0b1c                	addi	a5,sp,400
20015a8c:	40047b93          	andi	s7,s0,1024
20015a90:	4b25                	li	s6,9
20015a92:	4629                	li	a2,10
20015a94:	4681                	li	a3,0
20015a96:	856a                	mv	a0,s10
20015a98:	85e6                	mv	a1,s9
20015a9a:	fff78493          	addi	s1,a5,-1
20015a9e:	c43e                	sw	a5,8(sp)
20015aa0:	3c7020ef          	jal	ra,20018666 <__umoddi3>
20015aa4:	47a2                	lw	a5,8(sp)
20015aa6:	03050513          	addi	a0,a0,48
20015aaa:	0a05                	addi	s4,s4,1
20015aac:	fea78fa3          	sb	a0,-1(a5)
20015ab0:	020b8e63          	beqz	s7,20015aec <_svfprintf_r+0xdca>
20015ab4:	4792                	lw	a5,4(sp)
20015ab6:	0007c783          	lbu	a5,0(a5)
20015aba:	02fa1963          	bne	s4,a5,20015aec <_svfprintf_r+0xdca>
20015abe:	0ff00793          	li	a5,255
20015ac2:	02fa0563          	beq	s4,a5,20015aec <_svfprintf_r+0xdca>
20015ac6:	000c9463          	bnez	s9,20015ace <_svfprintf_r+0xdac>
20015aca:	03ab7163          	bgeu	s6,s10,20015aec <_svfprintf_r+0xdca>
20015ace:	5792                	lw	a5,36(sp)
20015ad0:	55b2                	lw	a1,44(sp)
20015ad2:	4a01                	li	s4,0
20015ad4:	8c9d                	sub	s1,s1,a5
20015ad6:	863e                	mv	a2,a5
20015ad8:	8526                	mv	a0,s1
20015ada:	a24ff0ef          	jal	ra,20014cfe <strncpy>
20015ade:	4792                	lw	a5,4(sp)
20015ae0:	0017c783          	lbu	a5,1(a5)
20015ae4:	c781                	beqz	a5,20015aec <_svfprintf_r+0xdca>
20015ae6:	4792                	lw	a5,4(sp)
20015ae8:	0785                	addi	a5,a5,1
20015aea:	c23e                	sw	a5,4(sp)
20015aec:	4629                	li	a2,10
20015aee:	4681                	li	a3,0
20015af0:	856a                	mv	a0,s10
20015af2:	85e6                	mv	a1,s9
20015af4:	015020ef          	jal	ra,20018308 <__udivdi3>
20015af8:	000c9463          	bnez	s9,20015b00 <_svfprintf_r+0xdde>
20015afc:	f7ab7ae3          	bgeu	s6,s10,20015a70 <_svfprintf_r+0xd4e>
20015b00:	8d2a                	mv	s10,a0
20015b02:	8cae                	mv	s9,a1
20015b04:	87a6                	mv	a5,s1
20015b06:	b771                	j	20015a92 <_svfprintf_r+0xd70>
20015b08:	0b04                	addi	s1,sp,400
20015b0a:	5752                	lw	a4,52(sp)
20015b0c:	00fd7793          	andi	a5,s10,15
20015b10:	14fd                	addi	s1,s1,-1
20015b12:	97ba                	add	a5,a5,a4
20015b14:	0007c783          	lbu	a5,0(a5)
20015b18:	004d5d13          	srli	s10,s10,0x4
20015b1c:	00f48023          	sb	a5,0(s1)
20015b20:	01cc9793          	slli	a5,s9,0x1c
20015b24:	01a7ed33          	or	s10,a5,s10
20015b28:	004cdc93          	srli	s9,s9,0x4
20015b2c:	019d67b3          	or	a5,s10,s9
20015b30:	ffe9                	bnez	a5,20015b0a <_svfprintf_r+0xde8>
20015b32:	bf3d                	j	20015a70 <_svfprintf_r+0xd4e>
20015b34:	0b04                	addi	s1,sp,400
20015b36:	ff8d                	bnez	a5,20015a70 <_svfprintf_r+0xd4e>
20015b38:	8b05                	andi	a4,a4,1
20015b3a:	db1d                	beqz	a4,20015a70 <_svfprintf_r+0xd4e>
20015b3c:	03000793          	li	a5,48
20015b40:	18f107a3          	sb	a5,399(sp)
20015b44:	7b00006f          	j	200162f4 <_svfprintf_r+0x15d2>
20015b48:	760a8f63          	beqz	s5,200162c6 <_svfprintf_r+0x15a4>
20015b4c:	13510623          	sb	s5,300(sp)
20015b50:	0a0103a3          	sb	zero,167(sp)
20015b54:	c65a                	sw	s6,12(sp)
20015b56:	c2cff06f          	j	20014f82 <_svfprintf_r+0x260>
20015b5a:	0641                	addi	a2,a2,16
20015b5c:	01dc2223          	sw	t4,4(s8)
20015b60:	c7b2                	sw	a2,204(sp)
20015b62:	c5b6                	sw	a3,200(sp)
20015b64:	02df5263          	bge	t5,a3,20015b88 <_svfprintf_r+0xe66>
20015b68:	01d0                	addi	a2,sp,196
20015b6a:	85ce                	mv	a1,s3
20015b6c:	854a                	mv	a0,s2
20015b6e:	c0ba                	sw	a4,64(sp)
20015b70:	491010ef          	jal	ra,20017800 <__ssprint_r>
20015b74:	70051863          	bnez	a0,20016284 <_svfprintf_r+0x1562>
20015b78:	4706                	lw	a4,64(sp)
20015b7a:	11ec                	addi	a1,sp,236
20015b7c:	4f1d                	li	t5,7
20015b7e:	00008e17          	auipc	t3,0x8
20015b82:	76ee0e13          	addi	t3,t3,1902 # 2001e2ec <blanks.4498>
20015b86:	4ec1                	li	t4,16
20015b88:	1741                	addi	a4,a4,-16
20015b8a:	8c2e                	mv	s8,a1
20015b8c:	c46ff06f          	j	20014fd2 <_svfprintf_r+0x2b0>
20015b90:	06c1                	addi	a3,a3,16
20015b92:	010c2223          	sw	a6,4(s8)
20015b96:	c7b6                	sw	a3,204(sp)
20015b98:	c5ba                	sw	a4,200(sp)
20015b9a:	00ee5e63          	bge	t3,a4,20015bb6 <_svfprintf_r+0xe94>
20015b9e:	01d0                	addi	a2,sp,196
20015ba0:	85ce                	mv	a1,s3
20015ba2:	854a                	mv	a0,s2
20015ba4:	dc3e                	sw	a5,56(sp)
20015ba6:	45b010ef          	jal	ra,20017800 <__ssprint_r>
20015baa:	6c051d63          	bnez	a0,20016284 <_svfprintf_r+0x1562>
20015bae:	57e2                	lw	a5,56(sp)
20015bb0:	11f0                	addi	a2,sp,236
20015bb2:	4e1d                	li	t3,7
20015bb4:	4841                	li	a6,16
20015bb6:	17c1                	addi	a5,a5,-16
20015bb8:	8c32                	mv	s8,a2
20015bba:	cdcff06f          	j	20015096 <_svfprintf_r+0x374>
20015bbe:	00008597          	auipc	a1,0x8
20015bc2:	73e58593          	addi	a1,a1,1854 # 2001e2fc <zeroes.4499>
20015bc6:	06c1                	addi	a3,a3,16
20015bc8:	00bc2023          	sw	a1,0(s8)
20015bcc:	00fc2223          	sw	a5,4(s8)
20015bd0:	c7b6                	sw	a3,204(sp)
20015bd2:	c5ba                	sw	a4,200(sp)
20015bd4:	00e85c63          	bge	a6,a4,20015bec <_svfprintf_r+0xeca>
20015bd8:	01d0                	addi	a2,sp,196
20015bda:	85ce                	mv	a1,s3
20015bdc:	854a                	mv	a0,s2
20015bde:	423010ef          	jal	ra,20017800 <__ssprint_r>
20015be2:	6a051163          	bnez	a0,20016284 <_svfprintf_r+0x1562>
20015be6:	11f0                	addi	a2,sp,236
20015be8:	481d                	li	a6,7
20015bea:	47c1                	li	a5,16
20015bec:	1d41                	addi	s10,s10,-16
20015bee:	8c32                	mv	s8,a2
20015bf0:	cf2ff06f          	j	200150e2 <_svfprintf_r+0x3c0>
20015bf4:	06500713          	li	a4,101
20015bf8:	4f575a63          	bge	a4,s5,200160ec <_svfprintf_r+0x13ca>
20015bfc:	474e                	lw	a4,208(sp)
20015bfe:	010c                	addi	a1,sp,128
20015c00:	0908                	addi	a0,sp,144
20015c02:	c93a                	sw	a4,144(sp)
20015c04:	475e                	lw	a4,212(sp)
20015c06:	c102                	sw	zero,128(sp)
20015c08:	c302                	sw	zero,132(sp)
20015c0a:	cb3a                	sw	a4,148(sp)
20015c0c:	476e                	lw	a4,216(sp)
20015c0e:	c502                	sw	zero,136(sp)
20015c10:	c702                	sw	zero,140(sp)
20015c12:	cd3a                	sw	a4,152(sp)
20015c14:	477e                	lw	a4,220(sp)
20015c16:	cf3a                	sw	a4,156(sp)
20015c18:	73a030ef          	jal	ra,20019352 <__eqtf2>
20015c1c:	ed69                	bnez	a0,20015cf6 <_svfprintf_r+0xfd4>
20015c1e:	00008797          	auipc	a5,0x8
20015c22:	1aa78793          	addi	a5,a5,426 # 2001ddc8 <zeroes.4514+0x48>
20015c26:	00fc2023          	sw	a5,0(s8)
20015c2a:	4785                	li	a5,1
20015c2c:	00fc2223          	sw	a5,4(s8)
20015c30:	47ae                	lw	a5,200(sp)
20015c32:	0d05                	addi	s10,s10,1
20015c34:	c7ea                	sw	s10,204(sp)
20015c36:	0785                	addi	a5,a5,1
20015c38:	c5be                	sw	a5,200(sp)
20015c3a:	471d                	li	a4,7
20015c3c:	0c21                	addi	s8,s8,8
20015c3e:	00f75b63          	bge	a4,a5,20015c54 <_svfprintf_r+0xf32>
20015c42:	01d0                	addi	a2,sp,196
20015c44:	85ce                	mv	a1,s3
20015c46:	854a                	mv	a0,s2
20015c48:	3b9010ef          	jal	ra,20017800 <__ssprint_r>
20015c4c:	62051c63          	bnez	a0,20016284 <_svfprintf_r+0x1562>
20015c50:	0ec10c13          	addi	s8,sp,236
20015c54:	57ba                	lw	a5,172(sp)
20015c56:	0147c663          	blt	a5,s4,20015c62 <_svfprintf_r+0xf40>
20015c5a:	00147793          	andi	a5,s0,1
20015c5e:	16078e63          	beqz	a5,20015dda <_svfprintf_r+0x10b8>
20015c62:	57a2                	lw	a5,40(sp)
20015c64:	4752                	lw	a4,20(sp)
20015c66:	0c21                	addi	s8,s8,8
20015c68:	fefc2c23          	sw	a5,-8(s8)
20015c6c:	47d2                	lw	a5,20(sp)
20015c6e:	fefc2e23          	sw	a5,-4(s8)
20015c72:	47be                	lw	a5,204(sp)
20015c74:	97ba                	add	a5,a5,a4
20015c76:	c7be                	sw	a5,204(sp)
20015c78:	47ae                	lw	a5,200(sp)
20015c7a:	471d                	li	a4,7
20015c7c:	0785                	addi	a5,a5,1
20015c7e:	c5be                	sw	a5,200(sp)
20015c80:	00f75b63          	bge	a4,a5,20015c96 <_svfprintf_r+0xf74>
20015c84:	01d0                	addi	a2,sp,196
20015c86:	85ce                	mv	a1,s3
20015c88:	854a                	mv	a0,s2
20015c8a:	377010ef          	jal	ra,20017800 <__ssprint_r>
20015c8e:	5e051b63          	bnez	a0,20016284 <_svfprintf_r+0x1562>
20015c92:	0ec10c13          	addi	s8,sp,236
20015c96:	fffa0493          	addi	s1,s4,-1
20015c9a:	14905063          	blez	s1,20015dda <_svfprintf_r+0x10b8>
20015c9e:	4ac1                	li	s5,16
20015ca0:	4b9d                	li	s7,7
20015ca2:	47ae                	lw	a5,200(sp)
20015ca4:	00008617          	auipc	a2,0x8
20015ca8:	65860613          	addi	a2,a2,1624 # 2001e2fc <zeroes.4499>
20015cac:	00cc2023          	sw	a2,0(s8)
20015cb0:	473e                	lw	a4,204(sp)
20015cb2:	0785                	addi	a5,a5,1
20015cb4:	008c0693          	addi	a3,s8,8
20015cb8:	009acd63          	blt	s5,s1,20015cd2 <_svfprintf_r+0xfb0>
20015cbc:	009c2223          	sw	s1,4(s8)
20015cc0:	94ba                	add	s1,s1,a4
20015cc2:	c7a6                	sw	s1,204(sp)
20015cc4:	c5be                	sw	a5,200(sp)
20015cc6:	471d                	li	a4,7
20015cc8:	8c36                	mv	s8,a3
20015cca:	10f75863          	bge	a4,a5,20015dda <_svfprintf_r+0x10b8>
20015cce:	c7aff06f          	j	20015148 <_svfprintf_r+0x426>
20015cd2:	0741                	addi	a4,a4,16
20015cd4:	015c2223          	sw	s5,4(s8)
20015cd8:	c7ba                	sw	a4,204(sp)
20015cda:	c5be                	sw	a5,200(sp)
20015cdc:	00fbda63          	bge	s7,a5,20015cf0 <_svfprintf_r+0xfce>
20015ce0:	01d0                	addi	a2,sp,196
20015ce2:	85ce                	mv	a1,s3
20015ce4:	854a                	mv	a0,s2
20015ce6:	31b010ef          	jal	ra,20017800 <__ssprint_r>
20015cea:	58051d63          	bnez	a0,20016284 <_svfprintf_r+0x1562>
20015cee:	11f4                	addi	a3,sp,236
20015cf0:	14c1                	addi	s1,s1,-16
20015cf2:	8c36                	mv	s8,a3
20015cf4:	b77d                	j	20015ca2 <_svfprintf_r+0xf80>
20015cf6:	573a                	lw	a4,172(sp)
20015cf8:	12e04e63          	bgtz	a4,20015e34 <_svfprintf_r+0x1112>
20015cfc:	00008797          	auipc	a5,0x8
20015d00:	0cc78793          	addi	a5,a5,204 # 2001ddc8 <zeroes.4514+0x48>
20015d04:	00fc2023          	sw	a5,0(s8)
20015d08:	4785                	li	a5,1
20015d0a:	00fc2223          	sw	a5,4(s8)
20015d0e:	47ae                	lw	a5,200(sp)
20015d10:	0d05                	addi	s10,s10,1
20015d12:	c7ea                	sw	s10,204(sp)
20015d14:	0785                	addi	a5,a5,1
20015d16:	c5be                	sw	a5,200(sp)
20015d18:	471d                	li	a4,7
20015d1a:	0c21                	addi	s8,s8,8
20015d1c:	00f75b63          	bge	a4,a5,20015d32 <_svfprintf_r+0x1010>
20015d20:	01d0                	addi	a2,sp,196
20015d22:	85ce                	mv	a1,s3
20015d24:	854a                	mv	a0,s2
20015d26:	2db010ef          	jal	ra,20017800 <__ssprint_r>
20015d2a:	54051d63          	bnez	a0,20016284 <_svfprintf_r+0x1562>
20015d2e:	0ec10c13          	addi	s8,sp,236
20015d32:	57ba                	lw	a5,172(sp)
20015d34:	00147693          	andi	a3,s0,1
20015d38:	473e                	lw	a4,204(sp)
20015d3a:	00fa67b3          	or	a5,s4,a5
20015d3e:	8fd5                	or	a5,a5,a3
20015d40:	cfc9                	beqz	a5,20015dda <_svfprintf_r+0x10b8>
20015d42:	57a2                	lw	a5,40(sp)
20015d44:	008c0893          	addi	a7,s8,8
20015d48:	00fc2023          	sw	a5,0(s8)
20015d4c:	47d2                	lw	a5,20(sp)
20015d4e:	00fc2223          	sw	a5,4(s8)
20015d52:	97ba                	add	a5,a5,a4
20015d54:	c7be                	sw	a5,204(sp)
20015d56:	47ae                	lw	a5,200(sp)
20015d58:	471d                	li	a4,7
20015d5a:	0785                	addi	a5,a5,1
20015d5c:	c5be                	sw	a5,200(sp)
20015d5e:	00f75b63          	bge	a4,a5,20015d74 <_svfprintf_r+0x1052>
20015d62:	01d0                	addi	a2,sp,196
20015d64:	85ce                	mv	a1,s3
20015d66:	854a                	mv	a0,s2
20015d68:	299010ef          	jal	ra,20017800 <__ssprint_r>
20015d6c:	50051c63          	bnez	a0,20016284 <_svfprintf_r+0x1562>
20015d70:	0ec10893          	addi	a7,sp,236
20015d74:	5aba                	lw	s5,172(sp)
20015d76:	040ad363          	bgez	s5,20015dbc <_svfprintf_r+0x109a>
20015d7a:	41500ab3          	neg	s5,s5
20015d7e:	8746                	mv	a4,a7
20015d80:	4bc1                	li	s7,16
20015d82:	4c1d                	li	s8,7
20015d84:	47ae                	lw	a5,200(sp)
20015d86:	00008617          	auipc	a2,0x8
20015d8a:	57660613          	addi	a2,a2,1398 # 2001e2fc <zeroes.4499>
20015d8e:	c310                	sw	a2,0(a4)
20015d90:	46be                	lw	a3,204(sp)
20015d92:	0785                	addi	a5,a5,1
20015d94:	08a1                	addi	a7,a7,8
20015d96:	075bcc63          	blt	s7,s5,20015e0e <_svfprintf_r+0x10ec>
20015d9a:	01572223          	sw	s5,4(a4)
20015d9e:	9ab6                	add	s5,s5,a3
20015da0:	c7d6                	sw	s5,204(sp)
20015da2:	c5be                	sw	a5,200(sp)
20015da4:	471d                	li	a4,7
20015da6:	00f75b63          	bge	a4,a5,20015dbc <_svfprintf_r+0x109a>
20015daa:	01d0                	addi	a2,sp,196
20015dac:	85ce                	mv	a1,s3
20015dae:	854a                	mv	a0,s2
20015db0:	251010ef          	jal	ra,20017800 <__ssprint_r>
20015db4:	4c051863          	bnez	a0,20016284 <_svfprintf_r+0x1562>
20015db8:	0ec10893          	addi	a7,sp,236
20015dbc:	47be                	lw	a5,204(sp)
20015dbe:	0098a023          	sw	s1,0(a7)
20015dc2:	0148a223          	sw	s4,4(a7)
20015dc6:	97d2                	add	a5,a5,s4
20015dc8:	c7be                	sw	a5,204(sp)
20015dca:	47ae                	lw	a5,200(sp)
20015dcc:	471d                	li	a4,7
20015dce:	00888c13          	addi	s8,a7,8
20015dd2:	0785                	addi	a5,a5,1
20015dd4:	c5be                	sw	a5,200(sp)
20015dd6:	b6f74963          	blt	a4,a5,20015148 <_svfprintf_r+0x426>
20015dda:	8811                	andi	s0,s0,4
20015ddc:	46041263          	bnez	s0,20016240 <_svfprintf_r+0x151e>
20015de0:	4af2                	lw	s5,28(sp)
20015de2:	5782                	lw	a5,32(sp)
20015de4:	00fad363          	bge	s5,a5,20015dea <_svfprintf_r+0x10c8>
20015de8:	8abe                	mv	s5,a5
20015dea:	47e2                	lw	a5,24(sp)
20015dec:	97d6                	add	a5,a5,s5
20015dee:	cc3e                	sw	a5,24(sp)
20015df0:	47be                	lw	a5,204(sp)
20015df2:	cb81                	beqz	a5,20015e02 <_svfprintf_r+0x10e0>
20015df4:	01d0                	addi	a2,sp,196
20015df6:	85ce                	mv	a1,s3
20015df8:	854a                	mv	a0,s2
20015dfa:	207010ef          	jal	ra,20017800 <__ssprint_r>
20015dfe:	48051363          	bnez	a0,20016284 <_svfprintf_r+0x1562>
20015e02:	c582                	sw	zero,200(sp)
20015e04:	4a0b1c63          	bnez	s6,200162bc <_svfprintf_r+0x159a>
20015e08:	0ec10c13          	addi	s8,sp,236
20015e0c:	bcb9                	j	2001586a <_svfprintf_r+0xb48>
20015e0e:	06c1                	addi	a3,a3,16
20015e10:	01772223          	sw	s7,4(a4)
20015e14:	c7b6                	sw	a3,204(sp)
20015e16:	c5be                	sw	a5,200(sp)
20015e18:	00fc5b63          	bge	s8,a5,20015e2e <_svfprintf_r+0x110c>
20015e1c:	01d0                	addi	a2,sp,196
20015e1e:	85ce                	mv	a1,s3
20015e20:	854a                	mv	a0,s2
20015e22:	1df010ef          	jal	ra,20017800 <__ssprint_r>
20015e26:	44051f63          	bnez	a0,20016284 <_svfprintf_r+0x1562>
20015e2a:	0ec10893          	addi	a7,sp,236
20015e2e:	1ac1                	addi	s5,s5,-16
20015e30:	8746                	mv	a4,a7
20015e32:	bf89                	j	20015d84 <_svfprintf_r+0x1062>
20015e34:	8ae6                	mv	s5,s9
20015e36:	019a5363          	bge	s4,s9,20015e3c <_svfprintf_r+0x111a>
20015e3a:	8ad2                	mv	s5,s4
20015e3c:	03505863          	blez	s5,20015e6c <_svfprintf_r+0x114a>
20015e40:	472e                	lw	a4,200(sp)
20015e42:	9d56                	add	s10,s10,s5
20015e44:	009c2023          	sw	s1,0(s8)
20015e48:	0705                	addi	a4,a4,1
20015e4a:	015c2223          	sw	s5,4(s8)
20015e4e:	c7ea                	sw	s10,204(sp)
20015e50:	c5ba                	sw	a4,200(sp)
20015e52:	469d                	li	a3,7
20015e54:	0c21                	addi	s8,s8,8
20015e56:	00e6db63          	bge	a3,a4,20015e6c <_svfprintf_r+0x114a>
20015e5a:	01d0                	addi	a2,sp,196
20015e5c:	85ce                	mv	a1,s3
20015e5e:	854a                	mv	a0,s2
20015e60:	1a1010ef          	jal	ra,20017800 <__ssprint_r>
20015e64:	42051063          	bnez	a0,20016284 <_svfprintf_r+0x1562>
20015e68:	0ec10c13          	addi	s8,sp,236
20015e6c:	000ad363          	bgez	s5,20015e72 <_svfprintf_r+0x1150>
20015e70:	4a81                	li	s5,0
20015e72:	415c8ab3          	sub	s5,s9,s5
20015e76:	05505363          	blez	s5,20015ebc <_svfprintf_r+0x119a>
20015e7a:	4d41                	li	s10,16
20015e7c:	4d9d                	li	s11,7
20015e7e:	472e                	lw	a4,200(sp)
20015e80:	00008797          	auipc	a5,0x8
20015e84:	47c78793          	addi	a5,a5,1148 # 2001e2fc <zeroes.4499>
20015e88:	00fc2023          	sw	a5,0(s8)
20015e8c:	46be                	lw	a3,204(sp)
20015e8e:	0705                	addi	a4,a4,1
20015e90:	008c0613          	addi	a2,s8,8
20015e94:	135d4363          	blt	s10,s5,20015fba <_svfprintf_r+0x1298>
20015e98:	015c2223          	sw	s5,4(s8)
20015e9c:	9ab6                	add	s5,s5,a3
20015e9e:	c7d6                	sw	s5,204(sp)
20015ea0:	c5ba                	sw	a4,200(sp)
20015ea2:	469d                	li	a3,7
20015ea4:	8c32                	mv	s8,a2
20015ea6:	00e6db63          	bge	a3,a4,20015ebc <_svfprintf_r+0x119a>
20015eaa:	01d0                	addi	a2,sp,196
20015eac:	85ce                	mv	a1,s3
20015eae:	854a                	mv	a0,s2
20015eb0:	151010ef          	jal	ra,20017800 <__ssprint_r>
20015eb4:	3c051863          	bnez	a0,20016284 <_svfprintf_r+0x1562>
20015eb8:	0ec10c13          	addi	s8,sp,236
20015ebc:	40047793          	andi	a5,s0,1024
20015ec0:	01948ab3          	add	s5,s1,s9
20015ec4:	cf91                	beqz	a5,20015ee0 <_svfprintf_r+0x11be>
20015ec6:	4d1d                	li	s10,7
20015ec8:	01448db3          	add	s11,s1,s4
20015ecc:	47a2                	lw	a5,8(sp)
20015ece:	100b9863          	bnez	s7,20015fde <_svfprintf_r+0x12bc>
20015ed2:	10079763          	bnez	a5,20015fe0 <_svfprintf_r+0x12be>
20015ed6:	014487b3          	add	a5,s1,s4
20015eda:	0157f363          	bgeu	a5,s5,20015ee0 <_svfprintf_r+0x11be>
20015ede:	8abe                	mv	s5,a5
20015ee0:	57ba                	lw	a5,172(sp)
20015ee2:	0147c563          	blt	a5,s4,20015eec <_svfprintf_r+0x11ca>
20015ee6:	00147793          	andi	a5,s0,1
20015eea:	cb9d                	beqz	a5,20015f20 <_svfprintf_r+0x11fe>
20015eec:	57a2                	lw	a5,40(sp)
20015eee:	4752                	lw	a4,20(sp)
20015ef0:	0c21                	addi	s8,s8,8
20015ef2:	fefc2c23          	sw	a5,-8(s8)
20015ef6:	47d2                	lw	a5,20(sp)
20015ef8:	fefc2e23          	sw	a5,-4(s8)
20015efc:	47be                	lw	a5,204(sp)
20015efe:	97ba                	add	a5,a5,a4
20015f00:	c7be                	sw	a5,204(sp)
20015f02:	47ae                	lw	a5,200(sp)
20015f04:	471d                	li	a4,7
20015f06:	0785                	addi	a5,a5,1
20015f08:	c5be                	sw	a5,200(sp)
20015f0a:	00f75b63          	bge	a4,a5,20015f20 <_svfprintf_r+0x11fe>
20015f0e:	01d0                	addi	a2,sp,196
20015f10:	85ce                	mv	a1,s3
20015f12:	854a                	mv	a0,s2
20015f14:	0ed010ef          	jal	ra,20017800 <__ssprint_r>
20015f18:	36051663          	bnez	a0,20016284 <_svfprintf_r+0x1562>
20015f1c:	0ec10c13          	addi	s8,sp,236
20015f20:	94d2                	add	s1,s1,s4
20015f22:	415487b3          	sub	a5,s1,s5
20015f26:	54ba                	lw	s1,172(sp)
20015f28:	409a04b3          	sub	s1,s4,s1
20015f2c:	0097d363          	bge	a5,s1,20015f32 <_svfprintf_r+0x1210>
20015f30:	84be                	mv	s1,a5
20015f32:	02905963          	blez	s1,20015f64 <_svfprintf_r+0x1242>
20015f36:	47be                	lw	a5,204(sp)
20015f38:	015c2023          	sw	s5,0(s8)
20015f3c:	009c2223          	sw	s1,4(s8)
20015f40:	97a6                	add	a5,a5,s1
20015f42:	c7be                	sw	a5,204(sp)
20015f44:	47ae                	lw	a5,200(sp)
20015f46:	471d                	li	a4,7
20015f48:	0c21                	addi	s8,s8,8
20015f4a:	0785                	addi	a5,a5,1
20015f4c:	c5be                	sw	a5,200(sp)
20015f4e:	00f75b63          	bge	a4,a5,20015f64 <_svfprintf_r+0x1242>
20015f52:	01d0                	addi	a2,sp,196
20015f54:	85ce                	mv	a1,s3
20015f56:	854a                	mv	a0,s2
20015f58:	0a9010ef          	jal	ra,20017800 <__ssprint_r>
20015f5c:	32051463          	bnez	a0,20016284 <_svfprintf_r+0x1562>
20015f60:	0ec10c13          	addi	s8,sp,236
20015f64:	87a6                	mv	a5,s1
20015f66:	0004d363          	bgez	s1,20015f6c <_svfprintf_r+0x124a>
20015f6a:	4781                	li	a5,0
20015f6c:	54ba                	lw	s1,172(sp)
20015f6e:	409a04b3          	sub	s1,s4,s1
20015f72:	8c9d                	sub	s1,s1,a5
20015f74:	e69053e3          	blez	s1,20015dda <_svfprintf_r+0x10b8>
20015f78:	4ac1                	li	s5,16
20015f7a:	4b9d                	li	s7,7
20015f7c:	47ae                	lw	a5,200(sp)
20015f7e:	00008617          	auipc	a2,0x8
20015f82:	37e60613          	addi	a2,a2,894 # 2001e2fc <zeroes.4499>
20015f86:	00cc2023          	sw	a2,0(s8)
20015f8a:	473e                	lw	a4,204(sp)
20015f8c:	0785                	addi	a5,a5,1
20015f8e:	008c0693          	addi	a3,s8,8
20015f92:	d29ad5e3          	bge	s5,s1,20015cbc <_svfprintf_r+0xf9a>
20015f96:	0741                	addi	a4,a4,16
20015f98:	015c2223          	sw	s5,4(s8)
20015f9c:	c7ba                	sw	a4,204(sp)
20015f9e:	c5be                	sw	a5,200(sp)
20015fa0:	00fbda63          	bge	s7,a5,20015fb4 <_svfprintf_r+0x1292>
20015fa4:	01d0                	addi	a2,sp,196
20015fa6:	85ce                	mv	a1,s3
20015fa8:	854a                	mv	a0,s2
20015faa:	057010ef          	jal	ra,20017800 <__ssprint_r>
20015fae:	2c051b63          	bnez	a0,20016284 <_svfprintf_r+0x1562>
20015fb2:	11f4                	addi	a3,sp,236
20015fb4:	14c1                	addi	s1,s1,-16
20015fb6:	8c36                	mv	s8,a3
20015fb8:	b7d1                	j	20015f7c <_svfprintf_r+0x125a>
20015fba:	06c1                	addi	a3,a3,16
20015fbc:	01ac2223          	sw	s10,4(s8)
20015fc0:	c7b6                	sw	a3,204(sp)
20015fc2:	c5ba                	sw	a4,200(sp)
20015fc4:	00edda63          	bge	s11,a4,20015fd8 <_svfprintf_r+0x12b6>
20015fc8:	01d0                	addi	a2,sp,196
20015fca:	85ce                	mv	a1,s3
20015fcc:	854a                	mv	a0,s2
20015fce:	033010ef          	jal	ra,20017800 <__ssprint_r>
20015fd2:	2a051963          	bnez	a0,20016284 <_svfprintf_r+0x1562>
20015fd6:	11f0                	addi	a2,sp,236
20015fd8:	1ac1                	addi	s5,s5,-16
20015fda:	8c32                	mv	s8,a2
20015fdc:	b54d                	j	20015e7e <_svfprintf_r+0x115c>
20015fde:	cfd9                	beqz	a5,2001607c <_svfprintf_r+0x135a>
20015fe0:	47a2                	lw	a5,8(sp)
20015fe2:	17fd                	addi	a5,a5,-1
20015fe4:	c43e                	sw	a5,8(sp)
20015fe6:	57b2                	lw	a5,44(sp)
20015fe8:	5712                	lw	a4,36(sp)
20015fea:	0c21                	addi	s8,s8,8
20015fec:	fefc2c23          	sw	a5,-8(s8)
20015ff0:	5792                	lw	a5,36(sp)
20015ff2:	fefc2e23          	sw	a5,-4(s8)
20015ff6:	47be                	lw	a5,204(sp)
20015ff8:	97ba                	add	a5,a5,a4
20015ffa:	c7be                	sw	a5,204(sp)
20015ffc:	47ae                	lw	a5,200(sp)
20015ffe:	0785                	addi	a5,a5,1
20016000:	c5be                	sw	a5,200(sp)
20016002:	00fd5b63          	bge	s10,a5,20016018 <_svfprintf_r+0x12f6>
20016006:	01d0                	addi	a2,sp,196
20016008:	85ce                	mv	a1,s3
2001600a:	854a                	mv	a0,s2
2001600c:	7f4010ef          	jal	ra,20017800 <__ssprint_r>
20016010:	26051a63          	bnez	a0,20016284 <_svfprintf_r+0x1562>
20016014:	0ec10c13          	addi	s8,sp,236
20016018:	4792                	lw	a5,4(sp)
2001601a:	415d8733          	sub	a4,s11,s5
2001601e:	0007c783          	lbu	a5,0(a5)
20016022:	00f75363          	bge	a4,a5,20016028 <_svfprintf_r+0x1306>
20016026:	87ba                	mv	a5,a4
20016028:	02f05a63          	blez	a5,2001605c <_svfprintf_r+0x133a>
2001602c:	473e                	lw	a4,204(sp)
2001602e:	015c2023          	sw	s5,0(s8)
20016032:	00fc2223          	sw	a5,4(s8)
20016036:	973e                	add	a4,a4,a5
20016038:	c7ba                	sw	a4,204(sp)
2001603a:	472e                	lw	a4,200(sp)
2001603c:	0c21                	addi	s8,s8,8
2001603e:	0705                	addi	a4,a4,1
20016040:	c5ba                	sw	a4,200(sp)
20016042:	00ed5d63          	bge	s10,a4,2001605c <_svfprintf_r+0x133a>
20016046:	01d0                	addi	a2,sp,196
20016048:	85ce                	mv	a1,s3
2001604a:	854a                	mv	a0,s2
2001604c:	dc3e                	sw	a5,56(sp)
2001604e:	7b2010ef          	jal	ra,20017800 <__ssprint_r>
20016052:	22051963          	bnez	a0,20016284 <_svfprintf_r+0x1562>
20016056:	57e2                	lw	a5,56(sp)
20016058:	0ec10c13          	addi	s8,sp,236
2001605c:	873e                	mv	a4,a5
2001605e:	0007d363          	bgez	a5,20016064 <_svfprintf_r+0x1342>
20016062:	4701                	li	a4,0
20016064:	4792                	lw	a5,4(sp)
20016066:	4841                	li	a6,16
20016068:	0007c783          	lbu	a5,0(a5)
2001606c:	8f99                	sub	a5,a5,a4
2001606e:	04f04063          	bgtz	a5,200160ae <_svfprintf_r+0x138c>
20016072:	4792                	lw	a5,4(sp)
20016074:	0007c783          	lbu	a5,0(a5)
20016078:	9abe                	add	s5,s5,a5
2001607a:	bd89                	j	20015ecc <_svfprintf_r+0x11aa>
2001607c:	4792                	lw	a5,4(sp)
2001607e:	1bfd                	addi	s7,s7,-1
20016080:	17fd                	addi	a5,a5,-1
20016082:	c23e                	sw	a5,4(sp)
20016084:	b78d                	j	20015fe6 <_svfprintf_r+0x12c4>
20016086:	06c1                	addi	a3,a3,16
20016088:	010c2223          	sw	a6,4(s8)
2001608c:	c7b6                	sw	a3,204(sp)
2001608e:	c5ba                	sw	a4,200(sp)
20016090:	00ed5d63          	bge	s10,a4,200160aa <_svfprintf_r+0x1388>
20016094:	01d0                	addi	a2,sp,196
20016096:	85ce                	mv	a1,s3
20016098:	854a                	mv	a0,s2
2001609a:	dc3e                	sw	a5,56(sp)
2001609c:	764010ef          	jal	ra,20017800 <__ssprint_r>
200160a0:	1e051263          	bnez	a0,20016284 <_svfprintf_r+0x1562>
200160a4:	57e2                	lw	a5,56(sp)
200160a6:	11f0                	addi	a2,sp,236
200160a8:	4841                	li	a6,16
200160aa:	17c1                	addi	a5,a5,-16
200160ac:	8c32                	mv	s8,a2
200160ae:	472e                	lw	a4,200(sp)
200160b0:	00008597          	auipc	a1,0x8
200160b4:	24c58593          	addi	a1,a1,588 # 2001e2fc <zeroes.4499>
200160b8:	00bc2023          	sw	a1,0(s8)
200160bc:	46be                	lw	a3,204(sp)
200160be:	0705                	addi	a4,a4,1
200160c0:	008c0613          	addi	a2,s8,8
200160c4:	fcf841e3          	blt	a6,a5,20016086 <_svfprintf_r+0x1364>
200160c8:	00fc2223          	sw	a5,4(s8)
200160cc:	97b6                	add	a5,a5,a3
200160ce:	c7be                	sw	a5,204(sp)
200160d0:	c5ba                	sw	a4,200(sp)
200160d2:	8c32                	mv	s8,a2
200160d4:	f8ed5fe3          	bge	s10,a4,20016072 <_svfprintf_r+0x1350>
200160d8:	01d0                	addi	a2,sp,196
200160da:	85ce                	mv	a1,s3
200160dc:	854a                	mv	a0,s2
200160de:	722010ef          	jal	ra,20017800 <__ssprint_r>
200160e2:	1a051163          	bnez	a0,20016284 <_svfprintf_r+0x1562>
200160e6:	0ec10c13          	addi	s8,sp,236
200160ea:	b761                	j	20016072 <_svfprintf_r+0x1350>
200160ec:	47ae                	lw	a5,200(sp)
200160ee:	4705                	li	a4,1
200160f0:	009c2023          	sw	s1,0(s8)
200160f4:	0d05                	addi	s10,s10,1
200160f6:	0785                	addi	a5,a5,1
200160f8:	008c0b93          	addi	s7,s8,8
200160fc:	01474663          	blt	a4,s4,20016108 <_svfprintf_r+0x13e6>
20016100:	00147693          	andi	a3,s0,1
20016104:	12068663          	beqz	a3,20016230 <_svfprintf_r+0x150e>
20016108:	4705                	li	a4,1
2001610a:	00ec2223          	sw	a4,4(s8)
2001610e:	c7ea                	sw	s10,204(sp)
20016110:	c5be                	sw	a5,200(sp)
20016112:	471d                	li	a4,7
20016114:	00f75b63          	bge	a4,a5,2001612a <_svfprintf_r+0x1408>
20016118:	01d0                	addi	a2,sp,196
2001611a:	85ce                	mv	a1,s3
2001611c:	854a                	mv	a0,s2
2001611e:	6e2010ef          	jal	ra,20017800 <__ssprint_r>
20016122:	16051163          	bnez	a0,20016284 <_svfprintf_r+0x1562>
20016126:	0ec10b93          	addi	s7,sp,236
2001612a:	57a2                	lw	a5,40(sp)
2001612c:	4752                	lw	a4,20(sp)
2001612e:	0ba1                	addi	s7,s7,8
20016130:	fefbac23          	sw	a5,-8(s7)
20016134:	47d2                	lw	a5,20(sp)
20016136:	fefbae23          	sw	a5,-4(s7)
2001613a:	47be                	lw	a5,204(sp)
2001613c:	97ba                	add	a5,a5,a4
2001613e:	c7be                	sw	a5,204(sp)
20016140:	47ae                	lw	a5,200(sp)
20016142:	471d                	li	a4,7
20016144:	0785                	addi	a5,a5,1
20016146:	c5be                	sw	a5,200(sp)
20016148:	00f75b63          	bge	a4,a5,2001615e <_svfprintf_r+0x143c>
2001614c:	01d0                	addi	a2,sp,196
2001614e:	85ce                	mv	a1,s3
20016150:	854a                	mv	a0,s2
20016152:	6ae010ef          	jal	ra,20017800 <__ssprint_r>
20016156:	12051763          	bnez	a0,20016284 <_svfprintf_r+0x1562>
2001615a:	0ec10b93          	addi	s7,sp,236
2001615e:	47ce                	lw	a5,208(sp)
20016160:	010c                	addi	a1,sp,128
20016162:	0908                	addi	a0,sp,144
20016164:	c93e                	sw	a5,144(sp)
20016166:	47de                	lw	a5,212(sp)
20016168:	fffa0a93          	addi	s5,s4,-1
2001616c:	c102                	sw	zero,128(sp)
2001616e:	cb3e                	sw	a5,148(sp)
20016170:	47ee                	lw	a5,216(sp)
20016172:	c302                	sw	zero,132(sp)
20016174:	c502                	sw	zero,136(sp)
20016176:	cd3e                	sw	a5,152(sp)
20016178:	47fe                	lw	a5,220(sp)
2001617a:	c702                	sw	zero,140(sp)
2001617c:	cf3e                	sw	a5,156(sp)
2001617e:	1d4030ef          	jal	ra,20019352 <__eqtf2>
20016182:	cd29                	beqz	a0,200161dc <_svfprintf_r+0x14ba>
20016184:	47be                	lw	a5,204(sp)
20016186:	472e                	lw	a4,200(sp)
20016188:	0485                	addi	s1,s1,1
2001618a:	17fd                	addi	a5,a5,-1
2001618c:	97d2                	add	a5,a5,s4
2001618e:	0705                	addi	a4,a4,1
20016190:	009ba023          	sw	s1,0(s7)
20016194:	015ba223          	sw	s5,4(s7)
20016198:	c7be                	sw	a5,204(sp)
2001619a:	c5ba                	sw	a4,200(sp)
2001619c:	479d                	li	a5,7
2001619e:	0ba1                	addi	s7,s7,8
200161a0:	00e7da63          	bge	a5,a4,200161b4 <_svfprintf_r+0x1492>
200161a4:	01d0                	addi	a2,sp,196
200161a6:	85ce                	mv	a1,s3
200161a8:	854a                	mv	a0,s2
200161aa:	656010ef          	jal	ra,20017800 <__ssprint_r>
200161ae:	e979                	bnez	a0,20016284 <_svfprintf_r+0x1562>
200161b0:	0ec10b93          	addi	s7,sp,236
200161b4:	195c                	addi	a5,sp,180
200161b6:	00fba023          	sw	a5,0(s7)
200161ba:	57c2                	lw	a5,48(sp)
200161bc:	5742                	lw	a4,48(sp)
200161be:	008b8c13          	addi	s8,s7,8
200161c2:	00fba223          	sw	a5,4(s7)
200161c6:	47be                	lw	a5,204(sp)
200161c8:	97ba                	add	a5,a5,a4
200161ca:	c7be                	sw	a5,204(sp)
200161cc:	47ae                	lw	a5,200(sp)
200161ce:	471d                	li	a4,7
200161d0:	0785                	addi	a5,a5,1
200161d2:	c5be                	sw	a5,200(sp)
200161d4:	c0f753e3          	bge	a4,a5,20015dda <_svfprintf_r+0x10b8>
200161d8:	f71fe06f          	j	20015148 <_svfprintf_r+0x426>
200161dc:	fd505ce3          	blez	s5,200161b4 <_svfprintf_r+0x1492>
200161e0:	44c1                	li	s1,16
200161e2:	4c1d                	li	s8,7
200161e4:	472e                	lw	a4,200(sp)
200161e6:	00008617          	auipc	a2,0x8
200161ea:	11660613          	addi	a2,a2,278 # 2001e2fc <zeroes.4499>
200161ee:	00cba023          	sw	a2,0(s7)
200161f2:	47be                	lw	a5,204(sp)
200161f4:	0705                	addi	a4,a4,1
200161f6:	008b8693          	addi	a3,s7,8
200161fa:	0154ca63          	blt	s1,s5,2001620e <_svfprintf_r+0x14ec>
200161fe:	97d6                	add	a5,a5,s5
20016200:	015ba223          	sw	s5,4(s7)
20016204:	c7be                	sw	a5,204(sp)
20016206:	c5ba                	sw	a4,200(sp)
20016208:	479d                	li	a5,7
2001620a:	8bb6                	mv	s7,a3
2001620c:	bf51                	j	200161a0 <_svfprintf_r+0x147e>
2001620e:	07c1                	addi	a5,a5,16
20016210:	009ba223          	sw	s1,4(s7)
20016214:	c7be                	sw	a5,204(sp)
20016216:	c5ba                	sw	a4,200(sp)
20016218:	00ec5963          	bge	s8,a4,2001622a <_svfprintf_r+0x1508>
2001621c:	01d0                	addi	a2,sp,196
2001621e:	85ce                	mv	a1,s3
20016220:	854a                	mv	a0,s2
20016222:	5de010ef          	jal	ra,20017800 <__ssprint_r>
20016226:	ed39                	bnez	a0,20016284 <_svfprintf_r+0x1562>
20016228:	11f4                	addi	a3,sp,236
2001622a:	1ac1                	addi	s5,s5,-16
2001622c:	8bb6                	mv	s7,a3
2001622e:	bf5d                	j	200161e4 <_svfprintf_r+0x14c2>
20016230:	00ec2223          	sw	a4,4(s8)
20016234:	c7ea                	sw	s10,204(sp)
20016236:	c5be                	sw	a5,200(sp)
20016238:	471d                	li	a4,7
2001623a:	f6f75de3          	bge	a4,a5,200161b4 <_svfprintf_r+0x1492>
2001623e:	b79d                	j	200161a4 <_svfprintf_r+0x1482>
20016240:	47f2                	lw	a5,28(sp)
20016242:	5702                	lw	a4,32(sp)
20016244:	40e78433          	sub	s0,a5,a4
20016248:	b8805ce3          	blez	s0,20015de0 <_svfprintf_r+0x10be>
2001624c:	4ac1                	li	s5,16
2001624e:	00008497          	auipc	s1,0x8
20016252:	09e48493          	addi	s1,s1,158 # 2001e2ec <blanks.4498>
20016256:	4b9d                	li	s7,7
20016258:	47ae                	lw	a5,200(sp)
2001625a:	009c2023          	sw	s1,0(s8)
2001625e:	473e                	lw	a4,204(sp)
20016260:	0785                	addi	a5,a5,1
20016262:	028acb63          	blt	s5,s0,20016298 <_svfprintf_r+0x1576>
20016266:	008c2223          	sw	s0,4(s8)
2001626a:	943a                	add	s0,s0,a4
2001626c:	c7a2                	sw	s0,204(sp)
2001626e:	c5be                	sw	a5,200(sp)
20016270:	471d                	li	a4,7
20016272:	b6f757e3          	bge	a4,a5,20015de0 <_svfprintf_r+0x10be>
20016276:	01d0                	addi	a2,sp,196
20016278:	85ce                	mv	a1,s3
2001627a:	854a                	mv	a0,s2
2001627c:	584010ef          	jal	ra,20017800 <__ssprint_r>
20016280:	b60500e3          	beqz	a0,20015de0 <_svfprintf_r+0x10be>
20016284:	000b1463          	bnez	s6,2001628c <_svfprintf_r+0x156a>
20016288:	898ff06f          	j	20015320 <_svfprintf_r+0x5fe>
2001628c:	85da                	mv	a1,s6
2001628e:	854a                	mv	a0,s2
20016290:	d3ffb0ef          	jal	ra,20011fce <_free_r>
20016294:	88cff06f          	j	20015320 <_svfprintf_r+0x5fe>
20016298:	0741                	addi	a4,a4,16
2001629a:	015c2223          	sw	s5,4(s8)
2001629e:	c7ba                	sw	a4,204(sp)
200162a0:	c5be                	sw	a5,200(sp)
200162a2:	0c21                	addi	s8,s8,8
200162a4:	00fbda63          	bge	s7,a5,200162b8 <_svfprintf_r+0x1596>
200162a8:	01d0                	addi	a2,sp,196
200162aa:	85ce                	mv	a1,s3
200162ac:	854a                	mv	a0,s2
200162ae:	552010ef          	jal	ra,20017800 <__ssprint_r>
200162b2:	f969                	bnez	a0,20016284 <_svfprintf_r+0x1562>
200162b4:	0ec10c13          	addi	s8,sp,236
200162b8:	1441                	addi	s0,s0,-16
200162ba:	bf79                	j	20016258 <_svfprintf_r+0x1536>
200162bc:	85da                	mv	a1,s6
200162be:	854a                	mv	a0,s2
200162c0:	d0ffb0ef          	jal	ra,20011fce <_free_r>
200162c4:	b691                	j	20015e08 <_svfprintf_r+0x10e6>
200162c6:	47be                	lw	a5,204(sp)
200162c8:	e399                	bnez	a5,200162ce <_svfprintf_r+0x15ac>
200162ca:	856ff06f          	j	20015320 <_svfprintf_r+0x5fe>
200162ce:	01d0                	addi	a2,sp,196
200162d0:	85ce                	mv	a1,s3
200162d2:	854a                	mv	a0,s2
200162d4:	52c010ef          	jal	ra,20017800 <__ssprint_r>
200162d8:	848ff06f          	j	20015320 <_svfprintf_r+0x5fe>
200162dc:	57fd                	li	a5,-1
200162de:	f4fd9063          	bne	s11,a5,20015a1e <_svfprintf_r+0xcfc>
200162e2:	fa0c9363          	bnez	s9,20015a88 <_svfprintf_r+0xd66>
200162e6:	47a5                	li	a5,9
200162e8:	fba7e063          	bltu	a5,s10,20015a88 <_svfprintf_r+0xd66>
200162ec:	030d0d13          	addi	s10,s10,48 # 3ffe0030 <__init_array_end+0x1ffc0c5c>
200162f0:	19a107a3          	sb	s10,399(sp)
200162f4:	18f10493          	addi	s1,sp,399
200162f8:	f78ff06f          	j	20015a70 <_svfprintf_r+0xd4e>

200162fc <__sprint_r>:
200162fc:	461c                	lw	a5,8(a2)
200162fe:	7179                	addi	sp,sp,-48
20016300:	d422                	sw	s0,40(sp)
20016302:	d606                	sw	ra,44(sp)
20016304:	d226                	sw	s1,36(sp)
20016306:	d04a                	sw	s2,32(sp)
20016308:	ce4e                	sw	s3,28(sp)
2001630a:	cc52                	sw	s4,24(sp)
2001630c:	ca56                	sw	s5,20(sp)
2001630e:	c85a                	sw	s6,16(sp)
20016310:	c65e                	sw	s7,12(sp)
20016312:	c462                	sw	s8,8(sp)
20016314:	8432                	mv	s0,a2
20016316:	e385                	bnez	a5,20016336 <__sprint_r+0x3a>
20016318:	00062223          	sw	zero,4(a2)
2001631c:	4501                	li	a0,0
2001631e:	50b2                	lw	ra,44(sp)
20016320:	5422                	lw	s0,40(sp)
20016322:	5492                	lw	s1,36(sp)
20016324:	5902                	lw	s2,32(sp)
20016326:	49f2                	lw	s3,28(sp)
20016328:	4a62                	lw	s4,24(sp)
2001632a:	4ad2                	lw	s5,20(sp)
2001632c:	4b42                	lw	s6,16(sp)
2001632e:	4bb2                	lw	s7,12(sp)
20016330:	4c22                	lw	s8,8(sp)
20016332:	6145                	addi	sp,sp,48
20016334:	8082                	ret
20016336:	51fc                	lw	a5,100(a1)
20016338:	89ae                	mv	s3,a1
2001633a:	01279713          	slli	a4,a5,0x12
2001633e:	04075863          	bgez	a4,2001638e <__sprint_r+0x92>
20016342:	4204                	lw	s1,0(a2)
20016344:	8aaa                	mv	s5,a0
20016346:	5b7d                	li	s6,-1
20016348:	0044a903          	lw	s2,4(s1)
2001634c:	0004ac03          	lw	s8,0(s1)
20016350:	4a01                	li	s4,0
20016352:	00295b93          	srli	s7,s2,0x2
20016356:	037a4063          	blt	s4,s7,20016376 <__sprint_r+0x7a>
2001635a:	441c                	lw	a5,8(s0)
2001635c:	ffc97913          	andi	s2,s2,-4
20016360:	04a1                	addi	s1,s1,8
20016362:	412787b3          	sub	a5,a5,s2
20016366:	c41c                	sw	a5,8(s0)
20016368:	f3e5                	bnez	a5,20016348 <__sprint_r+0x4c>
2001636a:	4501                	li	a0,0
2001636c:	00042423          	sw	zero,8(s0)
20016370:	00042223          	sw	zero,4(s0)
20016374:	b76d                	j	2001631e <__sprint_r+0x22>
20016376:	002a1793          	slli	a5,s4,0x2
2001637a:	97e2                	add	a5,a5,s8
2001637c:	438c                	lw	a1,0(a5)
2001637e:	864e                	mv	a2,s3
20016380:	8556                	mv	a0,s5
20016382:	401000ef          	jal	ra,20016f82 <_fputwc_r>
20016386:	01650763          	beq	a0,s6,20016394 <__sprint_r+0x98>
2001638a:	0a05                	addi	s4,s4,1
2001638c:	b7e9                	j	20016356 <__sprint_r+0x5a>
2001638e:	473000ef          	jal	ra,20017000 <__sfvwrite_r>
20016392:	bfe9                	j	2001636c <__sprint_r+0x70>
20016394:	557d                	li	a0,-1
20016396:	bfd9                	j	2001636c <__sprint_r+0x70>

20016398 <_vfiprintf_r>:
20016398:	712d                	addi	sp,sp,-288
2001639a:	10812c23          	sw	s0,280(sp)
2001639e:	11212823          	sw	s2,272(sp)
200163a2:	11312623          	sw	s3,268(sp)
200163a6:	11512223          	sw	s5,260(sp)
200163aa:	10112e23          	sw	ra,284(sp)
200163ae:	10912a23          	sw	s1,276(sp)
200163b2:	11412423          	sw	s4,264(sp)
200163b6:	11612023          	sw	s6,256(sp)
200163ba:	dfde                	sw	s7,252(sp)
200163bc:	dde2                	sw	s8,248(sp)
200163be:	dbe6                	sw	s9,244(sp)
200163c0:	d9ea                	sw	s10,240(sp)
200163c2:	d7ee                	sw	s11,236(sp)
200163c4:	89aa                	mv	s3,a0
200163c6:	842e                	mv	s0,a1
200163c8:	8ab2                	mv	s5,a2
200163ca:	8936                	mv	s2,a3
200163cc:	c509                	beqz	a0,200163d6 <_vfiprintf_r+0x3e>
200163ce:	5d1c                	lw	a5,56(a0)
200163d0:	e399                	bnez	a5,200163d6 <_vfiprintf_r+0x3e>
200163d2:	a13fb0ef          	jal	ra,20011de4 <__sinit>
200163d6:	00c41783          	lh	a5,12(s0)
200163da:	01279713          	slli	a4,a5,0x12
200163de:	00074b63          	bltz	a4,200163f4 <_vfiprintf_r+0x5c>
200163e2:	6689                	lui	a3,0x2
200163e4:	5078                	lw	a4,100(s0)
200163e6:	8fd5                	or	a5,a5,a3
200163e8:	00f41623          	sh	a5,12(s0)
200163ec:	77f9                	lui	a5,0xffffe
200163ee:	17fd                	addi	a5,a5,-1
200163f0:	8ff9                	and	a5,a5,a4
200163f2:	d07c                	sw	a5,100(s0)
200163f4:	00c45783          	lhu	a5,12(s0)
200163f8:	8ba1                	andi	a5,a5,8
200163fa:	c78d                	beqz	a5,20016424 <_vfiprintf_r+0x8c>
200163fc:	481c                	lw	a5,16(s0)
200163fe:	c39d                	beqz	a5,20016424 <_vfiprintf_r+0x8c>
20016400:	00c45783          	lhu	a5,12(s0)
20016404:	4729                	li	a4,10
20016406:	8be9                	andi	a5,a5,26
20016408:	04e79c63          	bne	a5,a4,20016460 <_vfiprintf_r+0xc8>
2001640c:	00e41783          	lh	a5,14(s0)
20016410:	0407c863          	bltz	a5,20016460 <_vfiprintf_r+0xc8>
20016414:	86ca                	mv	a3,s2
20016416:	8656                	mv	a2,s5
20016418:	85a2                	mv	a1,s0
2001641a:	854e                	mv	a0,s3
2001641c:	07f000ef          	jal	ra,20016c9a <__sbprintf>
20016420:	8baa                	mv	s7,a0
20016422:	a039                	j	20016430 <_vfiprintf_r+0x98>
20016424:	85a2                	mv	a1,s0
20016426:	854e                	mv	a0,s3
20016428:	e6cfb0ef          	jal	ra,20011a94 <__swsetup_r>
2001642c:	d971                	beqz	a0,20016400 <_vfiprintf_r+0x68>
2001642e:	5bfd                	li	s7,-1
20016430:	11c12083          	lw	ra,284(sp)
20016434:	11812403          	lw	s0,280(sp)
20016438:	855e                	mv	a0,s7
2001643a:	11412483          	lw	s1,276(sp)
2001643e:	11012903          	lw	s2,272(sp)
20016442:	10c12983          	lw	s3,268(sp)
20016446:	10812a03          	lw	s4,264(sp)
2001644a:	10412a83          	lw	s5,260(sp)
2001644e:	10012b03          	lw	s6,256(sp)
20016452:	5bfe                	lw	s7,252(sp)
20016454:	5c6e                	lw	s8,248(sp)
20016456:	5cde                	lw	s9,244(sp)
20016458:	5d4e                	lw	s10,240(sp)
2001645a:	5dbe                	lw	s11,236(sp)
2001645c:	6115                	addi	sp,sp,288
2001645e:	8082                	ret
20016460:	03c10b13          	addi	s6,sp,60
20016464:	d85a                	sw	s6,48(sp)
20016466:	dc02                	sw	zero,56(sp)
20016468:	da02                	sw	zero,52(sp)
2001646a:	875a                	mv	a4,s6
2001646c:	c402                	sw	zero,8(sp)
2001646e:	c202                	sw	zero,4(sp)
20016470:	c602                	sw	zero,12(sp)
20016472:	c802                	sw	zero,16(sp)
20016474:	4b81                	li	s7,0
20016476:	84d6                	mv	s1,s5
20016478:	02500693          	li	a3,37
2001647c:	0004c783          	lbu	a5,0(s1)
20016480:	c399                	beqz	a5,20016486 <_vfiprintf_r+0xee>
20016482:	06d79d63          	bne	a5,a3,200164fc <_vfiprintf_r+0x164>
20016486:	41548a33          	sub	s4,s1,s5
2001648a:	020a0863          	beqz	s4,200164ba <_vfiprintf_r+0x122>
2001648e:	57e2                	lw	a5,56(sp)
20016490:	01572023          	sw	s5,0(a4)
20016494:	01472223          	sw	s4,4(a4)
20016498:	97d2                	add	a5,a5,s4
2001649a:	dc3e                	sw	a5,56(sp)
2001649c:	57d2                	lw	a5,52(sp)
2001649e:	469d                	li	a3,7
200164a0:	0721                	addi	a4,a4,8
200164a2:	0785                	addi	a5,a5,1
200164a4:	da3e                	sw	a5,52(sp)
200164a6:	00f6d963          	bge	a3,a5,200164b8 <_vfiprintf_r+0x120>
200164aa:	1810                	addi	a2,sp,48
200164ac:	85a2                	mv	a1,s0
200164ae:	854e                	mv	a0,s3
200164b0:	35b1                	jal	200162fc <__sprint_r>
200164b2:	76051a63          	bnez	a0,20016c26 <_vfiprintf_r+0x88e>
200164b6:	875a                	mv	a4,s6
200164b8:	9bd2                	add	s7,s7,s4
200164ba:	0004c783          	lbu	a5,0(s1)
200164be:	78078d63          	beqz	a5,20016c58 <_vfiprintf_r+0x8c0>
200164c2:	00148693          	addi	a3,s1,1
200164c6:	020105a3          	sb	zero,43(sp)
200164ca:	54fd                	li	s1,-1
200164cc:	4a01                	li	s4,0
200164ce:	4d01                	li	s10,0
200164d0:	4c25                	li	s8,9
200164d2:	02a00c93          	li	s9,42
200164d6:	0006c603          	lbu	a2,0(a3) # 2000 <__heap_size+0x1c00>
200164da:	00168a93          	addi	s5,a3,1
200164de:	05a00513          	li	a0,90
200164e2:	fe060693          	addi	a3,a2,-32
200164e6:	66d56563          	bltu	a0,a3,20016b50 <_vfiprintf_r+0x7b8>
200164ea:	00008797          	auipc	a5,0x8
200164ee:	e2278793          	addi	a5,a5,-478 # 2001e30c <zeroes.4499+0x10>
200164f2:	068a                	slli	a3,a3,0x2
200164f4:	96be                	add	a3,a3,a5
200164f6:	4294                	lw	a3,0(a3)
200164f8:	96be                	add	a3,a3,a5
200164fa:	8682                	jr	a3
200164fc:	0485                	addi	s1,s1,1
200164fe:	bfbd                	j	2001647c <_vfiprintf_r+0xe4>
20016500:	00008797          	auipc	a5,0x8
20016504:	8a078793          	addi	a5,a5,-1888 # 2001dda0 <zeroes.4514+0x20>
20016508:	c43e                	sw	a5,8(sp)
2001650a:	020d7693          	andi	a3,s10,32
2001650e:	4c068f63          	beqz	a3,200169ec <_vfiprintf_r+0x654>
20016512:	091d                	addi	s2,s2,7
20016514:	ff897913          	andi	s2,s2,-8
20016518:	00092d83          	lw	s11,0(s2)
2001651c:	00492c83          	lw	s9,4(s2)
20016520:	00890c13          	addi	s8,s2,8
20016524:	001d7693          	andi	a3,s10,1
20016528:	ce81                	beqz	a3,20016540 <_vfiprintf_r+0x1a8>
2001652a:	019de6b3          	or	a3,s11,s9
2001652e:	ca89                	beqz	a3,20016540 <_vfiprintf_r+0x1a8>
20016530:	03000693          	li	a3,48
20016534:	02d10623          	sb	a3,44(sp)
20016538:	02c106a3          	sb	a2,45(sp)
2001653c:	002d6d13          	ori	s10,s10,2
20016540:	bffd7d13          	andi	s10,s10,-1025
20016544:	a485                	j	200167a4 <_vfiprintf_r+0x40c>
20016546:	854e                	mv	a0,s3
20016548:	c03a                	sw	a4,0(sp)
2001654a:	b38fd0ef          	jal	ra,20013882 <_localeconv_r>
2001654e:	415c                	lw	a5,4(a0)
20016550:	853e                	mv	a0,a5
20016552:	c83e                	sw	a5,16(sp)
20016554:	f98fe0ef          	jal	ra,20014cec <strlen>
20016558:	c62a                	sw	a0,12(sp)
2001655a:	854e                	mv	a0,s3
2001655c:	b26fd0ef          	jal	ra,20013882 <_localeconv_r>
20016560:	451c                	lw	a5,8(a0)
20016562:	4702                	lw	a4,0(sp)
20016564:	c23e                	sw	a5,4(sp)
20016566:	47b2                	lw	a5,12(sp)
20016568:	cb81                	beqz	a5,20016578 <_vfiprintf_r+0x1e0>
2001656a:	4792                	lw	a5,4(sp)
2001656c:	c791                	beqz	a5,20016578 <_vfiprintf_r+0x1e0>
2001656e:	0007c683          	lbu	a3,0(a5)
20016572:	c299                	beqz	a3,20016578 <_vfiprintf_r+0x1e0>
20016574:	400d6d13          	ori	s10,s10,1024
20016578:	86d6                	mv	a3,s5
2001657a:	bfb1                	j	200164d6 <_vfiprintf_r+0x13e>
2001657c:	02b14683          	lbu	a3,43(sp)
20016580:	fee5                	bnez	a3,20016578 <_vfiprintf_r+0x1e0>
20016582:	02000693          	li	a3,32
20016586:	02d105a3          	sb	a3,43(sp)
2001658a:	b7fd                	j	20016578 <_vfiprintf_r+0x1e0>
2001658c:	001d6d13          	ori	s10,s10,1
20016590:	b7e5                	j	20016578 <_vfiprintf_r+0x1e0>
20016592:	00092a03          	lw	s4,0(s2)
20016596:	0911                	addi	s2,s2,4
20016598:	fe0a50e3          	bgez	s4,20016578 <_vfiprintf_r+0x1e0>
2001659c:	41400a33          	neg	s4,s4
200165a0:	004d6d13          	ori	s10,s10,4
200165a4:	bfd1                	j	20016578 <_vfiprintf_r+0x1e0>
200165a6:	02b00693          	li	a3,43
200165aa:	bff1                	j	20016586 <_vfiprintf_r+0x1ee>
200165ac:	000ac603          	lbu	a2,0(s5)
200165b0:	001a8693          	addi	a3,s5,1
200165b4:	03961963          	bne	a2,s9,200165e6 <_vfiprintf_r+0x24e>
200165b8:	00092483          	lw	s1,0(s2)
200165bc:	00490613          	addi	a2,s2,4
200165c0:	0004d363          	bgez	s1,200165c6 <_vfiprintf_r+0x22e>
200165c4:	54fd                	li	s1,-1
200165c6:	8932                	mv	s2,a2
200165c8:	8ab6                	mv	s5,a3
200165ca:	b77d                	j	20016578 <_vfiprintf_r+0x1e0>
200165cc:	47a9                	li	a5,10
200165ce:	02f484b3          	mul	s1,s1,a5
200165d2:	0685                	addi	a3,a3,1
200165d4:	fff6c603          	lbu	a2,-1(a3)
200165d8:	94ae                	add	s1,s1,a1
200165da:	fd060593          	addi	a1,a2,-48
200165de:	febc77e3          	bgeu	s8,a1,200165cc <_vfiprintf_r+0x234>
200165e2:	8ab6                	mv	s5,a3
200165e4:	bdfd                	j	200164e2 <_vfiprintf_r+0x14a>
200165e6:	4481                	li	s1,0
200165e8:	bfcd                	j	200165da <_vfiprintf_r+0x242>
200165ea:	080d6d13          	ori	s10,s10,128
200165ee:	b769                	j	20016578 <_vfiprintf_r+0x1e0>
200165f0:	86d6                	mv	a3,s5
200165f2:	4a01                	li	s4,0
200165f4:	47a9                	li	a5,10
200165f6:	02fa0a33          	mul	s4,s4,a5
200165fa:	fd060613          	addi	a2,a2,-48
200165fe:	0685                	addi	a3,a3,1
20016600:	9a32                	add	s4,s4,a2
20016602:	fff6c603          	lbu	a2,-1(a3)
20016606:	fd060593          	addi	a1,a2,-48
2001660a:	febc75e3          	bgeu	s8,a1,200165f4 <_vfiprintf_r+0x25c>
2001660e:	bfd1                	j	200165e2 <_vfiprintf_r+0x24a>
20016610:	000ac603          	lbu	a2,0(s5)
20016614:	06800693          	li	a3,104
20016618:	00d61663          	bne	a2,a3,20016624 <_vfiprintf_r+0x28c>
2001661c:	0a85                	addi	s5,s5,1
2001661e:	200d6d13          	ori	s10,s10,512
20016622:	bf99                	j	20016578 <_vfiprintf_r+0x1e0>
20016624:	040d6d13          	ori	s10,s10,64
20016628:	bf81                	j	20016578 <_vfiprintf_r+0x1e0>
2001662a:	000ac603          	lbu	a2,0(s5)
2001662e:	06c00693          	li	a3,108
20016632:	00d61663          	bne	a2,a3,2001663e <_vfiprintf_r+0x2a6>
20016636:	0a85                	addi	s5,s5,1
20016638:	020d6d13          	ori	s10,s10,32
2001663c:	bf35                	j	20016578 <_vfiprintf_r+0x1e0>
2001663e:	010d6d13          	ori	s10,s10,16
20016642:	bf1d                	j	20016578 <_vfiprintf_r+0x1e0>
20016644:	00092683          	lw	a3,0(s2)
20016648:	00490c13          	addi	s8,s2,4
2001664c:	020105a3          	sb	zero,43(sp)
20016650:	06d10e23          	sb	a3,124(sp)
20016654:	4485                	li	s1,1
20016656:	4c81                	li	s9,0
20016658:	07c10913          	addi	s2,sp,124
2001665c:	aa95                	j	200167d0 <_vfiprintf_r+0x438>
2001665e:	010d6d13          	ori	s10,s10,16
20016662:	020d7693          	andi	a3,s10,32
20016666:	cab1                	beqz	a3,200166ba <_vfiprintf_r+0x322>
20016668:	091d                	addi	s2,s2,7
2001666a:	ff897913          	andi	s2,s2,-8
2001666e:	00092d83          	lw	s11,0(s2)
20016672:	00492c83          	lw	s9,4(s2)
20016676:	00890c13          	addi	s8,s2,8
2001667a:	5e0cd763          	bgez	s9,20016c68 <_vfiprintf_r+0x8d0>
2001667e:	41b00333          	neg	t1,s11
20016682:	006036b3          	snez	a3,t1
20016686:	41900833          	neg	a6,s9
2001668a:	40d80cb3          	sub	s9,a6,a3
2001668e:	02d00693          	li	a3,45
20016692:	02d105a3          	sb	a3,43(sp)
20016696:	8d9a                	mv	s11,t1
20016698:	4685                	li	a3,1
2001669a:	567d                	li	a2,-1
2001669c:	38c48063          	beq	s1,a2,20016a1c <_vfiprintf_r+0x684>
200166a0:	866a                	mv	a2,s10
200166a2:	019de5b3          	or	a1,s11,s9
200166a6:	f7fd7d13          	andi	s10,s10,-129
200166aa:	36059963          	bnez	a1,20016a1c <_vfiprintf_r+0x684>
200166ae:	48048763          	beqz	s1,20016b3c <_vfiprintf_r+0x7a4>
200166b2:	4605                	li	a2,1
200166b4:	36c69763          	bne	a3,a2,20016a22 <_vfiprintf_r+0x68a>
200166b8:	a3c1                	j	20016c78 <_vfiprintf_r+0x8e0>
200166ba:	010d7693          	andi	a3,s10,16
200166be:	00490c13          	addi	s8,s2,4
200166c2:	c691                	beqz	a3,200166ce <_vfiprintf_r+0x336>
200166c4:	00092d83          	lw	s11,0(s2)
200166c8:	41fddc93          	srai	s9,s11,0x1f
200166cc:	b77d                	j	2001667a <_vfiprintf_r+0x2e2>
200166ce:	040d7693          	andi	a3,s10,64
200166d2:	00092303          	lw	t1,0(s2)
200166d6:	c691                	beqz	a3,200166e2 <_vfiprintf_r+0x34a>
200166d8:	01031d93          	slli	s11,t1,0x10
200166dc:	410ddd93          	srai	s11,s11,0x10
200166e0:	b7e5                	j	200166c8 <_vfiprintf_r+0x330>
200166e2:	200d7693          	andi	a3,s10,512
200166e6:	8d9a                	mv	s11,t1
200166e8:	d2e5                	beqz	a3,200166c8 <_vfiprintf_r+0x330>
200166ea:	01831d93          	slli	s11,t1,0x18
200166ee:	418ddd93          	srai	s11,s11,0x18
200166f2:	bfd9                	j	200166c8 <_vfiprintf_r+0x330>
200166f4:	020d7613          	andi	a2,s10,32
200166f8:	00092683          	lw	a3,0(s2)
200166fc:	0911                	addi	s2,s2,4
200166fe:	c619                	beqz	a2,2001670c <_vfiprintf_r+0x374>
20016700:	41fbd793          	srai	a5,s7,0x1f
20016704:	0176a023          	sw	s7,0(a3)
20016708:	c2dc                	sw	a5,4(a3)
2001670a:	b3b5                	j	20016476 <_vfiprintf_r+0xde>
2001670c:	010d7613          	andi	a2,s10,16
20016710:	c601                	beqz	a2,20016718 <_vfiprintf_r+0x380>
20016712:	0176a023          	sw	s7,0(a3)
20016716:	b385                	j	20016476 <_vfiprintf_r+0xde>
20016718:	040d7613          	andi	a2,s10,64
2001671c:	c601                	beqz	a2,20016724 <_vfiprintf_r+0x38c>
2001671e:	01769023          	sh	s7,0(a3)
20016722:	bb91                	j	20016476 <_vfiprintf_r+0xde>
20016724:	200d7793          	andi	a5,s10,512
20016728:	d7ed                	beqz	a5,20016712 <_vfiprintf_r+0x37a>
2001672a:	01768023          	sb	s7,0(a3)
2001672e:	b3a1                	j	20016476 <_vfiprintf_r+0xde>
20016730:	010d6d13          	ori	s10,s10,16
20016734:	020d7693          	andi	a3,s10,32
20016738:	c285                	beqz	a3,20016758 <_vfiprintf_r+0x3c0>
2001673a:	091d                	addi	s2,s2,7
2001673c:	ff897913          	andi	s2,s2,-8
20016740:	00092d83          	lw	s11,0(s2)
20016744:	00492c83          	lw	s9,4(s2)
20016748:	00890c13          	addi	s8,s2,8
2001674c:	bffd7d13          	andi	s10,s10,-1025
20016750:	4681                	li	a3,0
20016752:	020105a3          	sb	zero,43(sp)
20016756:	b791                	j	2001669a <_vfiprintf_r+0x302>
20016758:	010d7693          	andi	a3,s10,16
2001675c:	00490c13          	addi	s8,s2,4
20016760:	c681                	beqz	a3,20016768 <_vfiprintf_r+0x3d0>
20016762:	00092d83          	lw	s11,0(s2)
20016766:	a031                	j	20016772 <_vfiprintf_r+0x3da>
20016768:	040d7693          	andi	a3,s10,64
2001676c:	c689                	beqz	a3,20016776 <_vfiprintf_r+0x3de>
2001676e:	00095d83          	lhu	s11,0(s2)
20016772:	4c81                	li	s9,0
20016774:	bfe1                	j	2001674c <_vfiprintf_r+0x3b4>
20016776:	200d7693          	andi	a3,s10,512
2001677a:	d6e5                	beqz	a3,20016762 <_vfiprintf_r+0x3ca>
2001677c:	00094d83          	lbu	s11,0(s2)
20016780:	bfcd                	j	20016772 <_vfiprintf_r+0x3da>
20016782:	76e1                	lui	a3,0xffff8
20016784:	00092d83          	lw	s11,0(s2)
20016788:	8306c693          	xori	a3,a3,-2000
2001678c:	00007797          	auipc	a5,0x7
20016790:	61478793          	addi	a5,a5,1556 # 2001dda0 <zeroes.4514+0x20>
20016794:	00490c13          	addi	s8,s2,4
20016798:	4c81                	li	s9,0
2001679a:	002d6d13          	ori	s10,s10,2
2001679e:	02d11623          	sh	a3,44(sp)
200167a2:	c43e                	sw	a5,8(sp)
200167a4:	4689                	li	a3,2
200167a6:	b775                	j	20016752 <_vfiprintf_r+0x3ba>
200167a8:	020105a3          	sb	zero,43(sp)
200167ac:	56fd                	li	a3,-1
200167ae:	c03a                	sw	a4,0(sp)
200167b0:	00490c13          	addi	s8,s2,4
200167b4:	00092903          	lw	s2,0(s2)
200167b8:	1cd48963          	beq	s1,a3,2001698a <_vfiprintf_r+0x5f2>
200167bc:	8626                	mv	a2,s1
200167be:	4581                	li	a1,0
200167c0:	854a                	mv	a0,s2
200167c2:	807fd0ef          	jal	ra,20013fc8 <memchr>
200167c6:	4c81                	li	s9,0
200167c8:	4702                	lw	a4,0(sp)
200167ca:	c119                	beqz	a0,200167d0 <_vfiprintf_r+0x438>
200167cc:	412504b3          	sub	s1,a0,s2
200167d0:	c066                	sw	s9,0(sp)
200167d2:	009cd363          	bge	s9,s1,200167d8 <_vfiprintf_r+0x440>
200167d6:	c026                	sw	s1,0(sp)
200167d8:	02b14683          	lbu	a3,43(sp)
200167dc:	c681                	beqz	a3,200167e4 <_vfiprintf_r+0x44c>
200167de:	4782                	lw	a5,0(sp)
200167e0:	0785                	addi	a5,a5,1
200167e2:	c03e                	sw	a5,0(sp)
200167e4:	002d7d93          	andi	s11,s10,2
200167e8:	000d8563          	beqz	s11,200167f2 <_vfiprintf_r+0x45a>
200167ec:	4782                	lw	a5,0(sp)
200167ee:	0789                	addi	a5,a5,2
200167f0:	c03e                	sw	a5,0(sp)
200167f2:	084d7793          	andi	a5,s10,132
200167f6:	ca3e                	sw	a5,20(sp)
200167f8:	e7a1                	bnez	a5,20016840 <_vfiprintf_r+0x4a8>
200167fa:	4782                	lw	a5,0(sp)
200167fc:	40fa06b3          	sub	a3,s4,a5
20016800:	04d05063          	blez	a3,20016840 <_vfiprintf_r+0x4a8>
20016804:	48c1                	li	a7,16
20016806:	00008817          	auipc	a6,0x8
2001680a:	c7280813          	addi	a6,a6,-910 # 2001e478 <blanks.4489>
2001680e:	431d                	li	t1,7
20016810:	5652                	lw	a2,52(sp)
20016812:	01072023          	sw	a6,0(a4)
20016816:	55e2                	lw	a1,56(sp)
20016818:	0605                	addi	a2,a2,1
2001681a:	00870513          	addi	a0,a4,8
2001681e:	34d8c163          	blt	a7,a3,20016b60 <_vfiprintf_r+0x7c8>
20016822:	c354                	sw	a3,4(a4)
20016824:	96ae                	add	a3,a3,a1
20016826:	dc36                	sw	a3,56(sp)
20016828:	da32                	sw	a2,52(sp)
2001682a:	469d                	li	a3,7
2001682c:	872a                	mv	a4,a0
2001682e:	00c6d963          	bge	a3,a2,20016840 <_vfiprintf_r+0x4a8>
20016832:	1810                	addi	a2,sp,48
20016834:	85a2                	mv	a1,s0
20016836:	854e                	mv	a0,s3
20016838:	34d1                	jal	200162fc <__sprint_r>
2001683a:	3e051663          	bnez	a0,20016c26 <_vfiprintf_r+0x88e>
2001683e:	875a                	mv	a4,s6
20016840:	02b14683          	lbu	a3,43(sp)
20016844:	c69d                	beqz	a3,20016872 <_vfiprintf_r+0x4da>
20016846:	02b10613          	addi	a2,sp,43
2001684a:	c310                	sw	a2,0(a4)
2001684c:	4605                	li	a2,1
2001684e:	56d2                	lw	a3,52(sp)
20016850:	c350                	sw	a2,4(a4)
20016852:	5662                	lw	a2,56(sp)
20016854:	0685                	addi	a3,a3,1
20016856:	da36                	sw	a3,52(sp)
20016858:	0605                	addi	a2,a2,1
2001685a:	dc32                	sw	a2,56(sp)
2001685c:	461d                	li	a2,7
2001685e:	0721                	addi	a4,a4,8
20016860:	00d65963          	bge	a2,a3,20016872 <_vfiprintf_r+0x4da>
20016864:	1810                	addi	a2,sp,48
20016866:	85a2                	mv	a1,s0
20016868:	854e                	mv	a0,s3
2001686a:	3c49                	jal	200162fc <__sprint_r>
2001686c:	3a051d63          	bnez	a0,20016c26 <_vfiprintf_r+0x88e>
20016870:	875a                	mv	a4,s6
20016872:	020d8763          	beqz	s11,200168a0 <_vfiprintf_r+0x508>
20016876:	1070                	addi	a2,sp,44
20016878:	c310                	sw	a2,0(a4)
2001687a:	4609                	li	a2,2
2001687c:	56d2                	lw	a3,52(sp)
2001687e:	c350                	sw	a2,4(a4)
20016880:	5662                	lw	a2,56(sp)
20016882:	0685                	addi	a3,a3,1
20016884:	da36                	sw	a3,52(sp)
20016886:	0609                	addi	a2,a2,2
20016888:	dc32                	sw	a2,56(sp)
2001688a:	461d                	li	a2,7
2001688c:	0721                	addi	a4,a4,8
2001688e:	00d65963          	bge	a2,a3,200168a0 <_vfiprintf_r+0x508>
20016892:	1810                	addi	a2,sp,48
20016894:	85a2                	mv	a1,s0
20016896:	854e                	mv	a0,s3
20016898:	3495                	jal	200162fc <__sprint_r>
2001689a:	38051663          	bnez	a0,20016c26 <_vfiprintf_r+0x88e>
2001689e:	875a                	mv	a4,s6
200168a0:	47d2                	lw	a5,20(sp)
200168a2:	08000693          	li	a3,128
200168a6:	04d79663          	bne	a5,a3,200168f2 <_vfiprintf_r+0x55a>
200168aa:	4782                	lw	a5,0(sp)
200168ac:	40fa0db3          	sub	s11,s4,a5
200168b0:	05b05163          	blez	s11,200168f2 <_vfiprintf_r+0x55a>
200168b4:	48c1                	li	a7,16
200168b6:	00008817          	auipc	a6,0x8
200168ba:	bd280813          	addi	a6,a6,-1070 # 2001e488 <zeroes.4490>
200168be:	431d                	li	t1,7
200168c0:	56d2                	lw	a3,52(sp)
200168c2:	01072023          	sw	a6,0(a4)
200168c6:	5662                	lw	a2,56(sp)
200168c8:	0685                	addi	a3,a3,1
200168ca:	00870593          	addi	a1,a4,8
200168ce:	2db8c263          	blt	a7,s11,20016b92 <_vfiprintf_r+0x7fa>
200168d2:	01b72223          	sw	s11,4(a4)
200168d6:	9db2                	add	s11,s11,a2
200168d8:	dc6e                	sw	s11,56(sp)
200168da:	da36                	sw	a3,52(sp)
200168dc:	461d                	li	a2,7
200168de:	872e                	mv	a4,a1
200168e0:	00d65963          	bge	a2,a3,200168f2 <_vfiprintf_r+0x55a>
200168e4:	1810                	addi	a2,sp,48
200168e6:	85a2                	mv	a1,s0
200168e8:	854e                	mv	a0,s3
200168ea:	3c09                	jal	200162fc <__sprint_r>
200168ec:	32051d63          	bnez	a0,20016c26 <_vfiprintf_r+0x88e>
200168f0:	875a                	mv	a4,s6
200168f2:	409c8cb3          	sub	s9,s9,s1
200168f6:	05905163          	blez	s9,20016938 <_vfiprintf_r+0x5a0>
200168fa:	4841                	li	a6,16
200168fc:	00008d97          	auipc	s11,0x8
20016900:	b8cd8d93          	addi	s11,s11,-1140 # 2001e488 <zeroes.4490>
20016904:	489d                	li	a7,7
20016906:	56d2                	lw	a3,52(sp)
20016908:	01b72023          	sw	s11,0(a4)
2001690c:	5662                	lw	a2,56(sp)
2001690e:	0685                	addi	a3,a3,1
20016910:	00870593          	addi	a1,a4,8
20016914:	2b984663          	blt	a6,s9,20016bc0 <_vfiprintf_r+0x828>
20016918:	01972223          	sw	s9,4(a4)
2001691c:	9cb2                	add	s9,s9,a2
2001691e:	dc66                	sw	s9,56(sp)
20016920:	da36                	sw	a3,52(sp)
20016922:	461d                	li	a2,7
20016924:	872e                	mv	a4,a1
20016926:	00d65963          	bge	a2,a3,20016938 <_vfiprintf_r+0x5a0>
2001692a:	1810                	addi	a2,sp,48
2001692c:	85a2                	mv	a1,s0
2001692e:	854e                	mv	a0,s3
20016930:	32f1                	jal	200162fc <__sprint_r>
20016932:	2e051a63          	bnez	a0,20016c26 <_vfiprintf_r+0x88e>
20016936:	875a                	mv	a4,s6
20016938:	56e2                	lw	a3,56(sp)
2001693a:	c344                	sw	s1,4(a4)
2001693c:	01272023          	sw	s2,0(a4)
20016940:	94b6                	add	s1,s1,a3
20016942:	56d2                	lw	a3,52(sp)
20016944:	dc26                	sw	s1,56(sp)
20016946:	461d                	li	a2,7
20016948:	0685                	addi	a3,a3,1
2001694a:	da36                	sw	a3,52(sp)
2001694c:	0721                	addi	a4,a4,8
2001694e:	00d65963          	bge	a2,a3,20016960 <_vfiprintf_r+0x5c8>
20016952:	1810                	addi	a2,sp,48
20016954:	85a2                	mv	a1,s0
20016956:	854e                	mv	a0,s3
20016958:	3255                	jal	200162fc <__sprint_r>
2001695a:	2c051663          	bnez	a0,20016c26 <_vfiprintf_r+0x88e>
2001695e:	875a                	mv	a4,s6
20016960:	004d7793          	andi	a5,s10,4
20016964:	28079163          	bnez	a5,20016be6 <_vfiprintf_r+0x84e>
20016968:	4782                	lw	a5,0(sp)
2001696a:	00fa5363          	bge	s4,a5,20016970 <_vfiprintf_r+0x5d8>
2001696e:	8a3e                	mv	s4,a5
20016970:	57e2                	lw	a5,56(sp)
20016972:	9bd2                	add	s7,s7,s4
20016974:	c799                	beqz	a5,20016982 <_vfiprintf_r+0x5ea>
20016976:	1810                	addi	a2,sp,48
20016978:	85a2                	mv	a1,s0
2001697a:	854e                	mv	a0,s3
2001697c:	3241                	jal	200162fc <__sprint_r>
2001697e:	2a051463          	bnez	a0,20016c26 <_vfiprintf_r+0x88e>
20016982:	da02                	sw	zero,52(sp)
20016984:	8962                	mv	s2,s8
20016986:	875a                	mv	a4,s6
20016988:	b4fd                	j	20016476 <_vfiprintf_r+0xde>
2001698a:	854a                	mv	a0,s2
2001698c:	b60fe0ef          	jal	ra,20014cec <strlen>
20016990:	84aa                	mv	s1,a0
20016992:	4c81                	li	s9,0
20016994:	4702                	lw	a4,0(sp)
20016996:	bd2d                	j	200167d0 <_vfiprintf_r+0x438>
20016998:	010d6d13          	ori	s10,s10,16
2001699c:	020d7693          	andi	a3,s10,32
200169a0:	ce81                	beqz	a3,200169b8 <_vfiprintf_r+0x620>
200169a2:	091d                	addi	s2,s2,7
200169a4:	ff897913          	andi	s2,s2,-8
200169a8:	00092d83          	lw	s11,0(s2)
200169ac:	00492c83          	lw	s9,4(s2)
200169b0:	00890c13          	addi	s8,s2,8
200169b4:	4685                	li	a3,1
200169b6:	bb71                	j	20016752 <_vfiprintf_r+0x3ba>
200169b8:	010d7693          	andi	a3,s10,16
200169bc:	00490c13          	addi	s8,s2,4
200169c0:	c681                	beqz	a3,200169c8 <_vfiprintf_r+0x630>
200169c2:	00092d83          	lw	s11,0(s2)
200169c6:	a031                	j	200169d2 <_vfiprintf_r+0x63a>
200169c8:	040d7693          	andi	a3,s10,64
200169cc:	c689                	beqz	a3,200169d6 <_vfiprintf_r+0x63e>
200169ce:	00095d83          	lhu	s11,0(s2)
200169d2:	4c81                	li	s9,0
200169d4:	b7c5                	j	200169b4 <_vfiprintf_r+0x61c>
200169d6:	200d7693          	andi	a3,s10,512
200169da:	d6e5                	beqz	a3,200169c2 <_vfiprintf_r+0x62a>
200169dc:	00094d83          	lbu	s11,0(s2)
200169e0:	bfcd                	j	200169d2 <_vfiprintf_r+0x63a>
200169e2:	00007797          	auipc	a5,0x7
200169e6:	3d278793          	addi	a5,a5,978 # 2001ddb4 <zeroes.4514+0x34>
200169ea:	be39                	j	20016508 <_vfiprintf_r+0x170>
200169ec:	010d7693          	andi	a3,s10,16
200169f0:	00490c13          	addi	s8,s2,4
200169f4:	c681                	beqz	a3,200169fc <_vfiprintf_r+0x664>
200169f6:	00092d83          	lw	s11,0(s2)
200169fa:	a031                	j	20016a06 <_vfiprintf_r+0x66e>
200169fc:	040d7693          	andi	a3,s10,64
20016a00:	c689                	beqz	a3,20016a0a <_vfiprintf_r+0x672>
20016a02:	00095d83          	lhu	s11,0(s2)
20016a06:	4c81                	li	s9,0
20016a08:	be31                	j	20016524 <_vfiprintf_r+0x18c>
20016a0a:	200d7693          	andi	a3,s10,512
20016a0e:	d6e5                	beqz	a3,200169f6 <_vfiprintf_r+0x65e>
20016a10:	00094d83          	lbu	s11,0(s2)
20016a14:	bfcd                	j	20016a06 <_vfiprintf_r+0x66e>
20016a16:	866a                	mv	a2,s10
20016a18:	4685                	li	a3,1
20016a1a:	b161                	j	200166a2 <_vfiprintf_r+0x30a>
20016a1c:	4605                	li	a2,1
20016a1e:	24c68863          	beq	a3,a2,20016c6e <_vfiprintf_r+0x8d6>
20016a22:	4609                	li	a2,2
20016a24:	0ec68563          	beq	a3,a2,20016b0e <_vfiprintf_r+0x776>
20016a28:	1194                	addi	a3,sp,224
20016a2a:	01dc9593          	slli	a1,s9,0x1d
20016a2e:	007df613          	andi	a2,s11,7
20016a32:	003dd313          	srli	t1,s11,0x3
20016a36:	03060613          	addi	a2,a2,48
20016a3a:	0065edb3          	or	s11,a1,t1
20016a3e:	003cdc93          	srli	s9,s9,0x3
20016a42:	fec68fa3          	sb	a2,-1(a3) # ffff7fff <metal_segment_heap_target_end+0x7fff3fff>
20016a46:	019de5b3          	or	a1,s11,s9
20016a4a:	fff68913          	addi	s2,a3,-1
20016a4e:	e18d                	bnez	a1,20016a70 <_vfiprintf_r+0x6d8>
20016a50:	001d7593          	andi	a1,s10,1
20016a54:	c989                	beqz	a1,20016a66 <_vfiprintf_r+0x6ce>
20016a56:	03000593          	li	a1,48
20016a5a:	00b60663          	beq	a2,a1,20016a66 <_vfiprintf_r+0x6ce>
20016a5e:	feb90fa3          	sb	a1,-1(s2)
20016a62:	ffe68913          	addi	s2,a3,-2
20016a66:	119c                	addi	a5,sp,224
20016a68:	8ca6                	mv	s9,s1
20016a6a:	412784b3          	sub	s1,a5,s2
20016a6e:	b38d                	j	200167d0 <_vfiprintf_r+0x438>
20016a70:	86ca                	mv	a3,s2
20016a72:	bf65                	j	20016a2a <_vfiprintf_r+0x692>
20016a74:	400d7793          	andi	a5,s10,1024
20016a78:	4881                	li	a7,0
20016a7a:	0e010e13          	addi	t3,sp,224
20016a7e:	c03e                	sw	a5,0(sp)
20016a80:	4629                	li	a2,10
20016a82:	4681                	li	a3,0
20016a84:	856e                	mv	a0,s11
20016a86:	85e6                	mv	a1,s9
20016a88:	ce46                	sw	a7,28(sp)
20016a8a:	cc3a                	sw	a4,24(sp)
20016a8c:	fffe0913          	addi	s2,t3,-1
20016a90:	ca72                	sw	t3,20(sp)
20016a92:	3d5010ef          	jal	ra,20018666 <__umoddi3>
20016a96:	4e52                	lw	t3,20(sp)
20016a98:	48f2                	lw	a7,28(sp)
20016a9a:	4782                	lw	a5,0(sp)
20016a9c:	03050513          	addi	a0,a0,48
20016aa0:	feae0fa3          	sb	a0,-1(t3)
20016aa4:	0885                	addi	a7,a7,1
20016aa6:	4762                	lw	a4,24(sp)
20016aa8:	c3a1                	beqz	a5,20016ae8 <_vfiprintf_r+0x750>
20016aaa:	4792                	lw	a5,4(sp)
20016aac:	0007c683          	lbu	a3,0(a5)
20016ab0:	03169c63          	bne	a3,a7,20016ae8 <_vfiprintf_r+0x750>
20016ab4:	0ff00793          	li	a5,255
20016ab8:	02f88863          	beq	a7,a5,20016ae8 <_vfiprintf_r+0x750>
20016abc:	000c9563          	bnez	s9,20016ac6 <_vfiprintf_r+0x72e>
20016ac0:	47a5                	li	a5,9
20016ac2:	03b7f363          	bgeu	a5,s11,20016ae8 <_vfiprintf_r+0x750>
20016ac6:	47b2                	lw	a5,12(sp)
20016ac8:	45c2                	lw	a1,16(sp)
20016aca:	ca3a                	sw	a4,20(sp)
20016acc:	40f90933          	sub	s2,s2,a5
20016ad0:	863e                	mv	a2,a5
20016ad2:	854a                	mv	a0,s2
20016ad4:	a2afe0ef          	jal	ra,20014cfe <strncpy>
20016ad8:	4792                	lw	a5,4(sp)
20016ada:	4881                	li	a7,0
20016adc:	4752                	lw	a4,20(sp)
20016ade:	0017c683          	lbu	a3,1(a5)
20016ae2:	c299                	beqz	a3,20016ae8 <_vfiprintf_r+0x750>
20016ae4:	0785                	addi	a5,a5,1
20016ae6:	c23e                	sw	a5,4(sp)
20016ae8:	4629                	li	a2,10
20016aea:	4681                	li	a3,0
20016aec:	856e                	mv	a0,s11
20016aee:	85e6                	mv	a1,s9
20016af0:	cc46                	sw	a7,24(sp)
20016af2:	ca3a                	sw	a4,20(sp)
20016af4:	015010ef          	jal	ra,20018308 <__udivdi3>
20016af8:	4752                	lw	a4,20(sp)
20016afa:	48e2                	lw	a7,24(sp)
20016afc:	000c9563          	bnez	s9,20016b06 <_vfiprintf_r+0x76e>
20016b00:	47a5                	li	a5,9
20016b02:	f7b7f2e3          	bgeu	a5,s11,20016a66 <_vfiprintf_r+0x6ce>
20016b06:	8daa                	mv	s11,a0
20016b08:	8cae                	mv	s9,a1
20016b0a:	8e4a                	mv	t3,s2
20016b0c:	bf95                	j	20016a80 <_vfiprintf_r+0x6e8>
20016b0e:	0e010913          	addi	s2,sp,224
20016b12:	47a2                	lw	a5,8(sp)
20016b14:	00fdf693          	andi	a3,s11,15
20016b18:	197d                	addi	s2,s2,-1
20016b1a:	96be                	add	a3,a3,a5
20016b1c:	0006c683          	lbu	a3,0(a3)
20016b20:	004dd313          	srli	t1,s11,0x4
20016b24:	00d90023          	sb	a3,0(s2)
20016b28:	01cc9693          	slli	a3,s9,0x1c
20016b2c:	0066edb3          	or	s11,a3,t1
20016b30:	004cdc93          	srli	s9,s9,0x4
20016b34:	019de6b3          	or	a3,s11,s9
20016b38:	fee9                	bnez	a3,20016b12 <_vfiprintf_r+0x77a>
20016b3a:	b735                	j	20016a66 <_vfiprintf_r+0x6ce>
20016b3c:	0e010913          	addi	s2,sp,224
20016b40:	f29d                	bnez	a3,20016a66 <_vfiprintf_r+0x6ce>
20016b42:	8a05                	andi	a2,a2,1
20016b44:	d20d                	beqz	a2,20016a66 <_vfiprintf_r+0x6ce>
20016b46:	03000693          	li	a3,48
20016b4a:	0cd10fa3          	sb	a3,223(sp)
20016b4e:	aa0d                	j	20016c80 <_vfiprintf_r+0x8e8>
20016b50:	10060463          	beqz	a2,20016c58 <_vfiprintf_r+0x8c0>
20016b54:	06c10e23          	sb	a2,124(sp)
20016b58:	020105a3          	sb	zero,43(sp)
20016b5c:	8c4a                	mv	s8,s2
20016b5e:	bcdd                	j	20016654 <_vfiprintf_r+0x2bc>
20016b60:	05c1                	addi	a1,a1,16
20016b62:	01172223          	sw	a7,4(a4)
20016b66:	dc2e                	sw	a1,56(sp)
20016b68:	da32                	sw	a2,52(sp)
20016b6a:	02c35163          	bge	t1,a2,20016b8c <_vfiprintf_r+0x7f4>
20016b6e:	1810                	addi	a2,sp,48
20016b70:	85a2                	mv	a1,s0
20016b72:	854e                	mv	a0,s3
20016b74:	cc36                	sw	a3,24(sp)
20016b76:	f86ff0ef          	jal	ra,200162fc <__sprint_r>
20016b7a:	e555                	bnez	a0,20016c26 <_vfiprintf_r+0x88e>
20016b7c:	46e2                	lw	a3,24(sp)
20016b7e:	855a                	mv	a0,s6
20016b80:	431d                	li	t1,7
20016b82:	00008817          	auipc	a6,0x8
20016b86:	8f680813          	addi	a6,a6,-1802 # 2001e478 <blanks.4489>
20016b8a:	48c1                	li	a7,16
20016b8c:	16c1                	addi	a3,a3,-16
20016b8e:	872a                	mv	a4,a0
20016b90:	b141                	j	20016810 <_vfiprintf_r+0x478>
20016b92:	0641                	addi	a2,a2,16
20016b94:	01172223          	sw	a7,4(a4)
20016b98:	dc32                	sw	a2,56(sp)
20016b9a:	da36                	sw	a3,52(sp)
20016b9c:	00d35f63          	bge	t1,a3,20016bba <_vfiprintf_r+0x822>
20016ba0:	1810                	addi	a2,sp,48
20016ba2:	85a2                	mv	a1,s0
20016ba4:	854e                	mv	a0,s3
20016ba6:	f56ff0ef          	jal	ra,200162fc <__sprint_r>
20016baa:	ed35                	bnez	a0,20016c26 <_vfiprintf_r+0x88e>
20016bac:	85da                	mv	a1,s6
20016bae:	431d                	li	t1,7
20016bb0:	00008817          	auipc	a6,0x8
20016bb4:	8d880813          	addi	a6,a6,-1832 # 2001e488 <zeroes.4490>
20016bb8:	48c1                	li	a7,16
20016bba:	1dc1                	addi	s11,s11,-16
20016bbc:	872e                	mv	a4,a1
20016bbe:	b309                	j	200168c0 <_vfiprintf_r+0x528>
20016bc0:	0641                	addi	a2,a2,16
20016bc2:	01072223          	sw	a6,4(a4)
20016bc6:	dc32                	sw	a2,56(sp)
20016bc8:	da36                	sw	a3,52(sp)
20016bca:	00d8db63          	bge	a7,a3,20016be0 <_vfiprintf_r+0x848>
20016bce:	1810                	addi	a2,sp,48
20016bd0:	85a2                	mv	a1,s0
20016bd2:	854e                	mv	a0,s3
20016bd4:	f28ff0ef          	jal	ra,200162fc <__sprint_r>
20016bd8:	e539                	bnez	a0,20016c26 <_vfiprintf_r+0x88e>
20016bda:	85da                	mv	a1,s6
20016bdc:	489d                	li	a7,7
20016bde:	4841                	li	a6,16
20016be0:	1cc1                	addi	s9,s9,-16
20016be2:	872e                	mv	a4,a1
20016be4:	b30d                	j	20016906 <_vfiprintf_r+0x56e>
20016be6:	4782                	lw	a5,0(sp)
20016be8:	40fa04b3          	sub	s1,s4,a5
20016bec:	d6905ee3          	blez	s1,20016968 <_vfiprintf_r+0x5d0>
20016bf0:	4cc1                	li	s9,16
20016bf2:	00008917          	auipc	s2,0x8
20016bf6:	88690913          	addi	s2,s2,-1914 # 2001e478 <blanks.4489>
20016bfa:	4d9d                	li	s11,7
20016bfc:	57d2                	lw	a5,52(sp)
20016bfe:	01272023          	sw	s2,0(a4)
20016c02:	56e2                	lw	a3,56(sp)
20016c04:	0785                	addi	a5,a5,1
20016c06:	029cc863          	blt	s9,s1,20016c36 <_vfiprintf_r+0x89e>
20016c0a:	c344                	sw	s1,4(a4)
20016c0c:	94b6                	add	s1,s1,a3
20016c0e:	dc26                	sw	s1,56(sp)
20016c10:	da3e                	sw	a5,52(sp)
20016c12:	471d                	li	a4,7
20016c14:	d4f75ae3          	bge	a4,a5,20016968 <_vfiprintf_r+0x5d0>
20016c18:	1810                	addi	a2,sp,48
20016c1a:	85a2                	mv	a1,s0
20016c1c:	854e                	mv	a0,s3
20016c1e:	edeff0ef          	jal	ra,200162fc <__sprint_r>
20016c22:	d40503e3          	beqz	a0,20016968 <_vfiprintf_r+0x5d0>
20016c26:	00c45783          	lhu	a5,12(s0)
20016c2a:	0407f793          	andi	a5,a5,64
20016c2e:	800781e3          	beqz	a5,20016430 <_vfiprintf_r+0x98>
20016c32:	ffcff06f          	j	2001642e <_vfiprintf_r+0x96>
20016c36:	06c1                	addi	a3,a3,16
20016c38:	01972223          	sw	s9,4(a4)
20016c3c:	dc36                	sw	a3,56(sp)
20016c3e:	da3e                	sw	a5,52(sp)
20016c40:	0721                	addi	a4,a4,8
20016c42:	00fdd963          	bge	s11,a5,20016c54 <_vfiprintf_r+0x8bc>
20016c46:	1810                	addi	a2,sp,48
20016c48:	85a2                	mv	a1,s0
20016c4a:	854e                	mv	a0,s3
20016c4c:	eb0ff0ef          	jal	ra,200162fc <__sprint_r>
20016c50:	f979                	bnez	a0,20016c26 <_vfiprintf_r+0x88e>
20016c52:	875a                	mv	a4,s6
20016c54:	14c1                	addi	s1,s1,-16
20016c56:	b75d                	j	20016bfc <_vfiprintf_r+0x864>
20016c58:	57e2                	lw	a5,56(sp)
20016c5a:	d7f1                	beqz	a5,20016c26 <_vfiprintf_r+0x88e>
20016c5c:	1810                	addi	a2,sp,48
20016c5e:	85a2                	mv	a1,s0
20016c60:	854e                	mv	a0,s3
20016c62:	e9aff0ef          	jal	ra,200162fc <__sprint_r>
20016c66:	b7c1                	j	20016c26 <_vfiprintf_r+0x88e>
20016c68:	56fd                	li	a3,-1
20016c6a:	dad496e3          	bne	s1,a3,20016a16 <_vfiprintf_r+0x67e>
20016c6e:	e00c93e3          	bnez	s9,20016a74 <_vfiprintf_r+0x6dc>
20016c72:	46a5                	li	a3,9
20016c74:	e1b6e0e3          	bltu	a3,s11,20016a74 <_vfiprintf_r+0x6dc>
20016c78:	030d8313          	addi	t1,s11,48
20016c7c:	0c610fa3          	sb	t1,223(sp)
20016c80:	0df10913          	addi	s2,sp,223
20016c84:	b3cd                	j	20016a66 <_vfiprintf_r+0x6ce>

20016c86 <vfiprintf>:
20016c86:	5ffea797          	auipc	a5,0x5ffea
20016c8a:	57278793          	addi	a5,a5,1394 # 800011f8 <_impure_ptr>
20016c8e:	86b2                	mv	a3,a2
20016c90:	862e                	mv	a2,a1
20016c92:	85aa                	mv	a1,a0
20016c94:	4388                	lw	a0,0(a5)
20016c96:	f02ff06f          	j	20016398 <_vfiprintf_r>

20016c9a <__sbprintf>:
20016c9a:	00c5d783          	lhu	a5,12(a1)
20016c9e:	b8010113          	addi	sp,sp,-1152
20016ca2:	46812c23          	sw	s0,1144(sp)
20016ca6:	9bf5                	andi	a5,a5,-3
20016ca8:	00f11a23          	sh	a5,20(sp)
20016cac:	51fc                	lw	a5,100(a1)
20016cae:	842e                	mv	s0,a1
20016cb0:	46912a23          	sw	s1,1140(sp)
20016cb4:	d6be                	sw	a5,108(sp)
20016cb6:	00e5d783          	lhu	a5,14(a1)
20016cba:	47212823          	sw	s2,1136(sp)
20016cbe:	46112e23          	sw	ra,1148(sp)
20016cc2:	00f11b23          	sh	a5,22(sp)
20016cc6:	4ddc                	lw	a5,28(a1)
20016cc8:	892a                	mv	s2,a0
20016cca:	d002                	sw	zero,32(sp)
20016ccc:	d23e                	sw	a5,36(sp)
20016cce:	51dc                	lw	a5,36(a1)
20016cd0:	002c                	addi	a1,sp,8
20016cd2:	d63e                	sw	a5,44(sp)
20016cd4:	189c                	addi	a5,sp,112
20016cd6:	c43e                	sw	a5,8(sp)
20016cd8:	cc3e                	sw	a5,24(sp)
20016cda:	40000793          	li	a5,1024
20016cde:	c83e                	sw	a5,16(sp)
20016ce0:	ce3e                	sw	a5,28(sp)
20016ce2:	eb6ff0ef          	jal	ra,20016398 <_vfiprintf_r>
20016ce6:	84aa                	mv	s1,a0
20016ce8:	00054863          	bltz	a0,20016cf8 <__sbprintf+0x5e>
20016cec:	002c                	addi	a1,sp,8
20016cee:	854a                	mv	a0,s2
20016cf0:	fdbfa0ef          	jal	ra,20011cca <_fflush_r>
20016cf4:	c111                	beqz	a0,20016cf8 <__sbprintf+0x5e>
20016cf6:	54fd                	li	s1,-1
20016cf8:	01415783          	lhu	a5,20(sp)
20016cfc:	0407f793          	andi	a5,a5,64
20016d00:	c799                	beqz	a5,20016d0e <__sbprintf+0x74>
20016d02:	00c45783          	lhu	a5,12(s0)
20016d06:	0407e793          	ori	a5,a5,64
20016d0a:	00f41623          	sh	a5,12(s0)
20016d0e:	47c12083          	lw	ra,1148(sp)
20016d12:	47812403          	lw	s0,1144(sp)
20016d16:	8526                	mv	a0,s1
20016d18:	47012903          	lw	s2,1136(sp)
20016d1c:	47412483          	lw	s1,1140(sp)
20016d20:	48010113          	addi	sp,sp,1152
20016d24:	8082                	ret

20016d26 <_wctomb_r>:
20016d26:	5ffea797          	auipc	a5,0x5ffea
20016d2a:	4d278793          	addi	a5,a5,1234 # 800011f8 <_impure_ptr>
20016d2e:	439c                	lw	a5,0(a5)
20016d30:	5bdc                	lw	a5,52(a5)
20016d32:	e789                	bnez	a5,20016d3c <_wctomb_r+0x16>
20016d34:	5ffe9797          	auipc	a5,0x5ffe9
20016d38:	6f478793          	addi	a5,a5,1780 # 80000428 <__global_locale>
20016d3c:	0e07a303          	lw	t1,224(a5)
20016d40:	8302                	jr	t1

20016d42 <__ascii_wctomb>:
20016d42:	cd91                	beqz	a1,20016d5e <__ascii_wctomb+0x1c>
20016d44:	0ff00793          	li	a5,255
20016d48:	00c7f763          	bgeu	a5,a2,20016d56 <__ascii_wctomb+0x14>
20016d4c:	08a00793          	li	a5,138
20016d50:	c11c                	sw	a5,0(a0)
20016d52:	557d                	li	a0,-1
20016d54:	8082                	ret
20016d56:	00c58023          	sb	a2,0(a1)
20016d5a:	4505                	li	a0,1
20016d5c:	8082                	ret
20016d5e:	4501                	li	a0,0
20016d60:	8082                	ret

20016d62 <_write_r>:
20016d62:	1141                	addi	sp,sp,-16
20016d64:	c422                	sw	s0,8(sp)
20016d66:	842a                	mv	s0,a0
20016d68:	852e                	mv	a0,a1
20016d6a:	85b2                	mv	a1,a2
20016d6c:	8636                	mv	a2,a3
20016d6e:	8801a423          	sw	zero,-1912(gp) # 80001280 <errno>
20016d72:	c606                	sw	ra,12(sp)
20016d74:	0d7040ef          	jal	ra,2001b64a <_write>
20016d78:	57fd                	li	a5,-1
20016d7a:	00f51763          	bne	a0,a5,20016d88 <_write_r+0x26>
20016d7e:	88818793          	addi	a5,gp,-1912 # 80001280 <errno>
20016d82:	439c                	lw	a5,0(a5)
20016d84:	c391                	beqz	a5,20016d88 <_write_r+0x26>
20016d86:	c01c                	sw	a5,0(s0)
20016d88:	40b2                	lw	ra,12(sp)
20016d8a:	4422                	lw	s0,8(sp)
20016d8c:	0141                	addi	sp,sp,16
20016d8e:	8082                	ret

20016d90 <_calloc_r>:
20016d90:	02c585b3          	mul	a1,a1,a2
20016d94:	1141                	addi	sp,sp,-16
20016d96:	c422                	sw	s0,8(sp)
20016d98:	c606                	sw	ra,12(sp)
20016d9a:	ccbfc0ef          	jal	ra,20013a64 <_malloc_r>
20016d9e:	842a                	mv	s0,a0
20016da0:	cd05                	beqz	a0,20016dd8 <_calloc_r+0x48>
20016da2:	ffc52603          	lw	a2,-4(a0)
20016da6:	02400713          	li	a4,36
20016daa:	9a71                	andi	a2,a2,-4
20016dac:	1671                	addi	a2,a2,-4
20016dae:	04c76963          	bltu	a4,a2,20016e00 <_calloc_r+0x70>
20016db2:	46cd                	li	a3,19
20016db4:	87aa                	mv	a5,a0
20016db6:	00c6fb63          	bgeu	a3,a2,20016dcc <_calloc_r+0x3c>
20016dba:	00052023          	sw	zero,0(a0)
20016dbe:	00052223          	sw	zero,4(a0)
20016dc2:	47ed                	li	a5,27
20016dc4:	00c7ef63          	bltu	a5,a2,20016de2 <_calloc_r+0x52>
20016dc8:	00850793          	addi	a5,a0,8
20016dcc:	0007a023          	sw	zero,0(a5)
20016dd0:	0007a223          	sw	zero,4(a5)
20016dd4:	0007a423          	sw	zero,8(a5)
20016dd8:	8522                	mv	a0,s0
20016dda:	40b2                	lw	ra,12(sp)
20016ddc:	4422                	lw	s0,8(sp)
20016dde:	0141                	addi	sp,sp,16
20016de0:	8082                	ret
20016de2:	00052423          	sw	zero,8(a0)
20016de6:	00052623          	sw	zero,12(a0)
20016dea:	01050793          	addi	a5,a0,16
20016dee:	fce61fe3          	bne	a2,a4,20016dcc <_calloc_r+0x3c>
20016df2:	00052823          	sw	zero,16(a0)
20016df6:	01850793          	addi	a5,a0,24
20016dfa:	00052a23          	sw	zero,20(a0)
20016dfe:	b7f9                	j	20016dcc <_calloc_r+0x3c>
20016e00:	4581                	li	a1,0
20016e02:	9e0fd0ef          	jal	ra,20013fe2 <memset>
20016e06:	bfc9                	j	20016dd8 <_calloc_r+0x48>

20016e08 <_close_r>:
20016e08:	1141                	addi	sp,sp,-16
20016e0a:	c422                	sw	s0,8(sp)
20016e0c:	842a                	mv	s0,a0
20016e0e:	852e                	mv	a0,a1
20016e10:	8801a423          	sw	zero,-1912(gp) # 80001280 <errno>
20016e14:	c606                	sw	ra,12(sp)
20016e16:	714040ef          	jal	ra,2001b52a <_close>
20016e1a:	57fd                	li	a5,-1
20016e1c:	00f51763          	bne	a0,a5,20016e2a <_close_r+0x22>
20016e20:	88818793          	addi	a5,gp,-1912 # 80001280 <errno>
20016e24:	439c                	lw	a5,0(a5)
20016e26:	c391                	beqz	a5,20016e2a <_close_r+0x22>
20016e28:	c01c                	sw	a5,0(s0)
20016e2a:	40b2                	lw	ra,12(sp)
20016e2c:	4422                	lw	s0,8(sp)
20016e2e:	0141                	addi	sp,sp,16
20016e30:	8082                	ret

20016e32 <_fclose_r>:
20016e32:	1141                	addi	sp,sp,-16
20016e34:	c606                	sw	ra,12(sp)
20016e36:	c422                	sw	s0,8(sp)
20016e38:	c226                	sw	s1,4(sp)
20016e3a:	c04a                	sw	s2,0(sp)
20016e3c:	e989                	bnez	a1,20016e4e <_fclose_r+0x1c>
20016e3e:	4901                	li	s2,0
20016e40:	40b2                	lw	ra,12(sp)
20016e42:	4422                	lw	s0,8(sp)
20016e44:	854a                	mv	a0,s2
20016e46:	4492                	lw	s1,4(sp)
20016e48:	4902                	lw	s2,0(sp)
20016e4a:	0141                	addi	sp,sp,16
20016e4c:	8082                	ret
20016e4e:	84aa                	mv	s1,a0
20016e50:	842e                	mv	s0,a1
20016e52:	c509                	beqz	a0,20016e5c <_fclose_r+0x2a>
20016e54:	5d1c                	lw	a5,56(a0)
20016e56:	e399                	bnez	a5,20016e5c <_fclose_r+0x2a>
20016e58:	f8dfa0ef          	jal	ra,20011de4 <__sinit>
20016e5c:	00c41783          	lh	a5,12(s0)
20016e60:	dff9                	beqz	a5,20016e3e <_fclose_r+0xc>
20016e62:	85a2                	mv	a1,s0
20016e64:	8526                	mv	a0,s1
20016e66:	d0bfa0ef          	jal	ra,20011b70 <__sflush_r>
20016e6a:	545c                	lw	a5,44(s0)
20016e6c:	892a                	mv	s2,a0
20016e6e:	c799                	beqz	a5,20016e7c <_fclose_r+0x4a>
20016e70:	4c4c                	lw	a1,28(s0)
20016e72:	8526                	mv	a0,s1
20016e74:	9782                	jalr	a5
20016e76:	00055363          	bgez	a0,20016e7c <_fclose_r+0x4a>
20016e7a:	597d                	li	s2,-1
20016e7c:	00c45783          	lhu	a5,12(s0)
20016e80:	0807f793          	andi	a5,a5,128
20016e84:	c789                	beqz	a5,20016e8e <_fclose_r+0x5c>
20016e86:	480c                	lw	a1,16(s0)
20016e88:	8526                	mv	a0,s1
20016e8a:	944fb0ef          	jal	ra,20011fce <_free_r>
20016e8e:	580c                	lw	a1,48(s0)
20016e90:	c991                	beqz	a1,20016ea4 <_fclose_r+0x72>
20016e92:	04040793          	addi	a5,s0,64
20016e96:	00f58563          	beq	a1,a5,20016ea0 <_fclose_r+0x6e>
20016e9a:	8526                	mv	a0,s1
20016e9c:	932fb0ef          	jal	ra,20011fce <_free_r>
20016ea0:	02042823          	sw	zero,48(s0)
20016ea4:	406c                	lw	a1,68(s0)
20016ea6:	c591                	beqz	a1,20016eb2 <_fclose_r+0x80>
20016ea8:	8526                	mv	a0,s1
20016eaa:	924fb0ef          	jal	ra,20011fce <_free_r>
20016eae:	04042223          	sw	zero,68(s0)
20016eb2:	81cfb0ef          	jal	ra,20011ece <__sfp_lock_acquire>
20016eb6:	00041623          	sh	zero,12(s0)
20016eba:	816fb0ef          	jal	ra,20011ed0 <__sfp_lock_release>
20016ebe:	b749                	j	20016e40 <_fclose_r+0xe>

20016ec0 <fclose>:
20016ec0:	5ffea797          	auipc	a5,0x5ffea
20016ec4:	33878793          	addi	a5,a5,824 # 800011f8 <_impure_ptr>
20016ec8:	85aa                	mv	a1,a0
20016eca:	4388                	lw	a0,0(a5)
20016ecc:	b79d                	j	20016e32 <_fclose_r>

20016ece <__fputwc>:
20016ece:	7179                	addi	sp,sp,-48
20016ed0:	d422                	sw	s0,40(sp)
20016ed2:	d226                	sw	s1,36(sp)
20016ed4:	cc52                	sw	s4,24(sp)
20016ed6:	d606                	sw	ra,44(sp)
20016ed8:	d04a                	sw	s2,32(sp)
20016eda:	ce4e                	sw	s3,28(sp)
20016edc:	ca56                	sw	s5,20(sp)
20016ede:	c85a                	sw	s6,16(sp)
20016ee0:	8a2a                	mv	s4,a0
20016ee2:	84ae                	mv	s1,a1
20016ee4:	8432                	mv	s0,a2
20016ee6:	a2dfc0ef          	jal	ra,20013912 <__locale_mb_cur_max>
20016eea:	4785                	li	a5,1
20016eec:	02f51b63          	bne	a0,a5,20016f22 <__fputwc+0x54>
20016ef0:	fff48793          	addi	a5,s1,-1
20016ef4:	0fe00713          	li	a4,254
20016ef8:	02f76563          	bltu	a4,a5,20016f22 <__fputwc+0x54>
20016efc:	00910623          	sb	s1,12(sp)
20016f00:	4985                	li	s3,1
20016f02:	4901                	li	s2,0
20016f04:	5afd                	li	s5,-1
20016f06:	4b29                	li	s6,10
20016f08:	05391063          	bne	s2,s3,20016f48 <__fputwc+0x7a>
20016f0c:	8526                	mv	a0,s1
20016f0e:	50b2                	lw	ra,44(sp)
20016f10:	5422                	lw	s0,40(sp)
20016f12:	5492                	lw	s1,36(sp)
20016f14:	5902                	lw	s2,32(sp)
20016f16:	49f2                	lw	s3,28(sp)
20016f18:	4a62                	lw	s4,24(sp)
20016f1a:	4ad2                	lw	s5,20(sp)
20016f1c:	4b42                	lw	s6,16(sp)
20016f1e:	6145                	addi	sp,sp,48
20016f20:	8082                	ret
20016f22:	05c40693          	addi	a3,s0,92
20016f26:	8626                	mv	a2,s1
20016f28:	006c                	addi	a1,sp,12
20016f2a:	8552                	mv	a0,s4
20016f2c:	36c010ef          	jal	ra,20018298 <_wcrtomb_r>
20016f30:	57fd                	li	a5,-1
20016f32:	89aa                	mv	s3,a0
20016f34:	fcf517e3          	bne	a0,a5,20016f02 <__fputwc+0x34>
20016f38:	00c45783          	lhu	a5,12(s0)
20016f3c:	0407e793          	ori	a5,a5,64
20016f40:	00f41623          	sh	a5,12(s0)
20016f44:	557d                	li	a0,-1
20016f46:	b7e1                	j	20016f0e <__fputwc+0x40>
20016f48:	007c                	addi	a5,sp,12
20016f4a:	97ca                	add	a5,a5,s2
20016f4c:	0007c583          	lbu	a1,0(a5)
20016f50:	441c                	lw	a5,8(s0)
20016f52:	17fd                	addi	a5,a5,-1
20016f54:	c41c                	sw	a5,8(s0)
20016f56:	0007d763          	bgez	a5,20016f64 <__fputwc+0x96>
20016f5a:	4c18                	lw	a4,24(s0)
20016f5c:	00e7cc63          	blt	a5,a4,20016f74 <__fputwc+0xa6>
20016f60:	01658a63          	beq	a1,s6,20016f74 <__fputwc+0xa6>
20016f64:	401c                	lw	a5,0(s0)
20016f66:	00178713          	addi	a4,a5,1
20016f6a:	c018                	sw	a4,0(s0)
20016f6c:	00b78023          	sb	a1,0(a5)
20016f70:	0905                	addi	s2,s2,1
20016f72:	bf59                	j	20016f08 <__fputwc+0x3a>
20016f74:	8622                	mv	a2,s0
20016f76:	8552                	mv	a0,s4
20016f78:	256010ef          	jal	ra,200181ce <__swbuf_r>
20016f7c:	ff551ae3          	bne	a0,s5,20016f70 <__fputwc+0xa2>
20016f80:	b7d1                	j	20016f44 <__fputwc+0x76>

20016f82 <_fputwc_r>:
20016f82:	00c61783          	lh	a5,12(a2)
20016f86:	01279713          	slli	a4,a5,0x12
20016f8a:	00074a63          	bltz	a4,20016f9e <_fputwc_r+0x1c>
20016f8e:	5278                	lw	a4,100(a2)
20016f90:	6689                	lui	a3,0x2
20016f92:	8fd5                	or	a5,a5,a3
20016f94:	00f61623          	sh	a5,12(a2)
20016f98:	6789                	lui	a5,0x2
20016f9a:	8fd9                	or	a5,a5,a4
20016f9c:	d27c                	sw	a5,100(a2)
20016f9e:	bf05                	j	20016ece <__fputwc>

20016fa0 <fputwc>:
20016fa0:	1101                	addi	sp,sp,-32
20016fa2:	5ffea797          	auipc	a5,0x5ffea
20016fa6:	25678793          	addi	a5,a5,598 # 800011f8 <_impure_ptr>
20016faa:	cc22                	sw	s0,24(sp)
20016fac:	4380                	lw	s0,0(a5)
20016fae:	ca26                	sw	s1,20(sp)
20016fb0:	ce06                	sw	ra,28(sp)
20016fb2:	84aa                	mv	s1,a0
20016fb4:	862e                	mv	a2,a1
20016fb6:	c801                	beqz	s0,20016fc6 <fputwc+0x26>
20016fb8:	5c1c                	lw	a5,56(s0)
20016fba:	e791                	bnez	a5,20016fc6 <fputwc+0x26>
20016fbc:	8522                	mv	a0,s0
20016fbe:	c62e                	sw	a1,12(sp)
20016fc0:	e25fa0ef          	jal	ra,20011de4 <__sinit>
20016fc4:	4632                	lw	a2,12(sp)
20016fc6:	8522                	mv	a0,s0
20016fc8:	4462                	lw	s0,24(sp)
20016fca:	40f2                	lw	ra,28(sp)
20016fcc:	85a6                	mv	a1,s1
20016fce:	44d2                	lw	s1,20(sp)
20016fd0:	6105                	addi	sp,sp,32
20016fd2:	bf45                	j	20016f82 <_fputwc_r>

20016fd4 <_fstat_r>:
20016fd4:	1141                	addi	sp,sp,-16
20016fd6:	c422                	sw	s0,8(sp)
20016fd8:	842a                	mv	s0,a0
20016fda:	852e                	mv	a0,a1
20016fdc:	85b2                	mv	a1,a2
20016fde:	8801a423          	sw	zero,-1912(gp) # 80001280 <errno>
20016fe2:	c606                	sw	ra,12(sp)
20016fe4:	568040ef          	jal	ra,2001b54c <_fstat>
20016fe8:	57fd                	li	a5,-1
20016fea:	00f51763          	bne	a0,a5,20016ff8 <_fstat_r+0x24>
20016fee:	88818793          	addi	a5,gp,-1912 # 80001280 <errno>
20016ff2:	439c                	lw	a5,0(a5)
20016ff4:	c391                	beqz	a5,20016ff8 <_fstat_r+0x24>
20016ff6:	c01c                	sw	a5,0(s0)
20016ff8:	40b2                	lw	ra,12(sp)
20016ffa:	4422                	lw	s0,8(sp)
20016ffc:	0141                	addi	sp,sp,16
20016ffe:	8082                	ret

20017000 <__sfvwrite_r>:
20017000:	461c                	lw	a5,8(a2)
20017002:	e781                	bnez	a5,2001700a <__sfvwrite_r+0xa>
20017004:	4781                	li	a5,0
20017006:	853e                	mv	a0,a5
20017008:	8082                	ret
2001700a:	00c5d783          	lhu	a5,12(a1)
2001700e:	715d                	addi	sp,sp,-80
20017010:	c4a2                	sw	s0,72(sp)
20017012:	c0ca                	sw	s2,64(sp)
20017014:	da56                	sw	s5,52(sp)
20017016:	c686                	sw	ra,76(sp)
20017018:	c2a6                	sw	s1,68(sp)
2001701a:	de4e                	sw	s3,60(sp)
2001701c:	dc52                	sw	s4,56(sp)
2001701e:	d85a                	sw	s6,48(sp)
20017020:	d65e                	sw	s7,44(sp)
20017022:	d462                	sw	s8,40(sp)
20017024:	d266                	sw	s9,36(sp)
20017026:	d06a                	sw	s10,32(sp)
20017028:	ce6e                	sw	s11,28(sp)
2001702a:	8ba1                	andi	a5,a5,8
2001702c:	8ab2                	mv	s5,a2
2001702e:	842e                	mv	s0,a1
20017030:	892a                	mv	s2,a0
20017032:	cfd1                	beqz	a5,200170ce <__sfvwrite_r+0xce>
20017034:	499c                	lw	a5,16(a1)
20017036:	cfc1                	beqz	a5,200170ce <__sfvwrite_r+0xce>
20017038:	00c45783          	lhu	a5,12(s0)
2001703c:	000aaa03          	lw	s4,0(s5)
20017040:	0027f713          	andi	a4,a5,2
20017044:	0e071763          	bnez	a4,20017132 <__sfvwrite_r+0x132>
20017048:	8b85                	andi	a5,a5,1
2001704a:	16078063          	beqz	a5,200171aa <__sfvwrite_r+0x1aa>
2001704e:	4b81                	li	s7,0
20017050:	4501                	li	a0,0
20017052:	4b01                	li	s6,0
20017054:	4981                	li	s3,0
20017056:	24098463          	beqz	s3,2001729e <__sfvwrite_r+0x29e>
2001705a:	ed01                	bnez	a0,20017072 <__sfvwrite_r+0x72>
2001705c:	864e                	mv	a2,s3
2001705e:	45a9                	li	a1,10
20017060:	855a                	mv	a0,s6
20017062:	f67fc0ef          	jal	ra,20013fc8 <memchr>
20017066:	00198b93          	addi	s7,s3,1
2001706a:	c501                	beqz	a0,20017072 <__sfvwrite_r+0x72>
2001706c:	0505                	addi	a0,a0,1
2001706e:	41650bb3          	sub	s7,a0,s6
20017072:	8c5e                	mv	s8,s7
20017074:	0179f363          	bgeu	s3,s7,2001707a <__sfvwrite_r+0x7a>
20017078:	8c4e                	mv	s8,s3
2001707a:	4008                	lw	a0,0(s0)
2001707c:	481c                	lw	a5,16(s0)
2001707e:	4854                	lw	a3,20(s0)
20017080:	22a7f663          	bgeu	a5,a0,200172ac <__sfvwrite_r+0x2ac>
20017084:	4404                	lw	s1,8(s0)
20017086:	94b6                	add	s1,s1,a3
20017088:	2384d263          	bge	s1,s8,200172ac <__sfvwrite_r+0x2ac>
2001708c:	85da                	mv	a1,s6
2001708e:	8626                	mv	a2,s1
20017090:	2ea1                	jal	200173e8 <memmove>
20017092:	401c                	lw	a5,0(s0)
20017094:	85a2                	mv	a1,s0
20017096:	854a                	mv	a0,s2
20017098:	97a6                	add	a5,a5,s1
2001709a:	c01c                	sw	a5,0(s0)
2001709c:	c2ffa0ef          	jal	ra,20011cca <_fflush_r>
200170a0:	0e051d63          	bnez	a0,2001719a <__sfvwrite_r+0x19a>
200170a4:	409b8bb3          	sub	s7,s7,s1
200170a8:	4505                	li	a0,1
200170aa:	000b9763          	bnez	s7,200170b8 <__sfvwrite_r+0xb8>
200170ae:	85a2                	mv	a1,s0
200170b0:	854a                	mv	a0,s2
200170b2:	c19fa0ef          	jal	ra,20011cca <_fflush_r>
200170b6:	e175                	bnez	a0,2001719a <__sfvwrite_r+0x19a>
200170b8:	008aa783          	lw	a5,8(s5)
200170bc:	9b26                	add	s6,s6,s1
200170be:	409989b3          	sub	s3,s3,s1
200170c2:	409784b3          	sub	s1,a5,s1
200170c6:	009aa423          	sw	s1,8(s5)
200170ca:	f4d1                	bnez	s1,20017056 <__sfvwrite_r+0x56>
200170cc:	a091                	j	20017110 <__sfvwrite_r+0x110>
200170ce:	85a2                	mv	a1,s0
200170d0:	854a                	mv	a0,s2
200170d2:	9c3fa0ef          	jal	ra,20011a94 <__swsetup_r>
200170d6:	57fd                	li	a5,-1
200170d8:	d125                	beqz	a0,20017038 <__sfvwrite_r+0x38>
200170da:	a825                	j	20017112 <__sfvwrite_r+0x112>
200170dc:	000a2983          	lw	s3,0(s4)
200170e0:	004a2483          	lw	s1,4(s4)
200170e4:	0a21                	addi	s4,s4,8
200170e6:	d8fd                	beqz	s1,200170dc <__sfvwrite_r+0xdc>
200170e8:	86a6                	mv	a3,s1
200170ea:	009b7363          	bgeu	s6,s1,200170f0 <__sfvwrite_r+0xf0>
200170ee:	86da                	mv	a3,s6
200170f0:	505c                	lw	a5,36(s0)
200170f2:	4c4c                	lw	a1,28(s0)
200170f4:	864e                	mv	a2,s3
200170f6:	854a                	mv	a0,s2
200170f8:	9782                	jalr	a5
200170fa:	0aa05063          	blez	a0,2001719a <__sfvwrite_r+0x19a>
200170fe:	008aa783          	lw	a5,8(s5)
20017102:	99aa                	add	s3,s3,a0
20017104:	8c89                	sub	s1,s1,a0
20017106:	40a78533          	sub	a0,a5,a0
2001710a:	00aaa423          	sw	a0,8(s5)
2001710e:	fd61                	bnez	a0,200170e6 <__sfvwrite_r+0xe6>
20017110:	4781                	li	a5,0
20017112:	40b6                	lw	ra,76(sp)
20017114:	4426                	lw	s0,72(sp)
20017116:	4496                	lw	s1,68(sp)
20017118:	4906                	lw	s2,64(sp)
2001711a:	59f2                	lw	s3,60(sp)
2001711c:	5a62                	lw	s4,56(sp)
2001711e:	5ad2                	lw	s5,52(sp)
20017120:	5b42                	lw	s6,48(sp)
20017122:	5bb2                	lw	s7,44(sp)
20017124:	5c22                	lw	s8,40(sp)
20017126:	5c92                	lw	s9,36(sp)
20017128:	5d02                	lw	s10,32(sp)
2001712a:	4df2                	lw	s11,28(sp)
2001712c:	853e                	mv	a0,a5
2001712e:	6161                	addi	sp,sp,80
20017130:	8082                	ret
20017132:	80000b37          	lui	s6,0x80000
20017136:	4981                	li	s3,0
20017138:	4481                	li	s1,0
2001713a:	c00b4b13          	xori	s6,s6,-1024
2001713e:	b765                	j	200170e6 <__sfvwrite_r+0xe6>
20017140:	000a2b03          	lw	s6,0(s4)
20017144:	004a2483          	lw	s1,4(s4)
20017148:	0a21                	addi	s4,s4,8
2001714a:	d8fd                	beqz	s1,20017140 <__sfvwrite_r+0x140>
2001714c:	00c45703          	lhu	a4,12(s0)
20017150:	441c                	lw	a5,8(s0)
20017152:	4008                	lw	a0,0(s0)
20017154:	20077693          	andi	a3,a4,512
20017158:	0e068763          	beqz	a3,20017246 <__sfvwrite_r+0x246>
2001715c:	08f4e963          	bltu	s1,a5,200171ee <__sfvwrite_r+0x1ee>
20017160:	48077693          	andi	a3,a4,1152
20017164:	c6c9                	beqz	a3,200171ee <__sfvwrite_r+0x1ee>
20017166:	01442d83          	lw	s11,20(s0)
2001716a:	480c                	lw	a1,16(s0)
2001716c:	03bc8db3          	mul	s11,s9,s11
20017170:	40b509b3          	sub	s3,a0,a1
20017174:	00198793          	addi	a5,s3,1
20017178:	97a6                	add	a5,a5,s1
2001717a:	03adcdb3          	div	s11,s11,s10
2001717e:	00fdf363          	bgeu	s11,a5,20017184 <__sfvwrite_r+0x184>
20017182:	8dbe                	mv	s11,a5
20017184:	40077713          	andi	a4,a4,1024
20017188:	cf59                	beqz	a4,20017226 <__sfvwrite_r+0x226>
2001718a:	85ee                	mv	a1,s11
2001718c:	854a                	mv	a0,s2
2001718e:	8d7fc0ef          	jal	ra,20013a64 <_malloc_r>
20017192:	e51d                	bnez	a0,200171c0 <__sfvwrite_r+0x1c0>
20017194:	47b1                	li	a5,12
20017196:	00f92023          	sw	a5,0(s2)
2001719a:	00c45783          	lhu	a5,12(s0)
2001719e:	0407e793          	ori	a5,a5,64
200171a2:	00f41623          	sh	a5,12(s0)
200171a6:	57fd                	li	a5,-1
200171a8:	b7ad                	j	20017112 <__sfvwrite_r+0x112>
200171aa:	80000bb7          	lui	s7,0x80000
200171ae:	ffebcc13          	xori	s8,s7,-2
200171b2:	4b01                	li	s6,0
200171b4:	4481                	li	s1,0
200171b6:	fffbcb93          	not	s7,s7
200171ba:	4c8d                	li	s9,3
200171bc:	4d09                	li	s10,2
200171be:	b771                	j	2001714a <__sfvwrite_r+0x14a>
200171c0:	480c                	lw	a1,16(s0)
200171c2:	864e                	mv	a2,s3
200171c4:	c62a                	sw	a0,12(sp)
200171c6:	22b5                	jal	20017332 <memcpy>
200171c8:	00c45703          	lhu	a4,12(s0)
200171cc:	47b2                	lw	a5,12(sp)
200171ce:	b7f77713          	andi	a4,a4,-1153
200171d2:	08076713          	ori	a4,a4,128
200171d6:	00e41623          	sh	a4,12(s0)
200171da:	c81c                	sw	a5,16(s0)
200171dc:	01b42a23          	sw	s11,20(s0)
200171e0:	97ce                	add	a5,a5,s3
200171e2:	413d8db3          	sub	s11,s11,s3
200171e6:	c01c                	sw	a5,0(s0)
200171e8:	01b42423          	sw	s11,8(s0)
200171ec:	87a6                	mv	a5,s1
200171ee:	89a6                	mv	s3,s1
200171f0:	00f4f363          	bgeu	s1,a5,200171f6 <__sfvwrite_r+0x1f6>
200171f4:	87a6                	mv	a5,s1
200171f6:	4008                	lw	a0,0(s0)
200171f8:	863e                	mv	a2,a5
200171fa:	85da                	mv	a1,s6
200171fc:	c63e                	sw	a5,12(sp)
200171fe:	22ed                	jal	200173e8 <memmove>
20017200:	4418                	lw	a4,8(s0)
20017202:	47b2                	lw	a5,12(sp)
20017204:	8f1d                	sub	a4,a4,a5
20017206:	c418                	sw	a4,8(s0)
20017208:	4018                	lw	a4,0(s0)
2001720a:	97ba                	add	a5,a5,a4
2001720c:	c01c                	sw	a5,0(s0)
2001720e:	008aa783          	lw	a5,8(s5)
20017212:	9b4e                	add	s6,s6,s3
20017214:	413484b3          	sub	s1,s1,s3
20017218:	413789b3          	sub	s3,a5,s3
2001721c:	013aa423          	sw	s3,8(s5)
20017220:	f20995e3          	bnez	s3,2001714a <__sfvwrite_r+0x14a>
20017224:	b5f5                	j	20017110 <__sfvwrite_r+0x110>
20017226:	866e                	mv	a2,s11
20017228:	854a                	mv	a0,s2
2001722a:	2c1d                	jal	20017460 <_realloc_r>
2001722c:	87aa                	mv	a5,a0
2001722e:	f555                	bnez	a0,200171da <__sfvwrite_r+0x1da>
20017230:	480c                	lw	a1,16(s0)
20017232:	854a                	mv	a0,s2
20017234:	d9bfa0ef          	jal	ra,20011fce <_free_r>
20017238:	00c45783          	lhu	a5,12(s0)
2001723c:	f7f7f793          	andi	a5,a5,-129
20017240:	00f41623          	sh	a5,12(s0)
20017244:	bf81                	j	20017194 <__sfvwrite_r+0x194>
20017246:	4818                	lw	a4,16(s0)
20017248:	00a76563          	bltu	a4,a0,20017252 <__sfvwrite_r+0x252>
2001724c:	4854                	lw	a3,20(s0)
2001724e:	02d4f763          	bgeu	s1,a3,2001727c <__sfvwrite_r+0x27c>
20017252:	89be                	mv	s3,a5
20017254:	00f4f363          	bgeu	s1,a5,2001725a <__sfvwrite_r+0x25a>
20017258:	89a6                	mv	s3,s1
2001725a:	864e                	mv	a2,s3
2001725c:	85da                	mv	a1,s6
2001725e:	2269                	jal	200173e8 <memmove>
20017260:	441c                	lw	a5,8(s0)
20017262:	4018                	lw	a4,0(s0)
20017264:	413787b3          	sub	a5,a5,s3
20017268:	974e                	add	a4,a4,s3
2001726a:	c41c                	sw	a5,8(s0)
2001726c:	c018                	sw	a4,0(s0)
2001726e:	f3c5                	bnez	a5,2001720e <__sfvwrite_r+0x20e>
20017270:	85a2                	mv	a1,s0
20017272:	854a                	mv	a0,s2
20017274:	a57fa0ef          	jal	ra,20011cca <_fflush_r>
20017278:	d959                	beqz	a0,2001720e <__sfvwrite_r+0x20e>
2001727a:	b705                	j	2001719a <__sfvwrite_r+0x19a>
2001727c:	87a6                	mv	a5,s1
2001727e:	009c7363          	bgeu	s8,s1,20017284 <__sfvwrite_r+0x284>
20017282:	87de                	mv	a5,s7
20017284:	02d7c7b3          	div	a5,a5,a3
20017288:	5058                	lw	a4,36(s0)
2001728a:	4c4c                	lw	a1,28(s0)
2001728c:	865a                	mv	a2,s6
2001728e:	854a                	mv	a0,s2
20017290:	02d786b3          	mul	a3,a5,a3
20017294:	9702                	jalr	a4
20017296:	89aa                	mv	s3,a0
20017298:	f6a04be3          	bgtz	a0,2001720e <__sfvwrite_r+0x20e>
2001729c:	bdfd                	j	2001719a <__sfvwrite_r+0x19a>
2001729e:	000a2b03          	lw	s6,0(s4)
200172a2:	004a2983          	lw	s3,4(s4)
200172a6:	4501                	li	a0,0
200172a8:	0a21                	addi	s4,s4,8
200172aa:	b375                	j	20017056 <__sfvwrite_r+0x56>
200172ac:	00dc4b63          	blt	s8,a3,200172c2 <__sfvwrite_r+0x2c2>
200172b0:	505c                	lw	a5,36(s0)
200172b2:	4c4c                	lw	a1,28(s0)
200172b4:	865a                	mv	a2,s6
200172b6:	854a                	mv	a0,s2
200172b8:	9782                	jalr	a5
200172ba:	84aa                	mv	s1,a0
200172bc:	dea044e3          	bgtz	a0,200170a4 <__sfvwrite_r+0xa4>
200172c0:	bde9                	j	2001719a <__sfvwrite_r+0x19a>
200172c2:	8662                	mv	a2,s8
200172c4:	85da                	mv	a1,s6
200172c6:	220d                	jal	200173e8 <memmove>
200172c8:	441c                	lw	a5,8(s0)
200172ca:	84e2                	mv	s1,s8
200172cc:	418787b3          	sub	a5,a5,s8
200172d0:	c41c                	sw	a5,8(s0)
200172d2:	401c                	lw	a5,0(s0)
200172d4:	97e2                	add	a5,a5,s8
200172d6:	c01c                	sw	a5,0(s0)
200172d8:	b3f1                	j	200170a4 <__sfvwrite_r+0xa4>

200172da <_isatty_r>:
200172da:	1141                	addi	sp,sp,-16
200172dc:	c422                	sw	s0,8(sp)
200172de:	842a                	mv	s0,a0
200172e0:	852e                	mv	a0,a1
200172e2:	8801a423          	sw	zero,-1912(gp) # 80001280 <errno>
200172e6:	c606                	sw	ra,12(sp)
200172e8:	28a040ef          	jal	ra,2001b572 <_isatty>
200172ec:	57fd                	li	a5,-1
200172ee:	00f51763          	bne	a0,a5,200172fc <_isatty_r+0x22>
200172f2:	88818793          	addi	a5,gp,-1912 # 80001280 <errno>
200172f6:	439c                	lw	a5,0(a5)
200172f8:	c391                	beqz	a5,200172fc <_isatty_r+0x22>
200172fa:	c01c                	sw	a5,0(s0)
200172fc:	40b2                	lw	ra,12(sp)
200172fe:	4422                	lw	s0,8(sp)
20017300:	0141                	addi	sp,sp,16
20017302:	8082                	ret

20017304 <_lseek_r>:
20017304:	1141                	addi	sp,sp,-16
20017306:	c422                	sw	s0,8(sp)
20017308:	842a                	mv	s0,a0
2001730a:	852e                	mv	a0,a1
2001730c:	85b2                	mv	a1,a2
2001730e:	8636                	mv	a2,a3
20017310:	8801a423          	sw	zero,-1912(gp) # 80001280 <errno>
20017314:	c606                	sw	ra,12(sp)
20017316:	27c040ef          	jal	ra,2001b592 <_lseek>
2001731a:	57fd                	li	a5,-1
2001731c:	00f51763          	bne	a0,a5,2001732a <_lseek_r+0x26>
20017320:	88818793          	addi	a5,gp,-1912 # 80001280 <errno>
20017324:	439c                	lw	a5,0(a5)
20017326:	c391                	beqz	a5,2001732a <_lseek_r+0x26>
20017328:	c01c                	sw	a5,0(s0)
2001732a:	40b2                	lw	ra,12(sp)
2001732c:	4422                	lw	s0,8(sp)
2001732e:	0141                	addi	sp,sp,16
20017330:	8082                	ret

20017332 <memcpy>:
20017332:	00a5c7b3          	xor	a5,a1,a0
20017336:	8b8d                	andi	a5,a5,3
20017338:	00c50733          	add	a4,a0,a2
2001733c:	e781                	bnez	a5,20017344 <memcpy+0x12>
2001733e:	478d                	li	a5,3
20017340:	00c7ee63          	bltu	a5,a2,2001735c <memcpy+0x2a>
20017344:	87aa                	mv	a5,a0
20017346:	0ae57063          	bgeu	a0,a4,200173e6 <memcpy+0xb4>
2001734a:	0005c683          	lbu	a3,0(a1)
2001734e:	0785                	addi	a5,a5,1
20017350:	0585                	addi	a1,a1,1
20017352:	fed78fa3          	sb	a3,-1(a5)
20017356:	fee7eae3          	bltu	a5,a4,2001734a <memcpy+0x18>
2001735a:	8082                	ret
2001735c:	00357693          	andi	a3,a0,3
20017360:	87aa                	mv	a5,a0
20017362:	ca91                	beqz	a3,20017376 <memcpy+0x44>
20017364:	0005c683          	lbu	a3,0(a1)
20017368:	0785                	addi	a5,a5,1
2001736a:	0585                	addi	a1,a1,1
2001736c:	fed78fa3          	sb	a3,-1(a5)
20017370:	0037f693          	andi	a3,a5,3
20017374:	b7fd                	j	20017362 <memcpy+0x30>
20017376:	ffc77693          	andi	a3,a4,-4
2001737a:	fe068613          	addi	a2,a3,-32 # 1fe0 <__heap_size+0x1be0>
2001737e:	06c7f063          	bgeu	a5,a2,200173de <memcpy+0xac>
20017382:	0005a383          	lw	t2,0(a1)
20017386:	0045a283          	lw	t0,4(a1)
2001738a:	0085af83          	lw	t6,8(a1)
2001738e:	00c5af03          	lw	t5,12(a1)
20017392:	0105ae83          	lw	t4,16(a1)
20017396:	0145ae03          	lw	t3,20(a1)
2001739a:	0185a303          	lw	t1,24(a1)
2001739e:	01c5a883          	lw	a7,28(a1)
200173a2:	02458593          	addi	a1,a1,36
200173a6:	0077a023          	sw	t2,0(a5)
200173aa:	ffc5a803          	lw	a6,-4(a1)
200173ae:	0057a223          	sw	t0,4(a5)
200173b2:	01f7a423          	sw	t6,8(a5)
200173b6:	01e7a623          	sw	t5,12(a5)
200173ba:	01d7a823          	sw	t4,16(a5)
200173be:	01c7aa23          	sw	t3,20(a5)
200173c2:	0067ac23          	sw	t1,24(a5)
200173c6:	0117ae23          	sw	a7,28(a5)
200173ca:	02478793          	addi	a5,a5,36
200173ce:	ff07ae23          	sw	a6,-4(a5)
200173d2:	b775                	j	2001737e <memcpy+0x4c>
200173d4:	4190                	lw	a2,0(a1)
200173d6:	0791                	addi	a5,a5,4
200173d8:	0591                	addi	a1,a1,4
200173da:	fec7ae23          	sw	a2,-4(a5)
200173de:	fed7ebe3          	bltu	a5,a3,200173d4 <memcpy+0xa2>
200173e2:	f6e7e4e3          	bltu	a5,a4,2001734a <memcpy+0x18>
200173e6:	8082                	ret

200173e8 <memmove>:
200173e8:	04a5f363          	bgeu	a1,a0,2001742e <memmove+0x46>
200173ec:	00c586b3          	add	a3,a1,a2
200173f0:	02d57f63          	bgeu	a0,a3,2001742e <memmove+0x46>
200173f4:	fff64593          	not	a1,a2
200173f8:	4781                	li	a5,0
200173fa:	17fd                	addi	a5,a5,-1
200173fc:	00f59363          	bne	a1,a5,20017402 <memmove+0x1a>
20017400:	8082                	ret
20017402:	00f68733          	add	a4,a3,a5
20017406:	00074803          	lbu	a6,0(a4)
2001740a:	00c78733          	add	a4,a5,a2
2001740e:	972a                	add	a4,a4,a0
20017410:	01070023          	sb	a6,0(a4)
20017414:	b7dd                	j	200173fa <memmove+0x12>
20017416:	00f58733          	add	a4,a1,a5
2001741a:	00074683          	lbu	a3,0(a4)
2001741e:	00f50733          	add	a4,a0,a5
20017422:	0785                	addi	a5,a5,1
20017424:	00d70023          	sb	a3,0(a4)
20017428:	fef617e3          	bne	a2,a5,20017416 <memmove+0x2e>
2001742c:	8082                	ret
2001742e:	4781                	li	a5,0
20017430:	bfe5                	j	20017428 <memmove+0x40>

20017432 <_read_r>:
20017432:	1141                	addi	sp,sp,-16
20017434:	c422                	sw	s0,8(sp)
20017436:	842a                	mv	s0,a0
20017438:	852e                	mv	a0,a1
2001743a:	85b2                	mv	a1,a2
2001743c:	8636                	mv	a2,a3
2001743e:	8801a423          	sw	zero,-1912(gp) # 80001280 <errno>
20017442:	c606                	sw	ra,12(sp)
20017444:	178040ef          	jal	ra,2001b5bc <_read>
20017448:	57fd                	li	a5,-1
2001744a:	00f51763          	bne	a0,a5,20017458 <_read_r+0x26>
2001744e:	88818793          	addi	a5,gp,-1912 # 80001280 <errno>
20017452:	439c                	lw	a5,0(a5)
20017454:	c391                	beqz	a5,20017458 <_read_r+0x26>
20017456:	c01c                	sw	a5,0(s0)
20017458:	40b2                	lw	ra,12(sp)
2001745a:	4422                	lw	s0,8(sp)
2001745c:	0141                	addi	sp,sp,16
2001745e:	8082                	ret

20017460 <_realloc_r>:
20017460:	7139                	addi	sp,sp,-64
20017462:	dc22                	sw	s0,56(sp)
20017464:	de06                	sw	ra,60(sp)
20017466:	842e                	mv	s0,a1
20017468:	da26                	sw	s1,52(sp)
2001746a:	d84a                	sw	s2,48(sp)
2001746c:	d64e                	sw	s3,44(sp)
2001746e:	d452                	sw	s4,40(sp)
20017470:	d256                	sw	s5,36(sp)
20017472:	d05a                	sw	s6,32(sp)
20017474:	ce5e                	sw	s7,28(sp)
20017476:	85b2                	mv	a1,a2
20017478:	ec09                	bnez	s0,20017492 <_realloc_r+0x32>
2001747a:	5462                	lw	s0,56(sp)
2001747c:	50f2                	lw	ra,60(sp)
2001747e:	54d2                	lw	s1,52(sp)
20017480:	5942                	lw	s2,48(sp)
20017482:	59b2                	lw	s3,44(sp)
20017484:	5a22                	lw	s4,40(sp)
20017486:	5a92                	lw	s5,36(sp)
20017488:	5b02                	lw	s6,32(sp)
2001748a:	4bf2                	lw	s7,28(sp)
2001748c:	6121                	addi	sp,sp,64
2001748e:	dd6fc06f          	j	20013a64 <_malloc_r>
20017492:	8aaa                	mv	s5,a0
20017494:	c632                	sw	a2,12(sp)
20017496:	bf5fc0ef          	jal	ra,2001408a <__malloc_lock>
2001749a:	45b2                	lw	a1,12(sp)
2001749c:	47d9                	li	a5,22
2001749e:	00b58993          	addi	s3,a1,11
200174a2:	0337f663          	bgeu	a5,s3,200174ce <_realloc_r+0x6e>
200174a6:	ff89fb13          	andi	s6,s3,-8
200174aa:	020b5363          	bgez	s6,200174d0 <_realloc_r+0x70>
200174ae:	47b1                	li	a5,12
200174b0:	00faa023          	sw	a5,0(s5)
200174b4:	4a01                	li	s4,0
200174b6:	50f2                	lw	ra,60(sp)
200174b8:	5462                	lw	s0,56(sp)
200174ba:	8552                	mv	a0,s4
200174bc:	54d2                	lw	s1,52(sp)
200174be:	5942                	lw	s2,48(sp)
200174c0:	59b2                	lw	s3,44(sp)
200174c2:	5a22                	lw	s4,40(sp)
200174c4:	5a92                	lw	s5,36(sp)
200174c6:	5b02                	lw	s6,32(sp)
200174c8:	4bf2                	lw	s7,28(sp)
200174ca:	6121                	addi	sp,sp,64
200174cc:	8082                	ret
200174ce:	4b41                	li	s6,16
200174d0:	fcbb6fe3          	bltu	s6,a1,200174ae <_realloc_r+0x4e>
200174d4:	ffc42683          	lw	a3,-4(s0)
200174d8:	ff840b93          	addi	s7,s0,-8
200174dc:	ffc6f913          	andi	s2,a3,-4
200174e0:	31695563          	bge	s2,s6,200177ea <_realloc_r+0x38a>
200174e4:	5ffe9717          	auipc	a4,0x5ffe9
200174e8:	0b070713          	addi	a4,a4,176 # 80000594 <__malloc_av_>
200174ec:	4710                	lw	a2,8(a4)
200174ee:	012b87b3          	add	a5,s7,s2
200174f2:	43d8                	lw	a4,4(a5)
200174f4:	00f60863          	beq	a2,a5,20017504 <_realloc_r+0xa4>
200174f8:	ffe77513          	andi	a0,a4,-2
200174fc:	953e                	add	a0,a0,a5
200174fe:	4148                	lw	a0,4(a0)
20017500:	8905                	andi	a0,a0,1
20017502:	e931                	bnez	a0,20017556 <_realloc_r+0xf6>
20017504:	9b71                	andi	a4,a4,-4
20017506:	00e909b3          	add	s3,s2,a4
2001750a:	02f61e63          	bne	a2,a5,20017546 <_realloc_r+0xe6>
2001750e:	010b0513          	addi	a0,s6,16 # 80000010 <metal_segment_heap_target_end+0xffffc010>
20017512:	04a9c463          	blt	s3,a0,2001755a <_realloc_r+0xfa>
20017516:	9bda                	add	s7,s7,s6
20017518:	416989b3          	sub	s3,s3,s6
2001751c:	5ffe9797          	auipc	a5,0x5ffe9
20017520:	0977a023          	sw	s7,128(a5) # 8000059c <__malloc_av_+0x8>
20017524:	0019e993          	ori	s3,s3,1
20017528:	013ba223          	sw	s3,4(s7) # 80000004 <metal_segment_heap_target_end+0xffffc004>
2001752c:	ffc42983          	lw	s3,-4(s0)
20017530:	8556                	mv	a0,s5
20017532:	8a22                	mv	s4,s0
20017534:	0019f993          	andi	s3,s3,1
20017538:	0169e9b3          	or	s3,s3,s6
2001753c:	ff342e23          	sw	s3,-4(s0)
20017540:	b4dfc0ef          	jal	ra,2001408c <__malloc_unlock>
20017544:	bf8d                	j	200174b6 <_realloc_r+0x56>
20017546:	0169ca63          	blt	s3,s6,2001755a <_realloc_r+0xfa>
2001754a:	47d8                	lw	a4,12(a5)
2001754c:	479c                	lw	a5,8(a5)
2001754e:	c7d8                	sw	a4,12(a5)
20017550:	c71c                	sw	a5,8(a4)
20017552:	84de                	mv	s1,s7
20017554:	aa21                	j	2001766c <_realloc_r+0x20c>
20017556:	4701                	li	a4,0
20017558:	4781                	li	a5,0
2001755a:	8a85                	andi	a3,a3,1
2001755c:	1e069963          	bnez	a3,2001774e <_realloc_r+0x2ee>
20017560:	ff842483          	lw	s1,-8(s0)
20017564:	409b84b3          	sub	s1,s7,s1
20017568:	0044aa03          	lw	s4,4(s1)
2001756c:	ffca7a13          	andi	s4,s4,-4
20017570:	9a4a                	add	s4,s4,s2
20017572:	16078463          	beqz	a5,200176da <_realloc_r+0x27a>
20017576:	014709b3          	add	s3,a4,s4
2001757a:	0af61463          	bne	a2,a5,20017622 <_realloc_r+0x1c2>
2001757e:	010b0793          	addi	a5,s6,16
20017582:	14f9cc63          	blt	s3,a5,200176da <_realloc_r+0x27a>
20017586:	4498                	lw	a4,8(s1)
20017588:	44dc                	lw	a5,12(s1)
2001758a:	ffc90613          	addi	a2,s2,-4
2001758e:	00848a13          	addi	s4,s1,8
20017592:	c75c                	sw	a5,12(a4)
20017594:	c798                	sw	a4,8(a5)
20017596:	02400713          	li	a4,36
2001759a:	06c76f63          	bltu	a4,a2,20017618 <_realloc_r+0x1b8>
2001759e:	46cd                	li	a3,19
200175a0:	87d2                	mv	a5,s4
200175a2:	00c6fc63          	bgeu	a3,a2,200175ba <_realloc_r+0x15a>
200175a6:	401c                	lw	a5,0(s0)
200175a8:	c49c                	sw	a5,8(s1)
200175aa:	405c                	lw	a5,4(s0)
200175ac:	c4dc                	sw	a5,12(s1)
200175ae:	47ed                	li	a5,27
200175b0:	04c7e163          	bltu	a5,a2,200175f2 <_realloc_r+0x192>
200175b4:	0421                	addi	s0,s0,8
200175b6:	01048793          	addi	a5,s1,16
200175ba:	4018                	lw	a4,0(s0)
200175bc:	c398                	sw	a4,0(a5)
200175be:	4058                	lw	a4,4(s0)
200175c0:	c3d8                	sw	a4,4(a5)
200175c2:	4418                	lw	a4,8(s0)
200175c4:	c798                	sw	a4,8(a5)
200175c6:	016487b3          	add	a5,s1,s6
200175ca:	416989b3          	sub	s3,s3,s6
200175ce:	5ffe9717          	auipc	a4,0x5ffe9
200175d2:	fcf72723          	sw	a5,-50(a4) # 8000059c <__malloc_av_+0x8>
200175d6:	0019e993          	ori	s3,s3,1
200175da:	0137a223          	sw	s3,4(a5)
200175de:	40dc                	lw	a5,4(s1)
200175e0:	8b85                	andi	a5,a5,1
200175e2:	0167e9b3          	or	s3,a5,s6
200175e6:	0134a223          	sw	s3,4(s1)
200175ea:	8556                	mv	a0,s5
200175ec:	aa1fc0ef          	jal	ra,2001408c <__malloc_unlock>
200175f0:	b5d9                	j	200174b6 <_realloc_r+0x56>
200175f2:	441c                	lw	a5,8(s0)
200175f4:	c89c                	sw	a5,16(s1)
200175f6:	445c                	lw	a5,12(s0)
200175f8:	c8dc                	sw	a5,20(s1)
200175fa:	00e60663          	beq	a2,a4,20017606 <_realloc_r+0x1a6>
200175fe:	0441                	addi	s0,s0,16
20017600:	01848793          	addi	a5,s1,24
20017604:	bf5d                	j	200175ba <_realloc_r+0x15a>
20017606:	481c                	lw	a5,16(s0)
20017608:	0461                	addi	s0,s0,24
2001760a:	cc9c                	sw	a5,24(s1)
2001760c:	ffc42703          	lw	a4,-4(s0)
20017610:	02048793          	addi	a5,s1,32
20017614:	ccd8                	sw	a4,28(s1)
20017616:	b755                	j	200175ba <_realloc_r+0x15a>
20017618:	85a2                	mv	a1,s0
2001761a:	8552                	mv	a0,s4
2001761c:	dcdff0ef          	jal	ra,200173e8 <memmove>
20017620:	b75d                	j	200175c6 <_realloc_r+0x166>
20017622:	0b69cc63          	blt	s3,s6,200176da <_realloc_r+0x27a>
20017626:	47d8                	lw	a4,12(a5)
20017628:	479c                	lw	a5,8(a5)
2001762a:	ffc90613          	addi	a2,s2,-4
2001762e:	00848513          	addi	a0,s1,8
20017632:	c7d8                	sw	a4,12(a5)
20017634:	c71c                	sw	a5,8(a4)
20017636:	4498                	lw	a4,8(s1)
20017638:	44dc                	lw	a5,12(s1)
2001763a:	c75c                	sw	a5,12(a4)
2001763c:	c798                	sw	a4,8(a5)
2001763e:	02400793          	li	a5,36
20017642:	08c7e863          	bltu	a5,a2,200176d2 <_realloc_r+0x272>
20017646:	474d                	li	a4,19
20017648:	00c77c63          	bgeu	a4,a2,20017660 <_realloc_r+0x200>
2001764c:	4018                	lw	a4,0(s0)
2001764e:	c498                	sw	a4,8(s1)
20017650:	4058                	lw	a4,4(s0)
20017652:	c4d8                	sw	a4,12(s1)
20017654:	476d                	li	a4,27
20017656:	04c76b63          	bltu	a4,a2,200176ac <_realloc_r+0x24c>
2001765a:	0421                	addi	s0,s0,8
2001765c:	01048513          	addi	a0,s1,16
20017660:	401c                	lw	a5,0(s0)
20017662:	c11c                	sw	a5,0(a0)
20017664:	405c                	lw	a5,4(s0)
20017666:	c15c                	sw	a5,4(a0)
20017668:	441c                	lw	a5,8(s0)
2001766a:	c51c                	sw	a5,8(a0)
2001766c:	40d8                	lw	a4,4(s1)
2001766e:	416986b3          	sub	a3,s3,s6
20017672:	463d                	li	a2,15
20017674:	8b05                	andi	a4,a4,1
20017676:	013487b3          	add	a5,s1,s3
2001767a:	16d67a63          	bgeu	a2,a3,200177ee <_realloc_r+0x38e>
2001767e:	00eb69b3          	or	s3,s6,a4
20017682:	0134a223          	sw	s3,4(s1)
20017686:	016485b3          	add	a1,s1,s6
2001768a:	0016e693          	ori	a3,a3,1
2001768e:	c1d4                	sw	a3,4(a1)
20017690:	43d8                	lw	a4,4(a5)
20017692:	05a1                	addi	a1,a1,8
20017694:	8556                	mv	a0,s5
20017696:	00176713          	ori	a4,a4,1
2001769a:	c3d8                	sw	a4,4(a5)
2001769c:	933fa0ef          	jal	ra,20011fce <_free_r>
200176a0:	8556                	mv	a0,s5
200176a2:	9ebfc0ef          	jal	ra,2001408c <__malloc_unlock>
200176a6:	00848a13          	addi	s4,s1,8
200176aa:	b531                	j	200174b6 <_realloc_r+0x56>
200176ac:	4418                	lw	a4,8(s0)
200176ae:	c898                	sw	a4,16(s1)
200176b0:	4458                	lw	a4,12(s0)
200176b2:	c8d8                	sw	a4,20(s1)
200176b4:	00f60663          	beq	a2,a5,200176c0 <_realloc_r+0x260>
200176b8:	0441                	addi	s0,s0,16
200176ba:	01848513          	addi	a0,s1,24
200176be:	b74d                	j	20017660 <_realloc_r+0x200>
200176c0:	481c                	lw	a5,16(s0)
200176c2:	02048513          	addi	a0,s1,32
200176c6:	0461                	addi	s0,s0,24
200176c8:	cc9c                	sw	a5,24(s1)
200176ca:	ffc42783          	lw	a5,-4(s0)
200176ce:	ccdc                	sw	a5,28(s1)
200176d0:	bf41                	j	20017660 <_realloc_r+0x200>
200176d2:	85a2                	mv	a1,s0
200176d4:	d15ff0ef          	jal	ra,200173e8 <memmove>
200176d8:	bf51                	j	2001766c <_realloc_r+0x20c>
200176da:	076a4a63          	blt	s4,s6,2001774e <_realloc_r+0x2ee>
200176de:	44dc                	lw	a5,12(s1)
200176e0:	4498                	lw	a4,8(s1)
200176e2:	ffc90613          	addi	a2,s2,-4
200176e6:	00848513          	addi	a0,s1,8
200176ea:	c75c                	sw	a5,12(a4)
200176ec:	c798                	sw	a4,8(a5)
200176ee:	02400793          	li	a5,36
200176f2:	04c7ea63          	bltu	a5,a2,20017746 <_realloc_r+0x2e6>
200176f6:	474d                	li	a4,19
200176f8:	00c77c63          	bgeu	a4,a2,20017710 <_realloc_r+0x2b0>
200176fc:	4018                	lw	a4,0(s0)
200176fe:	c498                	sw	a4,8(s1)
20017700:	4058                	lw	a4,4(s0)
20017702:	c4d8                	sw	a4,12(s1)
20017704:	476d                	li	a4,27
20017706:	00c76d63          	bltu	a4,a2,20017720 <_realloc_r+0x2c0>
2001770a:	0421                	addi	s0,s0,8
2001770c:	01048513          	addi	a0,s1,16
20017710:	401c                	lw	a5,0(s0)
20017712:	c11c                	sw	a5,0(a0)
20017714:	405c                	lw	a5,4(s0)
20017716:	c15c                	sw	a5,4(a0)
20017718:	441c                	lw	a5,8(s0)
2001771a:	c51c                	sw	a5,8(a0)
2001771c:	89d2                	mv	s3,s4
2001771e:	b7b9                	j	2001766c <_realloc_r+0x20c>
20017720:	4418                	lw	a4,8(s0)
20017722:	c898                	sw	a4,16(s1)
20017724:	4458                	lw	a4,12(s0)
20017726:	c8d8                	sw	a4,20(s1)
20017728:	00f60663          	beq	a2,a5,20017734 <_realloc_r+0x2d4>
2001772c:	0441                	addi	s0,s0,16
2001772e:	01848513          	addi	a0,s1,24
20017732:	bff9                	j	20017710 <_realloc_r+0x2b0>
20017734:	481c                	lw	a5,16(s0)
20017736:	02048513          	addi	a0,s1,32
2001773a:	0461                	addi	s0,s0,24
2001773c:	cc9c                	sw	a5,24(s1)
2001773e:	ffc42783          	lw	a5,-4(s0)
20017742:	ccdc                	sw	a5,28(s1)
20017744:	b7f1                	j	20017710 <_realloc_r+0x2b0>
20017746:	85a2                	mv	a1,s0
20017748:	ca1ff0ef          	jal	ra,200173e8 <memmove>
2001774c:	bfc1                	j	2001771c <_realloc_r+0x2bc>
2001774e:	8556                	mv	a0,s5
20017750:	b14fc0ef          	jal	ra,20013a64 <_malloc_r>
20017754:	8a2a                	mv	s4,a0
20017756:	e8050ae3          	beqz	a0,200175ea <_realloc_r+0x18a>
2001775a:	ffc42783          	lw	a5,-4(s0)
2001775e:	ff850713          	addi	a4,a0,-8
20017762:	9bf9                	andi	a5,a5,-2
20017764:	97de                	add	a5,a5,s7
20017766:	00e79863          	bne	a5,a4,20017776 <_realloc_r+0x316>
2001776a:	ffc52983          	lw	s3,-4(a0)
2001776e:	ffc9f993          	andi	s3,s3,-4
20017772:	99ca                	add	s3,s3,s2
20017774:	bbf9                	j	20017552 <_realloc_r+0xf2>
20017776:	ffc90613          	addi	a2,s2,-4
2001777a:	02400793          	li	a5,36
2001777e:	06c7e263          	bltu	a5,a2,200177e2 <_realloc_r+0x382>
20017782:	474d                	li	a4,19
20017784:	04c77c63          	bgeu	a4,a2,200177dc <_realloc_r+0x37c>
20017788:	4018                	lw	a4,0(s0)
2001778a:	c118                	sw	a4,0(a0)
2001778c:	4058                	lw	a4,4(s0)
2001778e:	c158                	sw	a4,4(a0)
20017790:	476d                	li	a4,27
20017792:	02c76163          	bltu	a4,a2,200177b4 <_realloc_r+0x354>
20017796:	00840713          	addi	a4,s0,8
2001779a:	00850793          	addi	a5,a0,8
2001779e:	4314                	lw	a3,0(a4)
200177a0:	c394                	sw	a3,0(a5)
200177a2:	4354                	lw	a3,4(a4)
200177a4:	c3d4                	sw	a3,4(a5)
200177a6:	4718                	lw	a4,8(a4)
200177a8:	c798                	sw	a4,8(a5)
200177aa:	85a2                	mv	a1,s0
200177ac:	8556                	mv	a0,s5
200177ae:	821fa0ef          	jal	ra,20011fce <_free_r>
200177b2:	bd25                	j	200175ea <_realloc_r+0x18a>
200177b4:	4418                	lw	a4,8(s0)
200177b6:	c518                	sw	a4,8(a0)
200177b8:	4458                	lw	a4,12(s0)
200177ba:	c558                	sw	a4,12(a0)
200177bc:	00f60763          	beq	a2,a5,200177ca <_realloc_r+0x36a>
200177c0:	01040713          	addi	a4,s0,16
200177c4:	01050793          	addi	a5,a0,16
200177c8:	bfd9                	j	2001779e <_realloc_r+0x33e>
200177ca:	481c                	lw	a5,16(s0)
200177cc:	01840713          	addi	a4,s0,24
200177d0:	c91c                	sw	a5,16(a0)
200177d2:	4854                	lw	a3,20(s0)
200177d4:	01850793          	addi	a5,a0,24
200177d8:	c954                	sw	a3,20(a0)
200177da:	b7d1                	j	2001779e <_realloc_r+0x33e>
200177dc:	87aa                	mv	a5,a0
200177de:	8722                	mv	a4,s0
200177e0:	bf7d                	j	2001779e <_realloc_r+0x33e>
200177e2:	85a2                	mv	a1,s0
200177e4:	c05ff0ef          	jal	ra,200173e8 <memmove>
200177e8:	b7c9                	j	200177aa <_realloc_r+0x34a>
200177ea:	89ca                	mv	s3,s2
200177ec:	b39d                	j	20017552 <_realloc_r+0xf2>
200177ee:	00e9e9b3          	or	s3,s3,a4
200177f2:	0134a223          	sw	s3,4(s1)
200177f6:	43d8                	lw	a4,4(a5)
200177f8:	00176713          	ori	a4,a4,1
200177fc:	c3d8                	sw	a4,4(a5)
200177fe:	b54d                	j	200176a0 <_realloc_r+0x240>

20017800 <__ssprint_r>:
20017800:	461c                	lw	a5,8(a2)
20017802:	7179                	addi	sp,sp,-48
20017804:	ce4e                	sw	s3,28(sp)
20017806:	d606                	sw	ra,44(sp)
20017808:	d422                	sw	s0,40(sp)
2001780a:	d226                	sw	s1,36(sp)
2001780c:	d04a                	sw	s2,32(sp)
2001780e:	cc52                	sw	s4,24(sp)
20017810:	ca56                	sw	s5,20(sp)
20017812:	c85a                	sw	s6,16(sp)
20017814:	c65e                	sw	s7,12(sp)
20017816:	c462                	sw	s8,8(sp)
20017818:	c266                	sw	s9,4(sp)
2001781a:	c06a                	sw	s10,0(sp)
2001781c:	89b2                	mv	s3,a2
2001781e:	cff9                	beqz	a5,200178fc <__ssprint_r+0xfc>
20017820:	00062a83          	lw	s5,0(a2)
20017824:	8a2a                	mv	s4,a0
20017826:	842e                	mv	s0,a1
20017828:	4b01                	li	s6,0
2001782a:	4901                	li	s2,0
2001782c:	4b8d                	li	s7,3
2001782e:	4c09                	li	s8,2
20017830:	06090263          	beqz	s2,20017894 <__ssprint_r+0x94>
20017834:	00842d03          	lw	s10,8(s0)
20017838:	09a96a63          	bltu	s2,s10,200178cc <__ssprint_r+0xcc>
2001783c:	00c45783          	lhu	a5,12(s0)
20017840:	4807f713          	andi	a4,a5,1152
20017844:	c741                	beqz	a4,200178cc <__ssprint_r+0xcc>
20017846:	4004                	lw	s1,0(s0)
20017848:	480c                	lw	a1,16(s0)
2001784a:	40b48cb3          	sub	s9,s1,a1
2001784e:	4844                	lw	s1,20(s0)
20017850:	001c8713          	addi	a4,s9,1
20017854:	974a                	add	a4,a4,s2
20017856:	029b84b3          	mul	s1,s7,s1
2001785a:	0384c4b3          	div	s1,s1,s8
2001785e:	00e4f363          	bgeu	s1,a4,20017864 <__ssprint_r+0x64>
20017862:	84ba                	mv	s1,a4
20017864:	4007f793          	andi	a5,a5,1024
20017868:	cbdd                	beqz	a5,2001791e <__ssprint_r+0x11e>
2001786a:	85a6                	mv	a1,s1
2001786c:	8552                	mv	a0,s4
2001786e:	9f6fc0ef          	jal	ra,20013a64 <_malloc_r>
20017872:	8d2a                	mv	s10,a0
20017874:	e515                	bnez	a0,200178a0 <__ssprint_r+0xa0>
20017876:	47b1                	li	a5,12
20017878:	00fa2023          	sw	a5,0(s4)
2001787c:	00c45783          	lhu	a5,12(s0)
20017880:	557d                	li	a0,-1
20017882:	0407e793          	ori	a5,a5,64
20017886:	00f41623          	sh	a5,12(s0)
2001788a:	0009a423          	sw	zero,8(s3)
2001788e:	0009a223          	sw	zero,4(s3)
20017892:	a885                	j	20017902 <__ssprint_r+0x102>
20017894:	000aab03          	lw	s6,0(s5)
20017898:	004aa903          	lw	s2,4(s5)
2001789c:	0aa1                	addi	s5,s5,8
2001789e:	bf49                	j	20017830 <__ssprint_r+0x30>
200178a0:	480c                	lw	a1,16(s0)
200178a2:	8666                	mv	a2,s9
200178a4:	a8fff0ef          	jal	ra,20017332 <memcpy>
200178a8:	00c45783          	lhu	a5,12(s0)
200178ac:	b7f7f793          	andi	a5,a5,-1153
200178b0:	0807e793          	ori	a5,a5,128
200178b4:	00f41623          	sh	a5,12(s0)
200178b8:	01a42823          	sw	s10,16(s0)
200178bc:	c844                	sw	s1,20(s0)
200178be:	9d66                	add	s10,s10,s9
200178c0:	419484b3          	sub	s1,s1,s9
200178c4:	01a42023          	sw	s10,0(s0)
200178c8:	c404                	sw	s1,8(s0)
200178ca:	8d4a                	mv	s10,s2
200178cc:	01a97363          	bgeu	s2,s10,200178d2 <__ssprint_r+0xd2>
200178d0:	8d4a                	mv	s10,s2
200178d2:	4008                	lw	a0,0(s0)
200178d4:	866a                	mv	a2,s10
200178d6:	85da                	mv	a1,s6
200178d8:	b11ff0ef          	jal	ra,200173e8 <memmove>
200178dc:	441c                	lw	a5,8(s0)
200178de:	41a787b3          	sub	a5,a5,s10
200178e2:	c41c                	sw	a5,8(s0)
200178e4:	401c                	lw	a5,0(s0)
200178e6:	9d3e                	add	s10,s10,a5
200178e8:	0089a783          	lw	a5,8(s3)
200178ec:	01a42023          	sw	s10,0(s0)
200178f0:	41278933          	sub	s2,a5,s2
200178f4:	0129a423          	sw	s2,8(s3)
200178f8:	f8091ee3          	bnez	s2,20017894 <__ssprint_r+0x94>
200178fc:	0009a223          	sw	zero,4(s3)
20017900:	4501                	li	a0,0
20017902:	50b2                	lw	ra,44(sp)
20017904:	5422                	lw	s0,40(sp)
20017906:	5492                	lw	s1,36(sp)
20017908:	5902                	lw	s2,32(sp)
2001790a:	49f2                	lw	s3,28(sp)
2001790c:	4a62                	lw	s4,24(sp)
2001790e:	4ad2                	lw	s5,20(sp)
20017910:	4b42                	lw	s6,16(sp)
20017912:	4bb2                	lw	s7,12(sp)
20017914:	4c22                	lw	s8,8(sp)
20017916:	4c92                	lw	s9,4(sp)
20017918:	4d02                	lw	s10,0(sp)
2001791a:	6145                	addi	sp,sp,48
2001791c:	8082                	ret
2001791e:	8626                	mv	a2,s1
20017920:	8552                	mv	a0,s4
20017922:	b3fff0ef          	jal	ra,20017460 <_realloc_r>
20017926:	8d2a                	mv	s10,a0
20017928:	f941                	bnez	a0,200178b8 <__ssprint_r+0xb8>
2001792a:	480c                	lw	a1,16(s0)
2001792c:	8552                	mv	a0,s4
2001792e:	ea0fa0ef          	jal	ra,20011fce <_free_r>
20017932:	b791                	j	20017876 <__ssprint_r+0x76>

20017934 <_svfiprintf_r>:
20017934:	00c5d783          	lhu	a5,12(a1)
20017938:	712d                	addi	sp,sp,-288
2001793a:	10912a23          	sw	s1,276(sp)
2001793e:	11212823          	sw	s2,272(sp)
20017942:	11412423          	sw	s4,264(sp)
20017946:	11512223          	sw	s5,260(sp)
2001794a:	10112e23          	sw	ra,284(sp)
2001794e:	10812c23          	sw	s0,280(sp)
20017952:	11312623          	sw	s3,268(sp)
20017956:	11612023          	sw	s6,256(sp)
2001795a:	dfde                	sw	s7,252(sp)
2001795c:	dde2                	sw	s8,248(sp)
2001795e:	dbe6                	sw	s9,244(sp)
20017960:	d9ea                	sw	s10,240(sp)
20017962:	d7ee                	sw	s11,236(sp)
20017964:	0807f793          	andi	a5,a5,128
20017968:	8a2a                	mv	s4,a0
2001796a:	892e                	mv	s2,a1
2001796c:	8ab2                	mv	s5,a2
2001796e:	84b6                	mv	s1,a3
20017970:	c795                	beqz	a5,2001799c <_svfiprintf_r+0x68>
20017972:	499c                	lw	a5,16(a1)
20017974:	e785                	bnez	a5,2001799c <_svfiprintf_r+0x68>
20017976:	04000593          	li	a1,64
2001797a:	8eafc0ef          	jal	ra,20013a64 <_malloc_r>
2001797e:	00a92023          	sw	a0,0(s2)
20017982:	00a92823          	sw	a0,16(s2)
20017986:	e519                	bnez	a0,20017994 <_svfiprintf_r+0x60>
20017988:	47b1                	li	a5,12
2001798a:	00fa2023          	sw	a5,0(s4)
2001798e:	5bfd                	li	s7,-1
20017990:	7be0006f          	j	2001814e <_svfiprintf_r+0x81a>
20017994:	04000793          	li	a5,64
20017998:	00f92a23          	sw	a5,20(s2)
2001799c:	03c10b13          	addi	s6,sp,60
200179a0:	d85a                	sw	s6,48(sp)
200179a2:	dc02                	sw	zero,56(sp)
200179a4:	da02                	sw	zero,52(sp)
200179a6:	875a                	mv	a4,s6
200179a8:	c602                	sw	zero,12(sp)
200179aa:	c202                	sw	zero,4(sp)
200179ac:	c402                	sw	zero,8(sp)
200179ae:	c802                	sw	zero,16(sp)
200179b0:	4b81                	li	s7,0
200179b2:	8456                	mv	s0,s5
200179b4:	02500693          	li	a3,37
200179b8:	00044783          	lbu	a5,0(s0)
200179bc:	c399                	beqz	a5,200179c2 <_svfiprintf_r+0x8e>
200179be:	06d79d63          	bne	a5,a3,20017a38 <_svfiprintf_r+0x104>
200179c2:	415409b3          	sub	s3,s0,s5
200179c6:	02098863          	beqz	s3,200179f6 <_svfiprintf_r+0xc2>
200179ca:	57e2                	lw	a5,56(sp)
200179cc:	01572023          	sw	s5,0(a4)
200179d0:	01372223          	sw	s3,4(a4)
200179d4:	97ce                	add	a5,a5,s3
200179d6:	dc3e                	sw	a5,56(sp)
200179d8:	57d2                	lw	a5,52(sp)
200179da:	469d                	li	a3,7
200179dc:	0721                	addi	a4,a4,8
200179de:	0785                	addi	a5,a5,1
200179e0:	da3e                	sw	a5,52(sp)
200179e2:	00f6d963          	bge	a3,a5,200179f4 <_svfiprintf_r+0xc0>
200179e6:	1810                	addi	a2,sp,48
200179e8:	85ca                	mv	a1,s2
200179ea:	8552                	mv	a0,s4
200179ec:	3d11                	jal	20017800 <__ssprint_r>
200179ee:	74051a63          	bnez	a0,20018142 <_svfiprintf_r+0x80e>
200179f2:	875a                	mv	a4,s6
200179f4:	9bce                	add	s7,s7,s3
200179f6:	00044783          	lbu	a5,0(s0)
200179fa:	7a078363          	beqz	a5,200181a0 <_svfiprintf_r+0x86c>
200179fe:	00140693          	addi	a3,s0,1
20017a02:	020105a3          	sb	zero,43(sp)
20017a06:	547d                	li	s0,-1
20017a08:	4981                	li	s3,0
20017a0a:	4d01                	li	s10,0
20017a0c:	4c25                	li	s8,9
20017a0e:	02a00c93          	li	s9,42
20017a12:	0006c603          	lbu	a2,0(a3)
20017a16:	00168a93          	addi	s5,a3,1
20017a1a:	05a00513          	li	a0,90
20017a1e:	fe060693          	addi	a3,a2,-32
20017a22:	64d56663          	bltu	a0,a3,2001806e <_svfiprintf_r+0x73a>
20017a26:	00007797          	auipc	a5,0x7
20017a2a:	b7678793          	addi	a5,a5,-1162 # 2001e59c <_ctype_+0x104>
20017a2e:	068a                	slli	a3,a3,0x2
20017a30:	96be                	add	a3,a3,a5
20017a32:	4294                	lw	a3,0(a3)
20017a34:	96be                	add	a3,a3,a5
20017a36:	8682                	jr	a3
20017a38:	0405                	addi	s0,s0,1
20017a3a:	bfbd                	j	200179b8 <_svfiprintf_r+0x84>
20017a3c:	00006797          	auipc	a5,0x6
20017a40:	36478793          	addi	a5,a5,868 # 2001dda0 <zeroes.4514+0x20>
20017a44:	c63e                	sw	a5,12(sp)
20017a46:	020d7693          	andi	a3,s10,32
20017a4a:	4c068563          	beqz	a3,20017f14 <_svfiprintf_r+0x5e0>
20017a4e:	049d                	addi	s1,s1,7
20017a50:	98e1                	andi	s1,s1,-8
20017a52:	0004ad83          	lw	s11,0(s1)
20017a56:	0044ac83          	lw	s9,4(s1)
20017a5a:	00848c13          	addi	s8,s1,8
20017a5e:	001d7693          	andi	a3,s10,1
20017a62:	ce81                	beqz	a3,20017a7a <_svfiprintf_r+0x146>
20017a64:	019de6b3          	or	a3,s11,s9
20017a68:	ca89                	beqz	a3,20017a7a <_svfiprintf_r+0x146>
20017a6a:	03000693          	li	a3,48
20017a6e:	02d10623          	sb	a3,44(sp)
20017a72:	02c106a3          	sb	a2,45(sp)
20017a76:	002d6d13          	ori	s10,s10,2
20017a7a:	bffd7d13          	andi	s10,s10,-1025
20017a7e:	ac91                	j	20017cd2 <_svfiprintf_r+0x39e>
20017a80:	8552                	mv	a0,s4
20017a82:	c03a                	sw	a4,0(sp)
20017a84:	dfffb0ef          	jal	ra,20013882 <_localeconv_r>
20017a88:	415c                	lw	a5,4(a0)
20017a8a:	853e                	mv	a0,a5
20017a8c:	c83e                	sw	a5,16(sp)
20017a8e:	a5efd0ef          	jal	ra,20014cec <strlen>
20017a92:	c42a                	sw	a0,8(sp)
20017a94:	8552                	mv	a0,s4
20017a96:	dedfb0ef          	jal	ra,20013882 <_localeconv_r>
20017a9a:	451c                	lw	a5,8(a0)
20017a9c:	4702                	lw	a4,0(sp)
20017a9e:	c23e                	sw	a5,4(sp)
20017aa0:	47a2                	lw	a5,8(sp)
20017aa2:	cb81                	beqz	a5,20017ab2 <_svfiprintf_r+0x17e>
20017aa4:	4792                	lw	a5,4(sp)
20017aa6:	c791                	beqz	a5,20017ab2 <_svfiprintf_r+0x17e>
20017aa8:	0007c683          	lbu	a3,0(a5)
20017aac:	c299                	beqz	a3,20017ab2 <_svfiprintf_r+0x17e>
20017aae:	400d6d13          	ori	s10,s10,1024
20017ab2:	86d6                	mv	a3,s5
20017ab4:	bfb9                	j	20017a12 <_svfiprintf_r+0xde>
20017ab6:	02b14683          	lbu	a3,43(sp)
20017aba:	fee5                	bnez	a3,20017ab2 <_svfiprintf_r+0x17e>
20017abc:	02000693          	li	a3,32
20017ac0:	02d105a3          	sb	a3,43(sp)
20017ac4:	b7fd                	j	20017ab2 <_svfiprintf_r+0x17e>
20017ac6:	001d6d13          	ori	s10,s10,1
20017aca:	b7e5                	j	20017ab2 <_svfiprintf_r+0x17e>
20017acc:	0004a983          	lw	s3,0(s1)
20017ad0:	0491                	addi	s1,s1,4
20017ad2:	fe09d0e3          	bgez	s3,20017ab2 <_svfiprintf_r+0x17e>
20017ad6:	413009b3          	neg	s3,s3
20017ada:	004d6d13          	ori	s10,s10,4
20017ade:	bfd1                	j	20017ab2 <_svfiprintf_r+0x17e>
20017ae0:	02b00693          	li	a3,43
20017ae4:	bff1                	j	20017ac0 <_svfiprintf_r+0x18c>
20017ae6:	000ac603          	lbu	a2,0(s5)
20017aea:	001a8693          	addi	a3,s5,1
20017aee:	03961863          	bne	a2,s9,20017b1e <_svfiprintf_r+0x1ea>
20017af2:	4080                	lw	s0,0(s1)
20017af4:	00448613          	addi	a2,s1,4
20017af8:	00045363          	bgez	s0,20017afe <_svfiprintf_r+0x1ca>
20017afc:	547d                	li	s0,-1
20017afe:	84b2                	mv	s1,a2
20017b00:	8ab6                	mv	s5,a3
20017b02:	bf45                	j	20017ab2 <_svfiprintf_r+0x17e>
20017b04:	47a9                	li	a5,10
20017b06:	02f40433          	mul	s0,s0,a5
20017b0a:	0685                	addi	a3,a3,1
20017b0c:	fff6c603          	lbu	a2,-1(a3)
20017b10:	942e                	add	s0,s0,a1
20017b12:	fd060593          	addi	a1,a2,-48
20017b16:	febc77e3          	bgeu	s8,a1,20017b04 <_svfiprintf_r+0x1d0>
20017b1a:	8ab6                	mv	s5,a3
20017b1c:	b709                	j	20017a1e <_svfiprintf_r+0xea>
20017b1e:	4401                	li	s0,0
20017b20:	bfcd                	j	20017b12 <_svfiprintf_r+0x1de>
20017b22:	080d6d13          	ori	s10,s10,128
20017b26:	b771                	j	20017ab2 <_svfiprintf_r+0x17e>
20017b28:	86d6                	mv	a3,s5
20017b2a:	4981                	li	s3,0
20017b2c:	47a9                	li	a5,10
20017b2e:	02f989b3          	mul	s3,s3,a5
20017b32:	fd060613          	addi	a2,a2,-48
20017b36:	0685                	addi	a3,a3,1
20017b38:	99b2                	add	s3,s3,a2
20017b3a:	fff6c603          	lbu	a2,-1(a3)
20017b3e:	fd060593          	addi	a1,a2,-48
20017b42:	febc75e3          	bgeu	s8,a1,20017b2c <_svfiprintf_r+0x1f8>
20017b46:	bfd1                	j	20017b1a <_svfiprintf_r+0x1e6>
20017b48:	000ac603          	lbu	a2,0(s5)
20017b4c:	06800693          	li	a3,104
20017b50:	00d61663          	bne	a2,a3,20017b5c <_svfiprintf_r+0x228>
20017b54:	0a85                	addi	s5,s5,1
20017b56:	200d6d13          	ori	s10,s10,512
20017b5a:	bfa1                	j	20017ab2 <_svfiprintf_r+0x17e>
20017b5c:	040d6d13          	ori	s10,s10,64
20017b60:	bf89                	j	20017ab2 <_svfiprintf_r+0x17e>
20017b62:	000ac603          	lbu	a2,0(s5)
20017b66:	06c00693          	li	a3,108
20017b6a:	00d61663          	bne	a2,a3,20017b76 <_svfiprintf_r+0x242>
20017b6e:	0a85                	addi	s5,s5,1
20017b70:	020d6d13          	ori	s10,s10,32
20017b74:	bf3d                	j	20017ab2 <_svfiprintf_r+0x17e>
20017b76:	010d6d13          	ori	s10,s10,16
20017b7a:	bf25                	j	20017ab2 <_svfiprintf_r+0x17e>
20017b7c:	4094                	lw	a3,0(s1)
20017b7e:	00448c13          	addi	s8,s1,4
20017b82:	020105a3          	sb	zero,43(sp)
20017b86:	06d10e23          	sb	a3,124(sp)
20017b8a:	4405                	li	s0,1
20017b8c:	4c81                	li	s9,0
20017b8e:	18e4                	addi	s1,sp,124
20017b90:	a2b5                	j	20017cfc <_svfiprintf_r+0x3c8>
20017b92:	010d6d13          	ori	s10,s10,16
20017b96:	020d7693          	andi	a3,s10,32
20017b9a:	caa9                	beqz	a3,20017bec <_svfiprintf_r+0x2b8>
20017b9c:	049d                	addi	s1,s1,7
20017b9e:	98e1                	andi	s1,s1,-8
20017ba0:	0004ad83          	lw	s11,0(s1)
20017ba4:	0044ac83          	lw	s9,4(s1)
20017ba8:	00848c13          	addi	s8,s1,8
20017bac:	600cd263          	bgez	s9,200181b0 <_svfiprintf_r+0x87c>
20017bb0:	41b00333          	neg	t1,s11
20017bb4:	006036b3          	snez	a3,t1
20017bb8:	41900833          	neg	a6,s9
20017bbc:	40d80cb3          	sub	s9,a6,a3
20017bc0:	02d00693          	li	a3,45
20017bc4:	02d105a3          	sb	a3,43(sp)
20017bc8:	8d9a                	mv	s11,t1
20017bca:	4685                	li	a3,1
20017bcc:	567d                	li	a2,-1
20017bce:	36c40b63          	beq	s0,a2,20017f44 <_svfiprintf_r+0x610>
20017bd2:	866a                	mv	a2,s10
20017bd4:	019de5b3          	or	a1,s11,s9
20017bd8:	f7fd7d13          	andi	s10,s10,-129
20017bdc:	36059463          	bnez	a1,20017f44 <_svfiprintf_r+0x610>
20017be0:	46040e63          	beqz	s0,2001805c <_svfiprintf_r+0x728>
20017be4:	4605                	li	a2,1
20017be6:	36c69263          	bne	a3,a2,20017f4a <_svfiprintf_r+0x616>
20017bea:	abd9                	j	200181c0 <_svfiprintf_r+0x88c>
20017bec:	010d7693          	andi	a3,s10,16
20017bf0:	00448c13          	addi	s8,s1,4
20017bf4:	c691                	beqz	a3,20017c00 <_svfiprintf_r+0x2cc>
20017bf6:	0004ad83          	lw	s11,0(s1)
20017bfa:	41fddc93          	srai	s9,s11,0x1f
20017bfe:	b77d                	j	20017bac <_svfiprintf_r+0x278>
20017c00:	040d7693          	andi	a3,s10,64
20017c04:	0004a303          	lw	t1,0(s1)
20017c08:	c691                	beqz	a3,20017c14 <_svfiprintf_r+0x2e0>
20017c0a:	01031d93          	slli	s11,t1,0x10
20017c0e:	410ddd93          	srai	s11,s11,0x10
20017c12:	b7e5                	j	20017bfa <_svfiprintf_r+0x2c6>
20017c14:	200d7693          	andi	a3,s10,512
20017c18:	8d9a                	mv	s11,t1
20017c1a:	d2e5                	beqz	a3,20017bfa <_svfiprintf_r+0x2c6>
20017c1c:	01831d93          	slli	s11,t1,0x18
20017c20:	418ddd93          	srai	s11,s11,0x18
20017c24:	bfd9                	j	20017bfa <_svfiprintf_r+0x2c6>
20017c26:	020d7613          	andi	a2,s10,32
20017c2a:	4094                	lw	a3,0(s1)
20017c2c:	0491                	addi	s1,s1,4
20017c2e:	c619                	beqz	a2,20017c3c <_svfiprintf_r+0x308>
20017c30:	41fbd793          	srai	a5,s7,0x1f
20017c34:	0176a023          	sw	s7,0(a3)
20017c38:	c2dc                	sw	a5,4(a3)
20017c3a:	bba5                	j	200179b2 <_svfiprintf_r+0x7e>
20017c3c:	010d7613          	andi	a2,s10,16
20017c40:	c601                	beqz	a2,20017c48 <_svfiprintf_r+0x314>
20017c42:	0176a023          	sw	s7,0(a3)
20017c46:	b3b5                	j	200179b2 <_svfiprintf_r+0x7e>
20017c48:	040d7613          	andi	a2,s10,64
20017c4c:	c601                	beqz	a2,20017c54 <_svfiprintf_r+0x320>
20017c4e:	01769023          	sh	s7,0(a3)
20017c52:	b385                	j	200179b2 <_svfiprintf_r+0x7e>
20017c54:	200d7793          	andi	a5,s10,512
20017c58:	d7ed                	beqz	a5,20017c42 <_svfiprintf_r+0x30e>
20017c5a:	01768023          	sb	s7,0(a3)
20017c5e:	bb91                	j	200179b2 <_svfiprintf_r+0x7e>
20017c60:	010d6d13          	ori	s10,s10,16
20017c64:	020d7693          	andi	a3,s10,32
20017c68:	ce99                	beqz	a3,20017c86 <_svfiprintf_r+0x352>
20017c6a:	049d                	addi	s1,s1,7
20017c6c:	98e1                	andi	s1,s1,-8
20017c6e:	0004ad83          	lw	s11,0(s1)
20017c72:	0044ac83          	lw	s9,4(s1)
20017c76:	00848c13          	addi	s8,s1,8
20017c7a:	bffd7d13          	andi	s10,s10,-1025
20017c7e:	4681                	li	a3,0
20017c80:	020105a3          	sb	zero,43(sp)
20017c84:	b7a1                	j	20017bcc <_svfiprintf_r+0x298>
20017c86:	010d7693          	andi	a3,s10,16
20017c8a:	00448c13          	addi	s8,s1,4
20017c8e:	c681                	beqz	a3,20017c96 <_svfiprintf_r+0x362>
20017c90:	0004ad83          	lw	s11,0(s1)
20017c94:	a031                	j	20017ca0 <_svfiprintf_r+0x36c>
20017c96:	040d7693          	andi	a3,s10,64
20017c9a:	c689                	beqz	a3,20017ca4 <_svfiprintf_r+0x370>
20017c9c:	0004dd83          	lhu	s11,0(s1)
20017ca0:	4c81                	li	s9,0
20017ca2:	bfe1                	j	20017c7a <_svfiprintf_r+0x346>
20017ca4:	200d7693          	andi	a3,s10,512
20017ca8:	d6e5                	beqz	a3,20017c90 <_svfiprintf_r+0x35c>
20017caa:	0004cd83          	lbu	s11,0(s1)
20017cae:	bfcd                	j	20017ca0 <_svfiprintf_r+0x36c>
20017cb0:	76e1                	lui	a3,0xffff8
20017cb2:	0004ad83          	lw	s11,0(s1)
20017cb6:	8306c693          	xori	a3,a3,-2000
20017cba:	00006797          	auipc	a5,0x6
20017cbe:	0e678793          	addi	a5,a5,230 # 2001dda0 <zeroes.4514+0x20>
20017cc2:	00448c13          	addi	s8,s1,4
20017cc6:	4c81                	li	s9,0
20017cc8:	002d6d13          	ori	s10,s10,2
20017ccc:	02d11623          	sh	a3,44(sp)
20017cd0:	c63e                	sw	a5,12(sp)
20017cd2:	4689                	li	a3,2
20017cd4:	b775                	j	20017c80 <_svfiprintf_r+0x34c>
20017cd6:	020105a3          	sb	zero,43(sp)
20017cda:	56fd                	li	a3,-1
20017cdc:	c03a                	sw	a4,0(sp)
20017cde:	00448c13          	addi	s8,s1,4
20017ce2:	4084                	lw	s1,0(s1)
20017ce4:	1cd40863          	beq	s0,a3,20017eb4 <_svfiprintf_r+0x580>
20017ce8:	8622                	mv	a2,s0
20017cea:	4581                	li	a1,0
20017cec:	8526                	mv	a0,s1
20017cee:	adafc0ef          	jal	ra,20013fc8 <memchr>
20017cf2:	4c81                	li	s9,0
20017cf4:	4702                	lw	a4,0(sp)
20017cf6:	c119                	beqz	a0,20017cfc <_svfiprintf_r+0x3c8>
20017cf8:	40950433          	sub	s0,a0,s1
20017cfc:	c066                	sw	s9,0(sp)
20017cfe:	008cd363          	bge	s9,s0,20017d04 <_svfiprintf_r+0x3d0>
20017d02:	c022                	sw	s0,0(sp)
20017d04:	02b14683          	lbu	a3,43(sp)
20017d08:	c681                	beqz	a3,20017d10 <_svfiprintf_r+0x3dc>
20017d0a:	4782                	lw	a5,0(sp)
20017d0c:	0785                	addi	a5,a5,1
20017d0e:	c03e                	sw	a5,0(sp)
20017d10:	002d7d93          	andi	s11,s10,2
20017d14:	000d8563          	beqz	s11,20017d1e <_svfiprintf_r+0x3ea>
20017d18:	4782                	lw	a5,0(sp)
20017d1a:	0789                	addi	a5,a5,2
20017d1c:	c03e                	sw	a5,0(sp)
20017d1e:	084d7793          	andi	a5,s10,132
20017d22:	ca3e                	sw	a5,20(sp)
20017d24:	e7a1                	bnez	a5,20017d6c <_svfiprintf_r+0x438>
20017d26:	4782                	lw	a5,0(sp)
20017d28:	40f986b3          	sub	a3,s3,a5
20017d2c:	04d05063          	blez	a3,20017d6c <_svfiprintf_r+0x438>
20017d30:	48c1                	li	a7,16
20017d32:	00007817          	auipc	a6,0x7
20017d36:	9d680813          	addi	a6,a6,-1578 # 2001e708 <blanks.4475>
20017d3a:	431d                	li	t1,7
20017d3c:	5652                	lw	a2,52(sp)
20017d3e:	01072023          	sw	a6,0(a4)
20017d42:	55e2                	lw	a1,56(sp)
20017d44:	0605                	addi	a2,a2,1
20017d46:	00870513          	addi	a0,a4,8
20017d4a:	32d8ca63          	blt	a7,a3,2001807e <_svfiprintf_r+0x74a>
20017d4e:	c354                	sw	a3,4(a4)
20017d50:	96ae                	add	a3,a3,a1
20017d52:	dc36                	sw	a3,56(sp)
20017d54:	da32                	sw	a2,52(sp)
20017d56:	469d                	li	a3,7
20017d58:	872a                	mv	a4,a0
20017d5a:	00c6d963          	bge	a3,a2,20017d6c <_svfiprintf_r+0x438>
20017d5e:	1810                	addi	a2,sp,48
20017d60:	85ca                	mv	a1,s2
20017d62:	8552                	mv	a0,s4
20017d64:	3c71                	jal	20017800 <__ssprint_r>
20017d66:	3c051e63          	bnez	a0,20018142 <_svfiprintf_r+0x80e>
20017d6a:	875a                	mv	a4,s6
20017d6c:	02b14683          	lbu	a3,43(sp)
20017d70:	c69d                	beqz	a3,20017d9e <_svfiprintf_r+0x46a>
20017d72:	02b10613          	addi	a2,sp,43
20017d76:	c310                	sw	a2,0(a4)
20017d78:	4605                	li	a2,1
20017d7a:	56d2                	lw	a3,52(sp)
20017d7c:	c350                	sw	a2,4(a4)
20017d7e:	5662                	lw	a2,56(sp)
20017d80:	0685                	addi	a3,a3,1
20017d82:	da36                	sw	a3,52(sp)
20017d84:	0605                	addi	a2,a2,1
20017d86:	dc32                	sw	a2,56(sp)
20017d88:	461d                	li	a2,7
20017d8a:	0721                	addi	a4,a4,8
20017d8c:	00d65963          	bge	a2,a3,20017d9e <_svfiprintf_r+0x46a>
20017d90:	1810                	addi	a2,sp,48
20017d92:	85ca                	mv	a1,s2
20017d94:	8552                	mv	a0,s4
20017d96:	34ad                	jal	20017800 <__ssprint_r>
20017d98:	3a051563          	bnez	a0,20018142 <_svfiprintf_r+0x80e>
20017d9c:	875a                	mv	a4,s6
20017d9e:	020d8763          	beqz	s11,20017dcc <_svfiprintf_r+0x498>
20017da2:	1070                	addi	a2,sp,44
20017da4:	c310                	sw	a2,0(a4)
20017da6:	4609                	li	a2,2
20017da8:	56d2                	lw	a3,52(sp)
20017daa:	c350                	sw	a2,4(a4)
20017dac:	5662                	lw	a2,56(sp)
20017dae:	0685                	addi	a3,a3,1
20017db0:	da36                	sw	a3,52(sp)
20017db2:	0609                	addi	a2,a2,2
20017db4:	dc32                	sw	a2,56(sp)
20017db6:	461d                	li	a2,7
20017db8:	0721                	addi	a4,a4,8
20017dba:	00d65963          	bge	a2,a3,20017dcc <_svfiprintf_r+0x498>
20017dbe:	1810                	addi	a2,sp,48
20017dc0:	85ca                	mv	a1,s2
20017dc2:	8552                	mv	a0,s4
20017dc4:	3c35                	jal	20017800 <__ssprint_r>
20017dc6:	36051e63          	bnez	a0,20018142 <_svfiprintf_r+0x80e>
20017dca:	875a                	mv	a4,s6
20017dcc:	47d2                	lw	a5,20(sp)
20017dce:	08000693          	li	a3,128
20017dd2:	04d79663          	bne	a5,a3,20017e1e <_svfiprintf_r+0x4ea>
20017dd6:	4782                	lw	a5,0(sp)
20017dd8:	40f98db3          	sub	s11,s3,a5
20017ddc:	05b05163          	blez	s11,20017e1e <_svfiprintf_r+0x4ea>
20017de0:	48c1                	li	a7,16
20017de2:	00007817          	auipc	a6,0x7
20017de6:	93680813          	addi	a6,a6,-1738 # 2001e718 <zeroes.4476>
20017dea:	431d                	li	t1,7
20017dec:	56d2                	lw	a3,52(sp)
20017dee:	01072023          	sw	a6,0(a4)
20017df2:	5662                	lw	a2,56(sp)
20017df4:	0685                	addi	a3,a3,1
20017df6:	00870593          	addi	a1,a4,8
20017dfa:	2bb8cb63          	blt	a7,s11,200180b0 <_svfiprintf_r+0x77c>
20017dfe:	01b72223          	sw	s11,4(a4)
20017e02:	9db2                	add	s11,s11,a2
20017e04:	dc6e                	sw	s11,56(sp)
20017e06:	da36                	sw	a3,52(sp)
20017e08:	461d                	li	a2,7
20017e0a:	872e                	mv	a4,a1
20017e0c:	00d65963          	bge	a2,a3,20017e1e <_svfiprintf_r+0x4ea>
20017e10:	1810                	addi	a2,sp,48
20017e12:	85ca                	mv	a1,s2
20017e14:	8552                	mv	a0,s4
20017e16:	32ed                	jal	20017800 <__ssprint_r>
20017e18:	32051563          	bnez	a0,20018142 <_svfiprintf_r+0x80e>
20017e1c:	875a                	mv	a4,s6
20017e1e:	408c8cb3          	sub	s9,s9,s0
20017e22:	05905163          	blez	s9,20017e64 <_svfiprintf_r+0x530>
20017e26:	4841                	li	a6,16
20017e28:	00007d97          	auipc	s11,0x7
20017e2c:	8f0d8d93          	addi	s11,s11,-1808 # 2001e718 <zeroes.4476>
20017e30:	489d                	li	a7,7
20017e32:	56d2                	lw	a3,52(sp)
20017e34:	01b72023          	sw	s11,0(a4)
20017e38:	5662                	lw	a2,56(sp)
20017e3a:	0685                	addi	a3,a3,1
20017e3c:	00870593          	addi	a1,a4,8
20017e40:	29984f63          	blt	a6,s9,200180de <_svfiprintf_r+0x7aa>
20017e44:	01972223          	sw	s9,4(a4)
20017e48:	9cb2                	add	s9,s9,a2
20017e4a:	dc66                	sw	s9,56(sp)
20017e4c:	da36                	sw	a3,52(sp)
20017e4e:	461d                	li	a2,7
20017e50:	872e                	mv	a4,a1
20017e52:	00d65963          	bge	a2,a3,20017e64 <_svfiprintf_r+0x530>
20017e56:	1810                	addi	a2,sp,48
20017e58:	85ca                	mv	a1,s2
20017e5a:	8552                	mv	a0,s4
20017e5c:	3255                	jal	20017800 <__ssprint_r>
20017e5e:	2e051263          	bnez	a0,20018142 <_svfiprintf_r+0x80e>
20017e62:	875a                	mv	a4,s6
20017e64:	56e2                	lw	a3,56(sp)
20017e66:	c340                	sw	s0,4(a4)
20017e68:	c304                	sw	s1,0(a4)
20017e6a:	9436                	add	s0,s0,a3
20017e6c:	56d2                	lw	a3,52(sp)
20017e6e:	dc22                	sw	s0,56(sp)
20017e70:	461d                	li	a2,7
20017e72:	0685                	addi	a3,a3,1
20017e74:	da36                	sw	a3,52(sp)
20017e76:	0721                	addi	a4,a4,8
20017e78:	00d65963          	bge	a2,a3,20017e8a <_svfiprintf_r+0x556>
20017e7c:	1810                	addi	a2,sp,48
20017e7e:	85ca                	mv	a1,s2
20017e80:	8552                	mv	a0,s4
20017e82:	3abd                	jal	20017800 <__ssprint_r>
20017e84:	2a051f63          	bnez	a0,20018142 <_svfiprintf_r+0x80e>
20017e88:	875a                	mv	a4,s6
20017e8a:	004d7793          	andi	a5,s10,4
20017e8e:	26079b63          	bnez	a5,20018104 <_svfiprintf_r+0x7d0>
20017e92:	4782                	lw	a5,0(sp)
20017e94:	00f9d363          	bge	s3,a5,20017e9a <_svfiprintf_r+0x566>
20017e98:	89be                	mv	s3,a5
20017e9a:	57e2                	lw	a5,56(sp)
20017e9c:	9bce                	add	s7,s7,s3
20017e9e:	c799                	beqz	a5,20017eac <_svfiprintf_r+0x578>
20017ea0:	1810                	addi	a2,sp,48
20017ea2:	85ca                	mv	a1,s2
20017ea4:	8552                	mv	a0,s4
20017ea6:	3aa9                	jal	20017800 <__ssprint_r>
20017ea8:	28051d63          	bnez	a0,20018142 <_svfiprintf_r+0x80e>
20017eac:	da02                	sw	zero,52(sp)
20017eae:	84e2                	mv	s1,s8
20017eb0:	875a                	mv	a4,s6
20017eb2:	b601                	j	200179b2 <_svfiprintf_r+0x7e>
20017eb4:	8526                	mv	a0,s1
20017eb6:	e37fc0ef          	jal	ra,20014cec <strlen>
20017eba:	842a                	mv	s0,a0
20017ebc:	4c81                	li	s9,0
20017ebe:	4702                	lw	a4,0(sp)
20017ec0:	bd35                	j	20017cfc <_svfiprintf_r+0x3c8>
20017ec2:	010d6d13          	ori	s10,s10,16
20017ec6:	020d7693          	andi	a3,s10,32
20017eca:	ca99                	beqz	a3,20017ee0 <_svfiprintf_r+0x5ac>
20017ecc:	049d                	addi	s1,s1,7
20017ece:	98e1                	andi	s1,s1,-8
20017ed0:	0004ad83          	lw	s11,0(s1)
20017ed4:	0044ac83          	lw	s9,4(s1)
20017ed8:	00848c13          	addi	s8,s1,8
20017edc:	4685                	li	a3,1
20017ede:	b34d                	j	20017c80 <_svfiprintf_r+0x34c>
20017ee0:	010d7693          	andi	a3,s10,16
20017ee4:	00448c13          	addi	s8,s1,4
20017ee8:	c681                	beqz	a3,20017ef0 <_svfiprintf_r+0x5bc>
20017eea:	0004ad83          	lw	s11,0(s1)
20017eee:	a031                	j	20017efa <_svfiprintf_r+0x5c6>
20017ef0:	040d7693          	andi	a3,s10,64
20017ef4:	c689                	beqz	a3,20017efe <_svfiprintf_r+0x5ca>
20017ef6:	0004dd83          	lhu	s11,0(s1)
20017efa:	4c81                	li	s9,0
20017efc:	b7c5                	j	20017edc <_svfiprintf_r+0x5a8>
20017efe:	200d7693          	andi	a3,s10,512
20017f02:	d6e5                	beqz	a3,20017eea <_svfiprintf_r+0x5b6>
20017f04:	0004cd83          	lbu	s11,0(s1)
20017f08:	bfcd                	j	20017efa <_svfiprintf_r+0x5c6>
20017f0a:	00006797          	auipc	a5,0x6
20017f0e:	eaa78793          	addi	a5,a5,-342 # 2001ddb4 <zeroes.4514+0x34>
20017f12:	be0d                	j	20017a44 <_svfiprintf_r+0x110>
20017f14:	010d7693          	andi	a3,s10,16
20017f18:	00448c13          	addi	s8,s1,4
20017f1c:	c681                	beqz	a3,20017f24 <_svfiprintf_r+0x5f0>
20017f1e:	0004ad83          	lw	s11,0(s1)
20017f22:	a031                	j	20017f2e <_svfiprintf_r+0x5fa>
20017f24:	040d7693          	andi	a3,s10,64
20017f28:	c689                	beqz	a3,20017f32 <_svfiprintf_r+0x5fe>
20017f2a:	0004dd83          	lhu	s11,0(s1)
20017f2e:	4c81                	li	s9,0
20017f30:	b63d                	j	20017a5e <_svfiprintf_r+0x12a>
20017f32:	200d7693          	andi	a3,s10,512
20017f36:	d6e5                	beqz	a3,20017f1e <_svfiprintf_r+0x5ea>
20017f38:	0004cd83          	lbu	s11,0(s1)
20017f3c:	bfcd                	j	20017f2e <_svfiprintf_r+0x5fa>
20017f3e:	866a                	mv	a2,s10
20017f40:	4685                	li	a3,1
20017f42:	b949                	j	20017bd4 <_svfiprintf_r+0x2a0>
20017f44:	4605                	li	a2,1
20017f46:	26c68863          	beq	a3,a2,200181b6 <_svfiprintf_r+0x882>
20017f4a:	4609                	li	a2,2
20017f4c:	0ec68263          	beq	a3,a2,20018030 <_svfiprintf_r+0x6fc>
20017f50:	1194                	addi	a3,sp,224
20017f52:	01dc9593          	slli	a1,s9,0x1d
20017f56:	007df613          	andi	a2,s11,7
20017f5a:	003dd313          	srli	t1,s11,0x3
20017f5e:	03060613          	addi	a2,a2,48
20017f62:	0065edb3          	or	s11,a1,t1
20017f66:	003cdc93          	srli	s9,s9,0x3
20017f6a:	fec68fa3          	sb	a2,-1(a3) # ffff7fff <metal_segment_heap_target_end+0x7fff3fff>
20017f6e:	019de5b3          	or	a1,s11,s9
20017f72:	fff68493          	addi	s1,a3,-1
20017f76:	e18d                	bnez	a1,20017f98 <_svfiprintf_r+0x664>
20017f78:	001d7593          	andi	a1,s10,1
20017f7c:	c989                	beqz	a1,20017f8e <_svfiprintf_r+0x65a>
20017f7e:	03000593          	li	a1,48
20017f82:	00b60663          	beq	a2,a1,20017f8e <_svfiprintf_r+0x65a>
20017f86:	feb48fa3          	sb	a1,-1(s1)
20017f8a:	ffe68493          	addi	s1,a3,-2
20017f8e:	119c                	addi	a5,sp,224
20017f90:	8ca2                	mv	s9,s0
20017f92:	40978433          	sub	s0,a5,s1
20017f96:	b39d                	j	20017cfc <_svfiprintf_r+0x3c8>
20017f98:	86a6                	mv	a3,s1
20017f9a:	bf65                	j	20017f52 <_svfiprintf_r+0x61e>
20017f9c:	400d7793          	andi	a5,s10,1024
20017fa0:	4881                	li	a7,0
20017fa2:	0e010e13          	addi	t3,sp,224
20017fa6:	c03e                	sw	a5,0(sp)
20017fa8:	4629                	li	a2,10
20017faa:	4681                	li	a3,0
20017fac:	856e                	mv	a0,s11
20017fae:	85e6                	mv	a1,s9
20017fb0:	ce46                	sw	a7,28(sp)
20017fb2:	cc3a                	sw	a4,24(sp)
20017fb4:	fffe0493          	addi	s1,t3,-1
20017fb8:	ca72                	sw	t3,20(sp)
20017fba:	2575                	jal	20018666 <__umoddi3>
20017fbc:	4e52                	lw	t3,20(sp)
20017fbe:	48f2                	lw	a7,28(sp)
20017fc0:	4782                	lw	a5,0(sp)
20017fc2:	03050513          	addi	a0,a0,48
20017fc6:	feae0fa3          	sb	a0,-1(t3)
20017fca:	0885                	addi	a7,a7,1
20017fcc:	4762                	lw	a4,24(sp)
20017fce:	cf9d                	beqz	a5,2001800c <_svfiprintf_r+0x6d8>
20017fd0:	4792                	lw	a5,4(sp)
20017fd2:	0007c683          	lbu	a3,0(a5)
20017fd6:	03169b63          	bne	a3,a7,2001800c <_svfiprintf_r+0x6d8>
20017fda:	0ff00793          	li	a5,255
20017fde:	02f88763          	beq	a7,a5,2001800c <_svfiprintf_r+0x6d8>
20017fe2:	000c9563          	bnez	s9,20017fec <_svfiprintf_r+0x6b8>
20017fe6:	47a5                	li	a5,9
20017fe8:	03b7f263          	bgeu	a5,s11,2001800c <_svfiprintf_r+0x6d8>
20017fec:	47a2                	lw	a5,8(sp)
20017fee:	45c2                	lw	a1,16(sp)
20017ff0:	ca3a                	sw	a4,20(sp)
20017ff2:	8c9d                	sub	s1,s1,a5
20017ff4:	863e                	mv	a2,a5
20017ff6:	8526                	mv	a0,s1
20017ff8:	d07fc0ef          	jal	ra,20014cfe <strncpy>
20017ffc:	4792                	lw	a5,4(sp)
20017ffe:	4881                	li	a7,0
20018000:	4752                	lw	a4,20(sp)
20018002:	0017c683          	lbu	a3,1(a5)
20018006:	c299                	beqz	a3,2001800c <_svfiprintf_r+0x6d8>
20018008:	0785                	addi	a5,a5,1
2001800a:	c23e                	sw	a5,4(sp)
2001800c:	4629                	li	a2,10
2001800e:	4681                	li	a3,0
20018010:	856e                	mv	a0,s11
20018012:	85e6                	mv	a1,s9
20018014:	cc46                	sw	a7,24(sp)
20018016:	ca3a                	sw	a4,20(sp)
20018018:	2cc5                	jal	20018308 <__udivdi3>
2001801a:	4752                	lw	a4,20(sp)
2001801c:	48e2                	lw	a7,24(sp)
2001801e:	000c9563          	bnez	s9,20018028 <_svfiprintf_r+0x6f4>
20018022:	47a5                	li	a5,9
20018024:	f7b7f5e3          	bgeu	a5,s11,20017f8e <_svfiprintf_r+0x65a>
20018028:	8daa                	mv	s11,a0
2001802a:	8cae                	mv	s9,a1
2001802c:	8e26                	mv	t3,s1
2001802e:	bfad                	j	20017fa8 <_svfiprintf_r+0x674>
20018030:	1184                	addi	s1,sp,224
20018032:	47b2                	lw	a5,12(sp)
20018034:	00fdf693          	andi	a3,s11,15
20018038:	14fd                	addi	s1,s1,-1
2001803a:	96be                	add	a3,a3,a5
2001803c:	0006c683          	lbu	a3,0(a3)
20018040:	004dd313          	srli	t1,s11,0x4
20018044:	00d48023          	sb	a3,0(s1)
20018048:	01cc9693          	slli	a3,s9,0x1c
2001804c:	0066edb3          	or	s11,a3,t1
20018050:	004cdc93          	srli	s9,s9,0x4
20018054:	019de6b3          	or	a3,s11,s9
20018058:	fee9                	bnez	a3,20018032 <_svfiprintf_r+0x6fe>
2001805a:	bf15                	j	20017f8e <_svfiprintf_r+0x65a>
2001805c:	1184                	addi	s1,sp,224
2001805e:	fa85                	bnez	a3,20017f8e <_svfiprintf_r+0x65a>
20018060:	8a05                	andi	a2,a2,1
20018062:	d615                	beqz	a2,20017f8e <_svfiprintf_r+0x65a>
20018064:	03000693          	li	a3,48
20018068:	0cd10fa3          	sb	a3,223(sp)
2001806c:	aab1                	j	200181c8 <_svfiprintf_r+0x894>
2001806e:	12060963          	beqz	a2,200181a0 <_svfiprintf_r+0x86c>
20018072:	06c10e23          	sb	a2,124(sp)
20018076:	020105a3          	sb	zero,43(sp)
2001807a:	8c26                	mv	s8,s1
2001807c:	b639                	j	20017b8a <_svfiprintf_r+0x256>
2001807e:	05c1                	addi	a1,a1,16
20018080:	01172223          	sw	a7,4(a4)
20018084:	dc2e                	sw	a1,56(sp)
20018086:	da32                	sw	a2,52(sp)
20018088:	02c35163          	bge	t1,a2,200180aa <_svfiprintf_r+0x776>
2001808c:	1810                	addi	a2,sp,48
2001808e:	85ca                	mv	a1,s2
20018090:	8552                	mv	a0,s4
20018092:	cc36                	sw	a3,24(sp)
20018094:	f6cff0ef          	jal	ra,20017800 <__ssprint_r>
20018098:	e54d                	bnez	a0,20018142 <_svfiprintf_r+0x80e>
2001809a:	46e2                	lw	a3,24(sp)
2001809c:	855a                	mv	a0,s6
2001809e:	431d                	li	t1,7
200180a0:	00006817          	auipc	a6,0x6
200180a4:	66880813          	addi	a6,a6,1640 # 2001e708 <blanks.4475>
200180a8:	48c1                	li	a7,16
200180aa:	16c1                	addi	a3,a3,-16
200180ac:	872a                	mv	a4,a0
200180ae:	b179                	j	20017d3c <_svfiprintf_r+0x408>
200180b0:	0641                	addi	a2,a2,16
200180b2:	01172223          	sw	a7,4(a4)
200180b6:	dc32                	sw	a2,56(sp)
200180b8:	da36                	sw	a3,52(sp)
200180ba:	00d35f63          	bge	t1,a3,200180d8 <_svfiprintf_r+0x7a4>
200180be:	1810                	addi	a2,sp,48
200180c0:	85ca                	mv	a1,s2
200180c2:	8552                	mv	a0,s4
200180c4:	f3cff0ef          	jal	ra,20017800 <__ssprint_r>
200180c8:	ed2d                	bnez	a0,20018142 <_svfiprintf_r+0x80e>
200180ca:	85da                	mv	a1,s6
200180cc:	431d                	li	t1,7
200180ce:	00006817          	auipc	a6,0x6
200180d2:	64a80813          	addi	a6,a6,1610 # 2001e718 <zeroes.4476>
200180d6:	48c1                	li	a7,16
200180d8:	1dc1                	addi	s11,s11,-16
200180da:	872e                	mv	a4,a1
200180dc:	bb01                	j	20017dec <_svfiprintf_r+0x4b8>
200180de:	0641                	addi	a2,a2,16
200180e0:	01072223          	sw	a6,4(a4)
200180e4:	dc32                	sw	a2,56(sp)
200180e6:	da36                	sw	a3,52(sp)
200180e8:	00d8db63          	bge	a7,a3,200180fe <_svfiprintf_r+0x7ca>
200180ec:	1810                	addi	a2,sp,48
200180ee:	85ca                	mv	a1,s2
200180f0:	8552                	mv	a0,s4
200180f2:	f0eff0ef          	jal	ra,20017800 <__ssprint_r>
200180f6:	e531                	bnez	a0,20018142 <_svfiprintf_r+0x80e>
200180f8:	85da                	mv	a1,s6
200180fa:	489d                	li	a7,7
200180fc:	4841                	li	a6,16
200180fe:	1cc1                	addi	s9,s9,-16
20018100:	872e                	mv	a4,a1
20018102:	bb05                	j	20017e32 <_svfiprintf_r+0x4fe>
20018104:	4782                	lw	a5,0(sp)
20018106:	40f98433          	sub	s0,s3,a5
2001810a:	d88054e3          	blez	s0,20017e92 <_svfiprintf_r+0x55e>
2001810e:	4cc1                	li	s9,16
20018110:	00006497          	auipc	s1,0x6
20018114:	5f848493          	addi	s1,s1,1528 # 2001e708 <blanks.4475>
20018118:	4d9d                	li	s11,7
2001811a:	57d2                	lw	a5,52(sp)
2001811c:	c304                	sw	s1,0(a4)
2001811e:	56e2                	lw	a3,56(sp)
20018120:	0785                	addi	a5,a5,1
20018122:	048cce63          	blt	s9,s0,2001817e <_svfiprintf_r+0x84a>
20018126:	96a2                	add	a3,a3,s0
20018128:	c340                	sw	s0,4(a4)
2001812a:	dc36                	sw	a3,56(sp)
2001812c:	da3e                	sw	a5,52(sp)
2001812e:	471d                	li	a4,7
20018130:	d6f751e3          	bge	a4,a5,20017e92 <_svfiprintf_r+0x55e>
20018134:	1810                	addi	a2,sp,48
20018136:	85ca                	mv	a1,s2
20018138:	8552                	mv	a0,s4
2001813a:	ec6ff0ef          	jal	ra,20017800 <__ssprint_r>
2001813e:	d4050ae3          	beqz	a0,20017e92 <_svfiprintf_r+0x55e>
20018142:	00c95783          	lhu	a5,12(s2)
20018146:	0407f793          	andi	a5,a5,64
2001814a:	840792e3          	bnez	a5,2001798e <_svfiprintf_r+0x5a>
2001814e:	11c12083          	lw	ra,284(sp)
20018152:	11812403          	lw	s0,280(sp)
20018156:	855e                	mv	a0,s7
20018158:	11412483          	lw	s1,276(sp)
2001815c:	11012903          	lw	s2,272(sp)
20018160:	10c12983          	lw	s3,268(sp)
20018164:	10812a03          	lw	s4,264(sp)
20018168:	10412a83          	lw	s5,260(sp)
2001816c:	10012b03          	lw	s6,256(sp)
20018170:	5bfe                	lw	s7,252(sp)
20018172:	5c6e                	lw	s8,248(sp)
20018174:	5cde                	lw	s9,244(sp)
20018176:	5d4e                	lw	s10,240(sp)
20018178:	5dbe                	lw	s11,236(sp)
2001817a:	6115                	addi	sp,sp,288
2001817c:	8082                	ret
2001817e:	06c1                	addi	a3,a3,16
20018180:	01972223          	sw	s9,4(a4)
20018184:	dc36                	sw	a3,56(sp)
20018186:	da3e                	sw	a5,52(sp)
20018188:	0721                	addi	a4,a4,8
2001818a:	00fdd963          	bge	s11,a5,2001819c <_svfiprintf_r+0x868>
2001818e:	1810                	addi	a2,sp,48
20018190:	85ca                	mv	a1,s2
20018192:	8552                	mv	a0,s4
20018194:	e6cff0ef          	jal	ra,20017800 <__ssprint_r>
20018198:	f54d                	bnez	a0,20018142 <_svfiprintf_r+0x80e>
2001819a:	875a                	mv	a4,s6
2001819c:	1441                	addi	s0,s0,-16
2001819e:	bfb5                	j	2001811a <_svfiprintf_r+0x7e6>
200181a0:	57e2                	lw	a5,56(sp)
200181a2:	d3c5                	beqz	a5,20018142 <_svfiprintf_r+0x80e>
200181a4:	1810                	addi	a2,sp,48
200181a6:	85ca                	mv	a1,s2
200181a8:	8552                	mv	a0,s4
200181aa:	e56ff0ef          	jal	ra,20017800 <__ssprint_r>
200181ae:	bf51                	j	20018142 <_svfiprintf_r+0x80e>
200181b0:	56fd                	li	a3,-1
200181b2:	d8d416e3          	bne	s0,a3,20017f3e <_svfiprintf_r+0x60a>
200181b6:	de0c93e3          	bnez	s9,20017f9c <_svfiprintf_r+0x668>
200181ba:	46a5                	li	a3,9
200181bc:	dfb6e0e3          	bltu	a3,s11,20017f9c <_svfiprintf_r+0x668>
200181c0:	030d8313          	addi	t1,s11,48
200181c4:	0c610fa3          	sb	t1,223(sp)
200181c8:	0df10493          	addi	s1,sp,223
200181cc:	b3c9                	j	20017f8e <_svfiprintf_r+0x65a>

200181ce <__swbuf_r>:
200181ce:	1101                	addi	sp,sp,-32
200181d0:	cc22                	sw	s0,24(sp)
200181d2:	ca26                	sw	s1,20(sp)
200181d4:	c84a                	sw	s2,16(sp)
200181d6:	ce06                	sw	ra,28(sp)
200181d8:	c64e                	sw	s3,12(sp)
200181da:	892a                	mv	s2,a0
200181dc:	84ae                	mv	s1,a1
200181de:	8432                	mv	s0,a2
200181e0:	c509                	beqz	a0,200181ea <__swbuf_r+0x1c>
200181e2:	5d1c                	lw	a5,56(a0)
200181e4:	e399                	bnez	a5,200181ea <__swbuf_r+0x1c>
200181e6:	bfff90ef          	jal	ra,20011de4 <__sinit>
200181ea:	4c1c                	lw	a5,24(s0)
200181ec:	c41c                	sw	a5,8(s0)
200181ee:	00c45783          	lhu	a5,12(s0)
200181f2:	8ba1                	andi	a5,a5,8
200181f4:	cbad                	beqz	a5,20018266 <__swbuf_r+0x98>
200181f6:	481c                	lw	a5,16(s0)
200181f8:	c7bd                	beqz	a5,20018266 <__swbuf_r+0x98>
200181fa:	00c41783          	lh	a5,12(s0)
200181fe:	0ff4f993          	andi	s3,s1,255
20018202:	0ff4f493          	andi	s1,s1,255
20018206:	01279713          	slli	a4,a5,0x12
2001820a:	06075563          	bgez	a4,20018274 <__swbuf_r+0xa6>
2001820e:	481c                	lw	a5,16(s0)
20018210:	4008                	lw	a0,0(s0)
20018212:	8d1d                	sub	a0,a0,a5
20018214:	485c                	lw	a5,20(s0)
20018216:	00f54763          	blt	a0,a5,20018224 <__swbuf_r+0x56>
2001821a:	85a2                	mv	a1,s0
2001821c:	854a                	mv	a0,s2
2001821e:	aadf90ef          	jal	ra,20011cca <_fflush_r>
20018222:	e539                	bnez	a0,20018270 <__swbuf_r+0xa2>
20018224:	441c                	lw	a5,8(s0)
20018226:	0505                	addi	a0,a0,1
20018228:	17fd                	addi	a5,a5,-1
2001822a:	c41c                	sw	a5,8(s0)
2001822c:	401c                	lw	a5,0(s0)
2001822e:	00178713          	addi	a4,a5,1
20018232:	c018                	sw	a4,0(s0)
20018234:	01378023          	sb	s3,0(a5)
20018238:	485c                	lw	a5,20(s0)
2001823a:	00a78963          	beq	a5,a0,2001824c <__swbuf_r+0x7e>
2001823e:	00c45783          	lhu	a5,12(s0)
20018242:	8b85                	andi	a5,a5,1
20018244:	cb89                	beqz	a5,20018256 <__swbuf_r+0x88>
20018246:	47a9                	li	a5,10
20018248:	00f49763          	bne	s1,a5,20018256 <__swbuf_r+0x88>
2001824c:	85a2                	mv	a1,s0
2001824e:	854a                	mv	a0,s2
20018250:	a7bf90ef          	jal	ra,20011cca <_fflush_r>
20018254:	ed11                	bnez	a0,20018270 <__swbuf_r+0xa2>
20018256:	40f2                	lw	ra,28(sp)
20018258:	4462                	lw	s0,24(sp)
2001825a:	8526                	mv	a0,s1
2001825c:	4942                	lw	s2,16(sp)
2001825e:	44d2                	lw	s1,20(sp)
20018260:	49b2                	lw	s3,12(sp)
20018262:	6105                	addi	sp,sp,32
20018264:	8082                	ret
20018266:	85a2                	mv	a1,s0
20018268:	854a                	mv	a0,s2
2001826a:	82bf90ef          	jal	ra,20011a94 <__swsetup_r>
2001826e:	d551                	beqz	a0,200181fa <__swbuf_r+0x2c>
20018270:	54fd                	li	s1,-1
20018272:	b7d5                	j	20018256 <__swbuf_r+0x88>
20018274:	6709                	lui	a4,0x2
20018276:	8fd9                	or	a5,a5,a4
20018278:	00f41623          	sh	a5,12(s0)
2001827c:	507c                	lw	a5,100(s0)
2001827e:	7779                	lui	a4,0xffffe
20018280:	177d                	addi	a4,a4,-1
20018282:	8ff9                	and	a5,a5,a4
20018284:	d07c                	sw	a5,100(s0)
20018286:	b761                	j	2001820e <__swbuf_r+0x40>

20018288 <__swbuf>:
20018288:	5ffe9797          	auipc	a5,0x5ffe9
2001828c:	f7078793          	addi	a5,a5,-144 # 800011f8 <_impure_ptr>
20018290:	862e                	mv	a2,a1
20018292:	85aa                	mv	a1,a0
20018294:	4388                	lw	a0,0(a5)
20018296:	bf25                	j	200181ce <__swbuf_r>

20018298 <_wcrtomb_r>:
20018298:	5ffe9797          	auipc	a5,0x5ffe9
2001829c:	f6078793          	addi	a5,a5,-160 # 800011f8 <_impure_ptr>
200182a0:	439c                	lw	a5,0(a5)
200182a2:	1101                	addi	sp,sp,-32
200182a4:	cc22                	sw	s0,24(sp)
200182a6:	ca26                	sw	s1,20(sp)
200182a8:	ce06                	sw	ra,28(sp)
200182aa:	842a                	mv	s0,a0
200182ac:	84b6                	mv	s1,a3
200182ae:	5bdc                	lw	a5,52(a5)
200182b0:	e995                	bnez	a1,200182e4 <_wcrtomb_r+0x4c>
200182b2:	e789                	bnez	a5,200182bc <_wcrtomb_r+0x24>
200182b4:	5ffe8797          	auipc	a5,0x5ffe8
200182b8:	17478793          	addi	a5,a5,372 # 80000428 <__global_locale>
200182bc:	0e07a783          	lw	a5,224(a5)
200182c0:	86a6                	mv	a3,s1
200182c2:	4601                	li	a2,0
200182c4:	004c                	addi	a1,sp,4
200182c6:	8522                	mv	a0,s0
200182c8:	9782                	jalr	a5
200182ca:	57fd                	li	a5,-1
200182cc:	00f51763          	bne	a0,a5,200182da <_wcrtomb_r+0x42>
200182d0:	0004a023          	sw	zero,0(s1)
200182d4:	08a00793          	li	a5,138
200182d8:	c01c                	sw	a5,0(s0)
200182da:	40f2                	lw	ra,28(sp)
200182dc:	4462                	lw	s0,24(sp)
200182de:	44d2                	lw	s1,20(sp)
200182e0:	6105                	addi	sp,sp,32
200182e2:	8082                	ret
200182e4:	e789                	bnez	a5,200182ee <_wcrtomb_r+0x56>
200182e6:	5ffe8797          	auipc	a5,0x5ffe8
200182ea:	14278793          	addi	a5,a5,322 # 80000428 <__global_locale>
200182ee:	0e07a783          	lw	a5,224(a5)
200182f2:	86a6                	mv	a3,s1
200182f4:	bfc9                	j	200182c6 <_wcrtomb_r+0x2e>

200182f6 <wcrtomb>:
200182f6:	5ffe9797          	auipc	a5,0x5ffe9
200182fa:	f0278793          	addi	a5,a5,-254 # 800011f8 <_impure_ptr>
200182fe:	86b2                	mv	a3,a2
20018300:	862e                	mv	a2,a1
20018302:	85aa                	mv	a1,a0
20018304:	4388                	lw	a0,0(a5)
20018306:	bf49                	j	20018298 <_wcrtomb_r>

20018308 <__udivdi3>:
20018308:	87ae                	mv	a5,a1
2001830a:	8832                	mv	a6,a2
2001830c:	8736                	mv	a4,a3
2001830e:	832a                	mv	t1,a0
20018310:	20069663          	bnez	a3,2001851c <__udivdi3+0x214>
20018314:	00006897          	auipc	a7,0x6
20018318:	4c888893          	addi	a7,a7,1224 # 2001e7dc <__clz_tab>
2001831c:	0ac5fe63          	bgeu	a1,a2,200183d8 <__udivdi3+0xd0>
20018320:	6741                	lui	a4,0x10
20018322:	0ae67463          	bgeu	a2,a4,200183ca <__udivdi3+0xc2>
20018326:	0ff00713          	li	a4,255
2001832a:	00c73733          	sltu	a4,a4,a2
2001832e:	070e                	slli	a4,a4,0x3
20018330:	00e656b3          	srl	a3,a2,a4
20018334:	98b6                	add	a7,a7,a3
20018336:	0008c683          	lbu	a3,0(a7)
2001833a:	9736                	add	a4,a4,a3
2001833c:	02000693          	li	a3,32
20018340:	8e99                	sub	a3,a3,a4
20018342:	ca99                	beqz	a3,20018358 <__udivdi3+0x50>
20018344:	00d797b3          	sll	a5,a5,a3
20018348:	00e55733          	srl	a4,a0,a4
2001834c:	00d61833          	sll	a6,a2,a3
20018350:	00f765b3          	or	a1,a4,a5
20018354:	00d51333          	sll	t1,a0,a3
20018358:	01085513          	srli	a0,a6,0x10
2001835c:	02a5f733          	remu	a4,a1,a0
20018360:	01081613          	slli	a2,a6,0x10
20018364:	8241                	srli	a2,a2,0x10
20018366:	01035693          	srli	a3,t1,0x10
2001836a:	02a5d5b3          	divu	a1,a1,a0
2001836e:	0742                	slli	a4,a4,0x10
20018370:	8ed9                	or	a3,a3,a4
20018372:	02b607b3          	mul	a5,a2,a1
20018376:	872e                	mv	a4,a1
20018378:	00f6fc63          	bgeu	a3,a5,20018390 <__udivdi3+0x88>
2001837c:	96c2                	add	a3,a3,a6
2001837e:	fff58713          	addi	a4,a1,-1
20018382:	0106e763          	bltu	a3,a6,20018390 <__udivdi3+0x88>
20018386:	00f6f563          	bgeu	a3,a5,20018390 <__udivdi3+0x88>
2001838a:	ffe58713          	addi	a4,a1,-2
2001838e:	96c2                	add	a3,a3,a6
20018390:	8e9d                	sub	a3,a3,a5
20018392:	02a6f7b3          	remu	a5,a3,a0
20018396:	0342                	slli	t1,t1,0x10
20018398:	01035313          	srli	t1,t1,0x10
2001839c:	02a6d6b3          	divu	a3,a3,a0
200183a0:	07c2                	slli	a5,a5,0x10
200183a2:	0067e333          	or	t1,a5,t1
200183a6:	02d605b3          	mul	a1,a2,a3
200183aa:	8536                	mv	a0,a3
200183ac:	00b37b63          	bgeu	t1,a1,200183c2 <__udivdi3+0xba>
200183b0:	9342                	add	t1,t1,a6
200183b2:	fff68513          	addi	a0,a3,-1
200183b6:	01036663          	bltu	t1,a6,200183c2 <__udivdi3+0xba>
200183ba:	00b37463          	bgeu	t1,a1,200183c2 <__udivdi3+0xba>
200183be:	ffe68513          	addi	a0,a3,-2
200183c2:	0742                	slli	a4,a4,0x10
200183c4:	8f49                	or	a4,a4,a0
200183c6:	4581                	li	a1,0
200183c8:	a84d                	j	2001847a <__udivdi3+0x172>
200183ca:	010006b7          	lui	a3,0x1000
200183ce:	4741                	li	a4,16
200183d0:	f6d660e3          	bltu	a2,a3,20018330 <__udivdi3+0x28>
200183d4:	4761                	li	a4,24
200183d6:	bfa9                	j	20018330 <__udivdi3+0x28>
200183d8:	e601                	bnez	a2,200183e0 <__udivdi3+0xd8>
200183da:	4685                	li	a3,1
200183dc:	02c6d833          	divu	a6,a3,a2
200183e0:	66c1                	lui	a3,0x10
200183e2:	08d87e63          	bgeu	a6,a3,2001847e <__udivdi3+0x176>
200183e6:	0ff00693          	li	a3,255
200183ea:	0106f363          	bgeu	a3,a6,200183f0 <__udivdi3+0xe8>
200183ee:	4721                	li	a4,8
200183f0:	00e856b3          	srl	a3,a6,a4
200183f4:	98b6                	add	a7,a7,a3
200183f6:	0008c683          	lbu	a3,0(a7)
200183fa:	96ba                	add	a3,a3,a4
200183fc:	02000713          	li	a4,32
20018400:	8f15                	sub	a4,a4,a3
20018402:	e749                	bnez	a4,2001848c <__udivdi3+0x184>
20018404:	410787b3          	sub	a5,a5,a6
20018408:	4585                	li	a1,1
2001840a:	01085613          	srli	a2,a6,0x10
2001840e:	01081893          	slli	a7,a6,0x10
20018412:	0108d893          	srli	a7,a7,0x10
20018416:	01035693          	srli	a3,t1,0x10
2001841a:	02c7f733          	remu	a4,a5,a2
2001841e:	02c7d7b3          	divu	a5,a5,a2
20018422:	0742                	slli	a4,a4,0x10
20018424:	8ed9                	or	a3,a3,a4
20018426:	02f88533          	mul	a0,a7,a5
2001842a:	873e                	mv	a4,a5
2001842c:	00a6fc63          	bgeu	a3,a0,20018444 <__udivdi3+0x13c>
20018430:	96c2                	add	a3,a3,a6
20018432:	fff78713          	addi	a4,a5,-1
20018436:	0106e763          	bltu	a3,a6,20018444 <__udivdi3+0x13c>
2001843a:	00a6f563          	bgeu	a3,a0,20018444 <__udivdi3+0x13c>
2001843e:	ffe78713          	addi	a4,a5,-2
20018442:	96c2                	add	a3,a3,a6
20018444:	8e89                	sub	a3,a3,a0
20018446:	02c6f7b3          	remu	a5,a3,a2
2001844a:	0342                	slli	t1,t1,0x10
2001844c:	01035313          	srli	t1,t1,0x10
20018450:	02c6d6b3          	divu	a3,a3,a2
20018454:	07c2                	slli	a5,a5,0x10
20018456:	0067e333          	or	t1,a5,t1
2001845a:	02d888b3          	mul	a7,a7,a3
2001845e:	8536                	mv	a0,a3
20018460:	01137b63          	bgeu	t1,a7,20018476 <__udivdi3+0x16e>
20018464:	9342                	add	t1,t1,a6
20018466:	fff68513          	addi	a0,a3,-1 # ffff <__heap_size+0xfbff>
2001846a:	01036663          	bltu	t1,a6,20018476 <__udivdi3+0x16e>
2001846e:	01137463          	bgeu	t1,a7,20018476 <__udivdi3+0x16e>
20018472:	ffe68513          	addi	a0,a3,-2
20018476:	0742                	slli	a4,a4,0x10
20018478:	8f49                	or	a4,a4,a0
2001847a:	853a                	mv	a0,a4
2001847c:	8082                	ret
2001847e:	010006b7          	lui	a3,0x1000
20018482:	4741                	li	a4,16
20018484:	f6d866e3          	bltu	a6,a3,200183f0 <__udivdi3+0xe8>
20018488:	4761                	li	a4,24
2001848a:	b79d                	j	200183f0 <__udivdi3+0xe8>
2001848c:	00e81833          	sll	a6,a6,a4
20018490:	00d7d5b3          	srl	a1,a5,a3
20018494:	00e51333          	sll	t1,a0,a4
20018498:	00d556b3          	srl	a3,a0,a3
2001849c:	01085513          	srli	a0,a6,0x10
200184a0:	00e797b3          	sll	a5,a5,a4
200184a4:	02a5f733          	remu	a4,a1,a0
200184a8:	00f6e8b3          	or	a7,a3,a5
200184ac:	01081793          	slli	a5,a6,0x10
200184b0:	83c1                	srli	a5,a5,0x10
200184b2:	0108d613          	srli	a2,a7,0x10
200184b6:	02a5d5b3          	divu	a1,a1,a0
200184ba:	0742                	slli	a4,a4,0x10
200184bc:	8f51                	or	a4,a4,a2
200184be:	02b786b3          	mul	a3,a5,a1
200184c2:	862e                	mv	a2,a1
200184c4:	00d77c63          	bgeu	a4,a3,200184dc <__udivdi3+0x1d4>
200184c8:	9742                	add	a4,a4,a6
200184ca:	fff58613          	addi	a2,a1,-1
200184ce:	01076763          	bltu	a4,a6,200184dc <__udivdi3+0x1d4>
200184d2:	00d77563          	bgeu	a4,a3,200184dc <__udivdi3+0x1d4>
200184d6:	ffe58613          	addi	a2,a1,-2
200184da:	9742                	add	a4,a4,a6
200184dc:	40d706b3          	sub	a3,a4,a3
200184e0:	02a6f733          	remu	a4,a3,a0
200184e4:	08c2                	slli	a7,a7,0x10
200184e6:	0108d893          	srli	a7,a7,0x10
200184ea:	02a6d6b3          	divu	a3,a3,a0
200184ee:	0742                	slli	a4,a4,0x10
200184f0:	02d785b3          	mul	a1,a5,a3
200184f4:	011767b3          	or	a5,a4,a7
200184f8:	8736                	mv	a4,a3
200184fa:	00b7fc63          	bgeu	a5,a1,20018512 <__udivdi3+0x20a>
200184fe:	97c2                	add	a5,a5,a6
20018500:	fff68713          	addi	a4,a3,-1 # ffffff <__heap_size+0xfffbff>
20018504:	0107e763          	bltu	a5,a6,20018512 <__udivdi3+0x20a>
20018508:	00b7f563          	bgeu	a5,a1,20018512 <__udivdi3+0x20a>
2001850c:	ffe68713          	addi	a4,a3,-2
20018510:	97c2                	add	a5,a5,a6
20018512:	8f8d                	sub	a5,a5,a1
20018514:	01061593          	slli	a1,a2,0x10
20018518:	8dd9                	or	a1,a1,a4
2001851a:	bdc5                	j	2001840a <__udivdi3+0x102>
2001851c:	14d5e263          	bltu	a1,a3,20018660 <__udivdi3+0x358>
20018520:	6741                	lui	a4,0x10
20018522:	02e6fe63          	bgeu	a3,a4,2001855e <__udivdi3+0x256>
20018526:	0ff00813          	li	a6,255
2001852a:	00d83733          	sltu	a4,a6,a3
2001852e:	070e                	slli	a4,a4,0x3
20018530:	00e6d833          	srl	a6,a3,a4
20018534:	00006597          	auipc	a1,0x6
20018538:	2a858593          	addi	a1,a1,680 # 2001e7dc <__clz_tab>
2001853c:	95c2                	add	a1,a1,a6
2001853e:	0005c803          	lbu	a6,0(a1)
20018542:	02000593          	li	a1,32
20018546:	983a                	add	a6,a6,a4
20018548:	410585b3          	sub	a1,a1,a6
2001854c:	e185                	bnez	a1,2001856c <__udivdi3+0x264>
2001854e:	4705                	li	a4,1
20018550:	f2f6e5e3          	bltu	a3,a5,2001847a <__udivdi3+0x172>
20018554:	00c53533          	sltu	a0,a0,a2
20018558:	00154713          	xori	a4,a0,1
2001855c:	bf39                	j	2001847a <__udivdi3+0x172>
2001855e:	010005b7          	lui	a1,0x1000
20018562:	4741                	li	a4,16
20018564:	fcb6e6e3          	bltu	a3,a1,20018530 <__udivdi3+0x228>
20018568:	4761                	li	a4,24
2001856a:	b7d9                	j	20018530 <__udivdi3+0x228>
2001856c:	01065733          	srl	a4,a2,a6
20018570:	00b696b3          	sll	a3,a3,a1
20018574:	8ed9                	or	a3,a3,a4
20018576:	0106de93          	srli	t4,a3,0x10
2001857a:	0107d733          	srl	a4,a5,a6
2001857e:	03d778b3          	remu	a7,a4,t4
20018582:	00b797b3          	sll	a5,a5,a1
20018586:	01055833          	srl	a6,a0,a6
2001858a:	00f86333          	or	t1,a6,a5
2001858e:	01069793          	slli	a5,a3,0x10
20018592:	83c1                	srli	a5,a5,0x10
20018594:	01035813          	srli	a6,t1,0x10
20018598:	00b61633          	sll	a2,a2,a1
2001859c:	03d75733          	divu	a4,a4,t4
200185a0:	08c2                	slli	a7,a7,0x10
200185a2:	0108e833          	or	a6,a7,a6
200185a6:	02e78f33          	mul	t5,a5,a4
200185aa:	8e3a                	mv	t3,a4
200185ac:	01e87c63          	bgeu	a6,t5,200185c4 <__udivdi3+0x2bc>
200185b0:	9836                	add	a6,a6,a3
200185b2:	fff70e13          	addi	t3,a4,-1 # ffff <__heap_size+0xfbff>
200185b6:	00d86763          	bltu	a6,a3,200185c4 <__udivdi3+0x2bc>
200185ba:	01e87563          	bgeu	a6,t5,200185c4 <__udivdi3+0x2bc>
200185be:	ffe70e13          	addi	t3,a4,-2
200185c2:	9836                	add	a6,a6,a3
200185c4:	41e80833          	sub	a6,a6,t5
200185c8:	03d878b3          	remu	a7,a6,t4
200185cc:	03d85833          	divu	a6,a6,t4
200185d0:	08c2                	slli	a7,a7,0x10
200185d2:	03078eb3          	mul	t4,a5,a6
200185d6:	01031793          	slli	a5,t1,0x10
200185da:	83c1                	srli	a5,a5,0x10
200185dc:	00f8e7b3          	or	a5,a7,a5
200185e0:	8742                	mv	a4,a6
200185e2:	01d7fc63          	bgeu	a5,t4,200185fa <__udivdi3+0x2f2>
200185e6:	97b6                	add	a5,a5,a3
200185e8:	fff80713          	addi	a4,a6,-1
200185ec:	00d7e763          	bltu	a5,a3,200185fa <__udivdi3+0x2f2>
200185f0:	01d7f563          	bgeu	a5,t4,200185fa <__udivdi3+0x2f2>
200185f4:	ffe80713          	addi	a4,a6,-2
200185f8:	97b6                	add	a5,a5,a3
200185fa:	0e42                	slli	t3,t3,0x10
200185fc:	41d787b3          	sub	a5,a5,t4
20018600:	6ec1                	lui	t4,0x10
20018602:	00ee6733          	or	a4,t3,a4
20018606:	fffe8813          	addi	a6,t4,-1 # ffff <__heap_size+0xfbff>
2001860a:	01077333          	and	t1,a4,a6
2001860e:	01075893          	srli	a7,a4,0x10
20018612:	01067833          	and	a6,a2,a6
20018616:	8241                	srli	a2,a2,0x10
20018618:	03030e33          	mul	t3,t1,a6
2001861c:	03088833          	mul	a6,a7,a6
20018620:	010e5693          	srli	a3,t3,0x10
20018624:	02c30333          	mul	t1,t1,a2
20018628:	9342                	add	t1,t1,a6
2001862a:	969a                	add	a3,a3,t1
2001862c:	02c888b3          	mul	a7,a7,a2
20018630:	0106f363          	bgeu	a3,a6,20018636 <__udivdi3+0x32e>
20018634:	98f6                	add	a7,a7,t4
20018636:	0106d613          	srli	a2,a3,0x10
2001863a:	98b2                	add	a7,a7,a2
2001863c:	0317e063          	bltu	a5,a7,2001865c <__udivdi3+0x354>
20018640:	d91793e3          	bne	a5,a7,200183c6 <__udivdi3+0xbe>
20018644:	67c1                	lui	a5,0x10
20018646:	17fd                	addi	a5,a5,-1
20018648:	8efd                	and	a3,a3,a5
2001864a:	06c2                	slli	a3,a3,0x10
2001864c:	00fe7e33          	and	t3,t3,a5
20018650:	00b51533          	sll	a0,a0,a1
20018654:	96f2                	add	a3,a3,t3
20018656:	4581                	li	a1,0
20018658:	e2d571e3          	bgeu	a0,a3,2001847a <__udivdi3+0x172>
2001865c:	177d                	addi	a4,a4,-1
2001865e:	b3a5                	j	200183c6 <__udivdi3+0xbe>
20018660:	4581                	li	a1,0
20018662:	4701                	li	a4,0
20018664:	bd19                	j	2001847a <__udivdi3+0x172>

20018666 <__umoddi3>:
20018666:	88b2                	mv	a7,a2
20018668:	8736                	mv	a4,a3
2001866a:	87aa                	mv	a5,a0
2001866c:	882e                	mv	a6,a1
2001866e:	1c069863          	bnez	a3,2001883e <__umoddi3+0x1d8>
20018672:	00006697          	auipc	a3,0x6
20018676:	16a68693          	addi	a3,a3,362 # 2001e7dc <__clz_tab>
2001867a:	0ac5f863          	bgeu	a1,a2,2001872a <__umoddi3+0xc4>
2001867e:	6341                	lui	t1,0x10
20018680:	08667e63          	bgeu	a2,t1,2001871c <__umoddi3+0xb6>
20018684:	0ff00313          	li	t1,255
20018688:	00c37363          	bgeu	t1,a2,2001868e <__umoddi3+0x28>
2001868c:	4721                	li	a4,8
2001868e:	00e65333          	srl	t1,a2,a4
20018692:	969a                	add	a3,a3,t1
20018694:	0006ce03          	lbu	t3,0(a3)
20018698:	02000313          	li	t1,32
2001869c:	9e3a                	add	t3,t3,a4
2001869e:	41c30333          	sub	t1,t1,t3
200186a2:	00030c63          	beqz	t1,200186ba <__umoddi3+0x54>
200186a6:	006595b3          	sll	a1,a1,t1
200186aa:	01c55e33          	srl	t3,a0,t3
200186ae:	006618b3          	sll	a7,a2,t1
200186b2:	00be6833          	or	a6,t3,a1
200186b6:	006517b3          	sll	a5,a0,t1
200186ba:	0108d613          	srli	a2,a7,0x10
200186be:	02c87733          	remu	a4,a6,a2
200186c2:	01089513          	slli	a0,a7,0x10
200186c6:	8141                	srli	a0,a0,0x10
200186c8:	0107d693          	srli	a3,a5,0x10
200186cc:	02c85833          	divu	a6,a6,a2
200186d0:	0742                	slli	a4,a4,0x10
200186d2:	8ed9                	or	a3,a3,a4
200186d4:	03050833          	mul	a6,a0,a6
200186d8:	0106f863          	bgeu	a3,a6,200186e8 <__umoddi3+0x82>
200186dc:	96c6                	add	a3,a3,a7
200186de:	0116e563          	bltu	a3,a7,200186e8 <__umoddi3+0x82>
200186e2:	0106f363          	bgeu	a3,a6,200186e8 <__umoddi3+0x82>
200186e6:	96c6                	add	a3,a3,a7
200186e8:	410686b3          	sub	a3,a3,a6
200186ec:	02c6f733          	remu	a4,a3,a2
200186f0:	07c2                	slli	a5,a5,0x10
200186f2:	83c1                	srli	a5,a5,0x10
200186f4:	02c6d6b3          	divu	a3,a3,a2
200186f8:	02d506b3          	mul	a3,a0,a3
200186fc:	01071513          	slli	a0,a4,0x10
20018700:	8fc9                	or	a5,a5,a0
20018702:	00d7f863          	bgeu	a5,a3,20018712 <__umoddi3+0xac>
20018706:	97c6                	add	a5,a5,a7
20018708:	0117e563          	bltu	a5,a7,20018712 <__umoddi3+0xac>
2001870c:	00d7f363          	bgeu	a5,a3,20018712 <__umoddi3+0xac>
20018710:	97c6                	add	a5,a5,a7
20018712:	8f95                	sub	a5,a5,a3
20018714:	0067d533          	srl	a0,a5,t1
20018718:	4581                	li	a1,0
2001871a:	8082                	ret
2001871c:	01000337          	lui	t1,0x1000
20018720:	4741                	li	a4,16
20018722:	f66666e3          	bltu	a2,t1,2001868e <__umoddi3+0x28>
20018726:	4761                	li	a4,24
20018728:	b79d                	j	2001868e <__umoddi3+0x28>
2001872a:	e601                	bnez	a2,20018732 <__umoddi3+0xcc>
2001872c:	4605                	li	a2,1
2001872e:	031658b3          	divu	a7,a2,a7
20018732:	6641                	lui	a2,0x10
20018734:	08c8f363          	bgeu	a7,a2,200187ba <__umoddi3+0x154>
20018738:	0ff00613          	li	a2,255
2001873c:	01167363          	bgeu	a2,a7,20018742 <__umoddi3+0xdc>
20018740:	4721                	li	a4,8
20018742:	00e8d633          	srl	a2,a7,a4
20018746:	96b2                	add	a3,a3,a2
20018748:	0006ce03          	lbu	t3,0(a3)
2001874c:	02000313          	li	t1,32
20018750:	9e3a                	add	t3,t3,a4
20018752:	41c30333          	sub	t1,t1,t3
20018756:	06031963          	bnez	t1,200187c8 <__umoddi3+0x162>
2001875a:	411585b3          	sub	a1,a1,a7
2001875e:	0108d713          	srli	a4,a7,0x10
20018762:	01089513          	slli	a0,a7,0x10
20018766:	8141                	srli	a0,a0,0x10
20018768:	0107d613          	srli	a2,a5,0x10
2001876c:	02e5f6b3          	remu	a3,a1,a4
20018770:	02e5d5b3          	divu	a1,a1,a4
20018774:	06c2                	slli	a3,a3,0x10
20018776:	8ed1                	or	a3,a3,a2
20018778:	02b505b3          	mul	a1,a0,a1
2001877c:	00b6f863          	bgeu	a3,a1,2001878c <__umoddi3+0x126>
20018780:	96c6                	add	a3,a3,a7
20018782:	0116e563          	bltu	a3,a7,2001878c <__umoddi3+0x126>
20018786:	00b6f363          	bgeu	a3,a1,2001878c <__umoddi3+0x126>
2001878a:	96c6                	add	a3,a3,a7
2001878c:	40b685b3          	sub	a1,a3,a1
20018790:	02e5f6b3          	remu	a3,a1,a4
20018794:	07c2                	slli	a5,a5,0x10
20018796:	83c1                	srli	a5,a5,0x10
20018798:	02e5d5b3          	divu	a1,a1,a4
2001879c:	02b505b3          	mul	a1,a0,a1
200187a0:	01069513          	slli	a0,a3,0x10
200187a4:	8fc9                	or	a5,a5,a0
200187a6:	00b7f863          	bgeu	a5,a1,200187b6 <__umoddi3+0x150>
200187aa:	97c6                	add	a5,a5,a7
200187ac:	0117e563          	bltu	a5,a7,200187b6 <__umoddi3+0x150>
200187b0:	00b7f363          	bgeu	a5,a1,200187b6 <__umoddi3+0x150>
200187b4:	97c6                	add	a5,a5,a7
200187b6:	8f8d                	sub	a5,a5,a1
200187b8:	bfb1                	j	20018714 <__umoddi3+0xae>
200187ba:	01000637          	lui	a2,0x1000
200187be:	4741                	li	a4,16
200187c0:	f8c8e1e3          	bltu	a7,a2,20018742 <__umoddi3+0xdc>
200187c4:	4761                	li	a4,24
200187c6:	bfb5                	j	20018742 <__umoddi3+0xdc>
200187c8:	006898b3          	sll	a7,a7,t1
200187cc:	01c5d733          	srl	a4,a1,t3
200187d0:	006517b3          	sll	a5,a0,t1
200187d4:	01c55e33          	srl	t3,a0,t3
200187d8:	0108d513          	srli	a0,a7,0x10
200187dc:	02a776b3          	remu	a3,a4,a0
200187e0:	006595b3          	sll	a1,a1,t1
200187e4:	00be6e33          	or	t3,t3,a1
200187e8:	01089593          	slli	a1,a7,0x10
200187ec:	81c1                	srli	a1,a1,0x10
200187ee:	010e5613          	srli	a2,t3,0x10
200187f2:	02a75733          	divu	a4,a4,a0
200187f6:	06c2                	slli	a3,a3,0x10
200187f8:	8ed1                	or	a3,a3,a2
200187fa:	02e58733          	mul	a4,a1,a4
200187fe:	00e6f863          	bgeu	a3,a4,2001880e <__umoddi3+0x1a8>
20018802:	96c6                	add	a3,a3,a7
20018804:	0116e563          	bltu	a3,a7,2001880e <__umoddi3+0x1a8>
20018808:	00e6f363          	bgeu	a3,a4,2001880e <__umoddi3+0x1a8>
2001880c:	96c6                	add	a3,a3,a7
2001880e:	40e68633          	sub	a2,a3,a4
20018812:	02a676b3          	remu	a3,a2,a0
20018816:	0e42                	slli	t3,t3,0x10
20018818:	010e5e13          	srli	t3,t3,0x10
2001881c:	02a65633          	divu	a2,a2,a0
20018820:	06c2                	slli	a3,a3,0x10
20018822:	02c58633          	mul	a2,a1,a2
20018826:	01c6e5b3          	or	a1,a3,t3
2001882a:	00c5f863          	bgeu	a1,a2,2001883a <__umoddi3+0x1d4>
2001882e:	95c6                	add	a1,a1,a7
20018830:	0115e563          	bltu	a1,a7,2001883a <__umoddi3+0x1d4>
20018834:	00c5f363          	bgeu	a1,a2,2001883a <__umoddi3+0x1d4>
20018838:	95c6                	add	a1,a1,a7
2001883a:	8d91                	sub	a1,a1,a2
2001883c:	b70d                	j	2001875e <__umoddi3+0xf8>
2001883e:	ecd5eee3          	bltu	a1,a3,2001871a <__umoddi3+0xb4>
20018842:	6741                	lui	a4,0x10
20018844:	04e6f563          	bgeu	a3,a4,2001888e <__umoddi3+0x228>
20018848:	0ff00e93          	li	t4,255
2001884c:	00deb733          	sltu	a4,t4,a3
20018850:	070e                	slli	a4,a4,0x3
20018852:	00e6d333          	srl	t1,a3,a4
20018856:	00006897          	auipc	a7,0x6
2001885a:	f8688893          	addi	a7,a7,-122 # 2001e7dc <__clz_tab>
2001885e:	989a                	add	a7,a7,t1
20018860:	0008ce83          	lbu	t4,0(a7)
20018864:	02000e13          	li	t3,32
20018868:	9eba                	add	t4,t4,a4
2001886a:	41de0e33          	sub	t3,t3,t4
2001886e:	020e1763          	bnez	t3,2001889c <__umoddi3+0x236>
20018872:	00b6e463          	bltu	a3,a1,2001887a <__umoddi3+0x214>
20018876:	00c56963          	bltu	a0,a2,20018888 <__umoddi3+0x222>
2001887a:	40c507b3          	sub	a5,a0,a2
2001887e:	8d95                	sub	a1,a1,a3
20018880:	00f53533          	sltu	a0,a0,a5
20018884:	40a58833          	sub	a6,a1,a0
20018888:	853e                	mv	a0,a5
2001888a:	85c2                	mv	a1,a6
2001888c:	b579                	j	2001871a <__umoddi3+0xb4>
2001888e:	010008b7          	lui	a7,0x1000
20018892:	4741                	li	a4,16
20018894:	fb16efe3          	bltu	a3,a7,20018852 <__umoddi3+0x1ec>
20018898:	4761                	li	a4,24
2001889a:	bf65                	j	20018852 <__umoddi3+0x1ec>
2001889c:	01d65733          	srl	a4,a2,t4
200188a0:	01c696b3          	sll	a3,a3,t3
200188a4:	8ed9                	or	a3,a3,a4
200188a6:	0106d813          	srli	a6,a3,0x10
200188aa:	01d5d733          	srl	a4,a1,t4
200188ae:	03077333          	remu	t1,a4,a6
200188b2:	01c595b3          	sll	a1,a1,t3
200188b6:	01d557b3          	srl	a5,a0,t4
200188ba:	8fcd                	or	a5,a5,a1
200188bc:	01069593          	slli	a1,a3,0x10
200188c0:	81c1                	srli	a1,a1,0x10
200188c2:	0107d893          	srli	a7,a5,0x10
200188c6:	01c61633          	sll	a2,a2,t3
200188ca:	01c51533          	sll	a0,a0,t3
200188ce:	03075733          	divu	a4,a4,a6
200188d2:	0342                	slli	t1,t1,0x10
200188d4:	011368b3          	or	a7,t1,a7
200188d8:	02e58f33          	mul	t5,a1,a4
200188dc:	833a                	mv	t1,a4
200188de:	01e8fc63          	bgeu	a7,t5,200188f6 <__umoddi3+0x290>
200188e2:	98b6                	add	a7,a7,a3
200188e4:	fff70313          	addi	t1,a4,-1 # ffff <__heap_size+0xfbff>
200188e8:	00d8e763          	bltu	a7,a3,200188f6 <__umoddi3+0x290>
200188ec:	01e8f563          	bgeu	a7,t5,200188f6 <__umoddi3+0x290>
200188f0:	ffe70313          	addi	t1,a4,-2
200188f4:	98b6                	add	a7,a7,a3
200188f6:	41e888b3          	sub	a7,a7,t5
200188fa:	0308ff33          	remu	t5,a7,a6
200188fe:	0308d8b3          	divu	a7,a7,a6
20018902:	0f42                	slli	t5,t5,0x10
20018904:	03158833          	mul	a6,a1,a7
20018908:	01079593          	slli	a1,a5,0x10
2001890c:	81c1                	srli	a1,a1,0x10
2001890e:	00bf65b3          	or	a1,t5,a1
20018912:	87c6                	mv	a5,a7
20018914:	0105fc63          	bgeu	a1,a6,2001892c <__umoddi3+0x2c6>
20018918:	95b6                	add	a1,a1,a3
2001891a:	fff88793          	addi	a5,a7,-1 # ffffff <__heap_size+0xfffbff>
2001891e:	00d5e763          	bltu	a1,a3,2001892c <__umoddi3+0x2c6>
20018922:	0105f563          	bgeu	a1,a6,2001892c <__umoddi3+0x2c6>
20018926:	ffe88793          	addi	a5,a7,-2
2001892a:	95b6                	add	a1,a1,a3
2001892c:	0342                	slli	t1,t1,0x10
2001892e:	6f41                	lui	t5,0x10
20018930:	00f36333          	or	t1,t1,a5
20018934:	ffff0793          	addi	a5,t5,-1 # ffff <__heap_size+0xfbff>
20018938:	00f378b3          	and	a7,t1,a5
2001893c:	410585b3          	sub	a1,a1,a6
20018940:	01035313          	srli	t1,t1,0x10
20018944:	01065813          	srli	a6,a2,0x10
20018948:	8ff1                	and	a5,a5,a2
2001894a:	02f88733          	mul	a4,a7,a5
2001894e:	02f307b3          	mul	a5,t1,a5
20018952:	030888b3          	mul	a7,a7,a6
20018956:	03030333          	mul	t1,t1,a6
2001895a:	98be                	add	a7,a7,a5
2001895c:	01075813          	srli	a6,a4,0x10
20018960:	9846                	add	a6,a6,a7
20018962:	00f87363          	bgeu	a6,a5,20018968 <__umoddi3+0x302>
20018966:	937a                	add	t1,t1,t5
20018968:	01085793          	srli	a5,a6,0x10
2001896c:	933e                	add	t1,t1,a5
2001896e:	67c1                	lui	a5,0x10
20018970:	17fd                	addi	a5,a5,-1
20018972:	00f87833          	and	a6,a6,a5
20018976:	0842                	slli	a6,a6,0x10
20018978:	8f7d                	and	a4,a4,a5
2001897a:	9742                	add	a4,a4,a6
2001897c:	0065e663          	bltu	a1,t1,20018988 <__umoddi3+0x322>
20018980:	00659c63          	bne	a1,t1,20018998 <__umoddi3+0x332>
20018984:	00e57a63          	bgeu	a0,a4,20018998 <__umoddi3+0x332>
20018988:	40c70633          	sub	a2,a4,a2
2001898c:	00c73733          	sltu	a4,a4,a2
20018990:	9736                	add	a4,a4,a3
20018992:	40e30333          	sub	t1,t1,a4
20018996:	8732                	mv	a4,a2
20018998:	40e50733          	sub	a4,a0,a4
2001899c:	00e53533          	sltu	a0,a0,a4
200189a0:	406585b3          	sub	a1,a1,t1
200189a4:	8d89                	sub	a1,a1,a0
200189a6:	01d597b3          	sll	a5,a1,t4
200189aa:	01c75733          	srl	a4,a4,t3
200189ae:	00e7e533          	or	a0,a5,a4
200189b2:	01c5d5b3          	srl	a1,a1,t3
200189b6:	b395                	j	2001871a <__umoddi3+0xb4>

200189b8 <__divdf3>:
200189b8:	7179                	addi	sp,sp,-48
200189ba:	d422                	sw	s0,40(sp)
200189bc:	c85a                	sw	s6,16(sp)
200189be:	842a                	mv	s0,a0
200189c0:	8b2a                	mv	s6,a0
200189c2:	0145d513          	srli	a0,a1,0x14
200189c6:	d04a                	sw	s2,32(sp)
200189c8:	ce4e                	sw	s3,28(sp)
200189ca:	cc52                	sw	s4,24(sp)
200189cc:	c65e                	sw	s7,12(sp)
200189ce:	00c59913          	slli	s2,a1,0xc
200189d2:	d606                	sw	ra,44(sp)
200189d4:	d226                	sw	s1,36(sp)
200189d6:	ca56                	sw	s5,20(sp)
200189d8:	7ff57513          	andi	a0,a0,2047
200189dc:	8bb2                	mv	s7,a2
200189de:	8a36                	mv	s4,a3
200189e0:	00c95913          	srli	s2,s2,0xc
200189e4:	01f5d993          	srli	s3,a1,0x1f
200189e8:	c549                	beqz	a0,20018a72 <__divdf3+0xba>
200189ea:	7ff00793          	li	a5,2047
200189ee:	0cf50d63          	beq	a0,a5,20018ac8 <__divdf3+0x110>
200189f2:	01db5a93          	srli	s5,s6,0x1d
200189f6:	090e                	slli	s2,s2,0x3
200189f8:	012ae933          	or	s2,s5,s2
200189fc:	00800ab7          	lui	s5,0x800
20018a00:	01596ab3          	or	s5,s2,s5
20018a04:	003b1413          	slli	s0,s6,0x3
20018a08:	c0150493          	addi	s1,a0,-1023
20018a0c:	4b01                	li	s6,0
20018a0e:	014a5513          	srli	a0,s4,0x14
20018a12:	00ca1913          	slli	s2,s4,0xc
20018a16:	7ff57513          	andi	a0,a0,2047
20018a1a:	885e                	mv	a6,s7
20018a1c:	00c95913          	srli	s2,s2,0xc
20018a20:	01fa5a13          	srli	s4,s4,0x1f
20018a24:	c561                	beqz	a0,20018aec <__divdf3+0x134>
20018a26:	7ff00793          	li	a5,2047
20018a2a:	10f50d63          	beq	a0,a5,20018b44 <__divdf3+0x18c>
20018a2e:	01dbd793          	srli	a5,s7,0x1d
20018a32:	090e                	slli	s2,s2,0x3
20018a34:	0127e7b3          	or	a5,a5,s2
20018a38:	008008b7          	lui	a7,0x800
20018a3c:	0117e8b3          	or	a7,a5,a7
20018a40:	003b9813          	slli	a6,s7,0x3
20018a44:	c0150513          	addi	a0,a0,-1023
20018a48:	4781                	li	a5,0
20018a4a:	002b1713          	slli	a4,s6,0x2
20018a4e:	8f5d                	or	a4,a4,a5
20018a50:	177d                	addi	a4,a4,-1
20018a52:	46b9                	li	a3,14
20018a54:	0149c633          	xor	a2,s3,s4
20018a58:	40a48533          	sub	a0,s1,a0
20018a5c:	10e6e663          	bltu	a3,a4,20018b68 <__divdf3+0x1b0>
20018a60:	00006697          	auipc	a3,0x6
20018a64:	cc868693          	addi	a3,a3,-824 # 2001e728 <zeroes.4476+0x10>
20018a68:	070a                	slli	a4,a4,0x2
20018a6a:	9736                	add	a4,a4,a3
20018a6c:	4318                	lw	a4,0(a4)
20018a6e:	9736                	add	a4,a4,a3
20018a70:	8702                	jr	a4
20018a72:	01696ab3          	or	s5,s2,s6
20018a76:	060a8263          	beqz	s5,20018ada <__divdf3+0x122>
20018a7a:	02090b63          	beqz	s2,20018ab0 <__divdf3+0xf8>
20018a7e:	854a                	mv	a0,s2
20018a80:	26b020ef          	jal	ra,2001b4ea <__clzsi2>
20018a84:	ff550793          	addi	a5,a0,-11
20018a88:	4771                	li	a4,28
20018a8a:	02f74963          	blt	a4,a5,20018abc <__divdf3+0x104>
20018a8e:	4af5                	li	s5,29
20018a90:	ff850413          	addi	s0,a0,-8
20018a94:	40fa8ab3          	sub	s5,s5,a5
20018a98:	00891933          	sll	s2,s2,s0
20018a9c:	015b5ab3          	srl	s5,s6,s5
20018aa0:	012aeab3          	or	s5,s5,s2
20018aa4:	008b1433          	sll	s0,s6,s0
20018aa8:	c0d00493          	li	s1,-1011
20018aac:	8c89                	sub	s1,s1,a0
20018aae:	bfb9                	j	20018a0c <__divdf3+0x54>
20018ab0:	855a                	mv	a0,s6
20018ab2:	239020ef          	jal	ra,2001b4ea <__clzsi2>
20018ab6:	02050513          	addi	a0,a0,32
20018aba:	b7e9                	j	20018a84 <__divdf3+0xcc>
20018abc:	fd850913          	addi	s2,a0,-40
20018ac0:	012b1ab3          	sll	s5,s6,s2
20018ac4:	4401                	li	s0,0
20018ac6:	b7cd                	j	20018aa8 <__divdf3+0xf0>
20018ac8:	01696ab3          	or	s5,s2,s6
20018acc:	000a8b63          	beqz	s5,20018ae2 <__divdf3+0x12a>
20018ad0:	8aca                	mv	s5,s2
20018ad2:	7ff00493          	li	s1,2047
20018ad6:	4b0d                	li	s6,3
20018ad8:	bf1d                	j	20018a0e <__divdf3+0x56>
20018ada:	4401                	li	s0,0
20018adc:	4481                	li	s1,0
20018ade:	4b05                	li	s6,1
20018ae0:	b73d                	j	20018a0e <__divdf3+0x56>
20018ae2:	4401                	li	s0,0
20018ae4:	7ff00493          	li	s1,2047
20018ae8:	4b09                	li	s6,2
20018aea:	b715                	j	20018a0e <__divdf3+0x56>
20018aec:	017968b3          	or	a7,s2,s7
20018af0:	06088363          	beqz	a7,20018b56 <__divdf3+0x19e>
20018af4:	02090c63          	beqz	s2,20018b2c <__divdf3+0x174>
20018af8:	854a                	mv	a0,s2
20018afa:	1f1020ef          	jal	ra,2001b4ea <__clzsi2>
20018afe:	ff550893          	addi	a7,a0,-11
20018b02:	47f1                	li	a5,28
20018b04:	0317ca63          	blt	a5,a7,20018b38 <__divdf3+0x180>
20018b08:	47f5                	li	a5,29
20018b0a:	ff850813          	addi	a6,a0,-8
20018b0e:	411787b3          	sub	a5,a5,a7
20018b12:	01091933          	sll	s2,s2,a6
20018b16:	00fbd7b3          	srl	a5,s7,a5
20018b1a:	0127e8b3          	or	a7,a5,s2
20018b1e:	010b9833          	sll	a6,s7,a6
20018b22:	c0d00793          	li	a5,-1011
20018b26:	40a78533          	sub	a0,a5,a0
20018b2a:	bf39                	j	20018a48 <__divdf3+0x90>
20018b2c:	855e                	mv	a0,s7
20018b2e:	1bd020ef          	jal	ra,2001b4ea <__clzsi2>
20018b32:	02050513          	addi	a0,a0,32
20018b36:	b7e1                	j	20018afe <__divdf3+0x146>
20018b38:	fd850793          	addi	a5,a0,-40
20018b3c:	00fb98b3          	sll	a7,s7,a5
20018b40:	4801                	li	a6,0
20018b42:	b7c5                	j	20018b22 <__divdf3+0x16a>
20018b44:	017968b3          	or	a7,s2,s7
20018b48:	00088b63          	beqz	a7,20018b5e <__divdf3+0x1a6>
20018b4c:	88ca                	mv	a7,s2
20018b4e:	7ff00513          	li	a0,2047
20018b52:	478d                	li	a5,3
20018b54:	bddd                	j	20018a4a <__divdf3+0x92>
20018b56:	4801                	li	a6,0
20018b58:	4501                	li	a0,0
20018b5a:	4785                	li	a5,1
20018b5c:	b5fd                	j	20018a4a <__divdf3+0x92>
20018b5e:	4801                	li	a6,0
20018b60:	7ff00513          	li	a0,2047
20018b64:	4789                	li	a5,2
20018b66:	b5d5                	j	20018a4a <__divdf3+0x92>
20018b68:	0158e663          	bltu	a7,s5,20018b74 <__divdf3+0x1bc>
20018b6c:	2b1a9863          	bne	s5,a7,20018e1c <__divdf3+0x464>
20018b70:	2b046663          	bltu	s0,a6,20018e1c <__divdf3+0x464>
20018b74:	01fa9693          	slli	a3,s5,0x1f
20018b78:	00145793          	srli	a5,s0,0x1
20018b7c:	01f41713          	slli	a4,s0,0x1f
20018b80:	001ada93          	srli	s5,s5,0x1
20018b84:	00f6e433          	or	s0,a3,a5
20018b88:	00889793          	slli	a5,a7,0x8
20018b8c:	01885893          	srli	a7,a6,0x18
20018b90:	00f8e7b3          	or	a5,a7,a5
20018b94:	0107de93          	srli	t4,a5,0x10
20018b98:	03dad8b3          	divu	a7,s5,t4
20018b9c:	01079e13          	slli	t3,a5,0x10
20018ba0:	010e5e13          	srli	t3,t3,0x10
20018ba4:	00881313          	slli	t1,a6,0x8
20018ba8:	01045693          	srli	a3,s0,0x10
20018bac:	03daf933          	remu	s2,s5,t4
20018bb0:	85c6                	mv	a1,a7
20018bb2:	031e0833          	mul	a6,t3,a7
20018bb6:	01091a93          	slli	s5,s2,0x10
20018bba:	0156e6b3          	or	a3,a3,s5
20018bbe:	0106fc63          	bgeu	a3,a6,20018bd6 <__divdf3+0x21e>
20018bc2:	96be                	add	a3,a3,a5
20018bc4:	fff88593          	addi	a1,a7,-1 # 7fffff <__heap_size+0x7ffbff>
20018bc8:	00f6e763          	bltu	a3,a5,20018bd6 <__divdf3+0x21e>
20018bcc:	0106f563          	bgeu	a3,a6,20018bd6 <__divdf3+0x21e>
20018bd0:	ffe88593          	addi	a1,a7,-2
20018bd4:	96be                	add	a3,a3,a5
20018bd6:	410686b3          	sub	a3,a3,a6
20018bda:	03d6df33          	divu	t5,a3,t4
20018bde:	0442                	slli	s0,s0,0x10
20018be0:	8041                	srli	s0,s0,0x10
20018be2:	03d6f6b3          	remu	a3,a3,t4
20018be6:	887a                	mv	a6,t5
20018be8:	03ee08b3          	mul	a7,t3,t5
20018bec:	06c2                	slli	a3,a3,0x10
20018bee:	8ec1                	or	a3,a3,s0
20018bf0:	0116fc63          	bgeu	a3,a7,20018c08 <__divdf3+0x250>
20018bf4:	96be                	add	a3,a3,a5
20018bf6:	ffff0813          	addi	a6,t5,-1
20018bfa:	00f6e763          	bltu	a3,a5,20018c08 <__divdf3+0x250>
20018bfe:	0116f563          	bgeu	a3,a7,20018c08 <__divdf3+0x250>
20018c02:	ffef0813          	addi	a6,t5,-2
20018c06:	96be                	add	a3,a3,a5
20018c08:	41168433          	sub	s0,a3,a7
20018c0c:	01059693          	slli	a3,a1,0x10
20018c10:	65c1                	lui	a1,0x10
20018c12:	0106e6b3          	or	a3,a3,a6
20018c16:	fff58f13          	addi	t5,a1,-1 # ffff <__heap_size+0xfbff>
20018c1a:	0106d293          	srli	t0,a3,0x10
20018c1e:	01e6f833          	and	a6,a3,t5
20018c22:	01035f93          	srli	t6,t1,0x10
20018c26:	01e37f33          	and	t5,t1,t5
20018c2a:	03e803b3          	mul	t2,a6,t5
20018c2e:	03e284b3          	mul	s1,t0,t5
20018c32:	030f8833          	mul	a6,t6,a6
20018c36:	03f288b3          	mul	a7,t0,t6
20018c3a:	009802b3          	add	t0,a6,s1
20018c3e:	0103d813          	srli	a6,t2,0x10
20018c42:	9816                	add	a6,a6,t0
20018c44:	00987363          	bgeu	a6,s1,20018c4a <__divdf3+0x292>
20018c48:	98ae                	add	a7,a7,a1
20018c4a:	01085293          	srli	t0,a6,0x10
20018c4e:	92c6                	add	t0,t0,a7
20018c50:	68c1                	lui	a7,0x10
20018c52:	18fd                	addi	a7,a7,-1
20018c54:	011875b3          	and	a1,a6,a7
20018c58:	05c2                	slli	a1,a1,0x10
20018c5a:	0113f3b3          	and	t2,t2,a7
20018c5e:	959e                	add	a1,a1,t2
20018c60:	00546763          	bltu	s0,t0,20018c6e <__divdf3+0x2b6>
20018c64:	88b6                	mv	a7,a3
20018c66:	02541e63          	bne	s0,t0,20018ca2 <__divdf3+0x2ea>
20018c6a:	02b77c63          	bgeu	a4,a1,20018ca2 <__divdf3+0x2ea>
20018c6e:	971a                	add	a4,a4,t1
20018c70:	00673833          	sltu	a6,a4,t1
20018c74:	983e                	add	a6,a6,a5
20018c76:	9442                	add	s0,s0,a6
20018c78:	fff68893          	addi	a7,a3,-1
20018c7c:	0087e663          	bltu	a5,s0,20018c88 <__divdf3+0x2d0>
20018c80:	02879163          	bne	a5,s0,20018ca2 <__divdf3+0x2ea>
20018c84:	00676f63          	bltu	a4,t1,20018ca2 <__divdf3+0x2ea>
20018c88:	00546663          	bltu	s0,t0,20018c94 <__divdf3+0x2dc>
20018c8c:	00829b63          	bne	t0,s0,20018ca2 <__divdf3+0x2ea>
20018c90:	00b77963          	bgeu	a4,a1,20018ca2 <__divdf3+0x2ea>
20018c94:	971a                	add	a4,a4,t1
20018c96:	ffe68893          	addi	a7,a3,-2
20018c9a:	006736b3          	sltu	a3,a4,t1
20018c9e:	96be                	add	a3,a3,a5
20018ca0:	9436                	add	s0,s0,a3
20018ca2:	40b705b3          	sub	a1,a4,a1
20018ca6:	40540433          	sub	s0,s0,t0
20018caa:	00b73733          	sltu	a4,a4,a1
20018cae:	8c19                	sub	s0,s0,a4
20018cb0:	587d                	li	a6,-1
20018cb2:	0e878663          	beq	a5,s0,20018d9e <__divdf3+0x3e6>
20018cb6:	03d452b3          	divu	t0,s0,t4
20018cba:	0105d693          	srli	a3,a1,0x10
20018cbe:	03d47433          	remu	s0,s0,t4
20018cc2:	8816                	mv	a6,t0
20018cc4:	025e0733          	mul	a4,t3,t0
20018cc8:	0442                	slli	s0,s0,0x10
20018cca:	8c55                	or	s0,s0,a3
20018ccc:	00e47c63          	bgeu	s0,a4,20018ce4 <__divdf3+0x32c>
20018cd0:	943e                	add	s0,s0,a5
20018cd2:	fff28813          	addi	a6,t0,-1
20018cd6:	00f46763          	bltu	s0,a5,20018ce4 <__divdf3+0x32c>
20018cda:	00e47563          	bgeu	s0,a4,20018ce4 <__divdf3+0x32c>
20018cde:	ffe28813          	addi	a6,t0,-2
20018ce2:	943e                	add	s0,s0,a5
20018ce4:	8c19                	sub	s0,s0,a4
20018ce6:	03d456b3          	divu	a3,s0,t4
20018cea:	05c2                	slli	a1,a1,0x10
20018cec:	81c1                	srli	a1,a1,0x10
20018cee:	03d47433          	remu	s0,s0,t4
20018cf2:	8736                	mv	a4,a3
20018cf4:	02de0e33          	mul	t3,t3,a3
20018cf8:	0442                	slli	s0,s0,0x10
20018cfa:	8c4d                	or	s0,s0,a1
20018cfc:	01c47c63          	bgeu	s0,t3,20018d14 <__divdf3+0x35c>
20018d00:	943e                	add	s0,s0,a5
20018d02:	fff68713          	addi	a4,a3,-1
20018d06:	00f46763          	bltu	s0,a5,20018d14 <__divdf3+0x35c>
20018d0a:	01c47563          	bgeu	s0,t3,20018d14 <__divdf3+0x35c>
20018d0e:	ffe68713          	addi	a4,a3,-2
20018d12:	943e                	add	s0,s0,a5
20018d14:	0842                	slli	a6,a6,0x10
20018d16:	00e86833          	or	a6,a6,a4
20018d1a:	01081693          	slli	a3,a6,0x10
20018d1e:	82c1                	srli	a3,a3,0x10
20018d20:	01085593          	srli	a1,a6,0x10
20018d24:	03e68eb3          	mul	t4,a3,t5
20018d28:	41c40433          	sub	s0,s0,t3
20018d2c:	03e58f33          	mul	t5,a1,t5
20018d30:	02bf8e33          	mul	t3,t6,a1
20018d34:	02df8fb3          	mul	t6,t6,a3
20018d38:	010ed693          	srli	a3,t4,0x10
20018d3c:	9ffa                	add	t6,t6,t5
20018d3e:	96fe                	add	a3,a3,t6
20018d40:	01e6f463          	bgeu	a3,t5,20018d48 <__divdf3+0x390>
20018d44:	6741                	lui	a4,0x10
20018d46:	9e3a                	add	t3,t3,a4
20018d48:	0106d593          	srli	a1,a3,0x10
20018d4c:	95f2                	add	a1,a1,t3
20018d4e:	6e41                	lui	t3,0x10
20018d50:	1e7d                	addi	t3,t3,-1
20018d52:	01c6f733          	and	a4,a3,t3
20018d56:	0742                	slli	a4,a4,0x10
20018d58:	01cefeb3          	and	t4,t4,t3
20018d5c:	9776                	add	a4,a4,t4
20018d5e:	00b46563          	bltu	s0,a1,20018d68 <__divdf3+0x3b0>
20018d62:	18b41e63          	bne	s0,a1,20018efe <__divdf3+0x546>
20018d66:	cf05                	beqz	a4,20018d9e <__divdf3+0x3e6>
20018d68:	943e                	add	s0,s0,a5
20018d6a:	fff80693          	addi	a3,a6,-1
20018d6e:	02f46163          	bltu	s0,a5,20018d90 <__divdf3+0x3d8>
20018d72:	00b46663          	bltu	s0,a1,20018d7e <__divdf3+0x3c6>
20018d76:	18b41363          	bne	s0,a1,20018efc <__divdf3+0x544>
20018d7a:	00e37d63          	bgeu	t1,a4,20018d94 <__divdf3+0x3dc>
20018d7e:	ffe80693          	addi	a3,a6,-2
20018d82:	00131813          	slli	a6,t1,0x1
20018d86:	00683333          	sltu	t1,a6,t1
20018d8a:	979a                	add	a5,a5,t1
20018d8c:	943e                	add	s0,s0,a5
20018d8e:	8342                	mv	t1,a6
20018d90:	00b41563          	bne	s0,a1,20018d9a <__divdf3+0x3e2>
20018d94:	8836                	mv	a6,a3
20018d96:	00670463          	beq	a4,t1,20018d9e <__divdf3+0x3e6>
20018d9a:	0016e813          	ori	a6,a3,1
20018d9e:	3ff50693          	addi	a3,a0,1023
20018da2:	0ad05863          	blez	a3,20018e52 <__divdf3+0x49a>
20018da6:	00787793          	andi	a5,a6,7
20018daa:	cf81                	beqz	a5,20018dc2 <__divdf3+0x40a>
20018dac:	00f87793          	andi	a5,a6,15
20018db0:	4711                	li	a4,4
20018db2:	00e78863          	beq	a5,a4,20018dc2 <__divdf3+0x40a>
20018db6:	00480793          	addi	a5,a6,4
20018dba:	0107b833          	sltu	a6,a5,a6
20018dbe:	98c2                	add	a7,a7,a6
20018dc0:	883e                	mv	a6,a5
20018dc2:	00789793          	slli	a5,a7,0x7
20018dc6:	0007d963          	bgez	a5,20018dd8 <__divdf3+0x420>
20018dca:	ff0007b7          	lui	a5,0xff000
20018dce:	17fd                	addi	a5,a5,-1
20018dd0:	00f8f8b3          	and	a7,a7,a5
20018dd4:	40050693          	addi	a3,a0,1024
20018dd8:	7fe00793          	li	a5,2046
20018ddc:	10d7c763          	blt	a5,a3,20018eea <__divdf3+0x532>
20018de0:	00385813          	srli	a6,a6,0x3
20018de4:	01d89713          	slli	a4,a7,0x1d
20018de8:	01076733          	or	a4,a4,a6
20018dec:	0038d793          	srli	a5,a7,0x3
20018df0:	07b2                	slli	a5,a5,0xc
20018df2:	7ff6f693          	andi	a3,a3,2047
20018df6:	06d2                	slli	a3,a3,0x14
20018df8:	50b2                	lw	ra,44(sp)
20018dfa:	5422                	lw	s0,40(sp)
20018dfc:	83b1                	srli	a5,a5,0xc
20018dfe:	067e                	slli	a2,a2,0x1f
20018e00:	8fd5                	or	a5,a5,a3
20018e02:	00c7e6b3          	or	a3,a5,a2
20018e06:	5492                	lw	s1,36(sp)
20018e08:	5902                	lw	s2,32(sp)
20018e0a:	49f2                	lw	s3,28(sp)
20018e0c:	4a62                	lw	s4,24(sp)
20018e0e:	4ad2                	lw	s5,20(sp)
20018e10:	4b42                	lw	s6,16(sp)
20018e12:	4bb2                	lw	s7,12(sp)
20018e14:	853a                	mv	a0,a4
20018e16:	85b6                	mv	a1,a3
20018e18:	6145                	addi	sp,sp,48
20018e1a:	8082                	ret
20018e1c:	157d                	addi	a0,a0,-1
20018e1e:	4701                	li	a4,0
20018e20:	b3a5                	j	20018b88 <__divdf3+0x1d0>
20018e22:	864e                	mv	a2,s3
20018e24:	88d6                	mv	a7,s5
20018e26:	8822                	mv	a6,s0
20018e28:	87da                	mv	a5,s6
20018e2a:	4709                	li	a4,2
20018e2c:	0ae78f63          	beq	a5,a4,20018eea <__divdf3+0x532>
20018e30:	470d                	li	a4,3
20018e32:	0ae78563          	beq	a5,a4,20018edc <__divdf3+0x524>
20018e36:	4705                	li	a4,1
20018e38:	f6e793e3          	bne	a5,a4,20018d9e <__divdf3+0x3e6>
20018e3c:	4781                	li	a5,0
20018e3e:	4701                	li	a4,0
20018e40:	a885                	j	20018eb0 <__divdf3+0x4f8>
20018e42:	8652                	mv	a2,s4
20018e44:	b7dd                	j	20018e2a <__divdf3+0x472>
20018e46:	000808b7          	lui	a7,0x80
20018e4a:	4801                	li	a6,0
20018e4c:	4601                	li	a2,0
20018e4e:	478d                	li	a5,3
20018e50:	bfe9                	j	20018e2a <__divdf3+0x472>
20018e52:	4785                	li	a5,1
20018e54:	8f95                	sub	a5,a5,a3
20018e56:	03800713          	li	a4,56
20018e5a:	fef741e3          	blt	a4,a5,20018e3c <__divdf3+0x484>
20018e5e:	477d                	li	a4,31
20018e60:	04f74a63          	blt	a4,a5,20018eb4 <__divdf3+0x4fc>
20018e64:	41e50513          	addi	a0,a0,1054
20018e68:	00a89733          	sll	a4,a7,a0
20018e6c:	00f856b3          	srl	a3,a6,a5
20018e70:	00a81533          	sll	a0,a6,a0
20018e74:	8f55                	or	a4,a4,a3
20018e76:	00a03533          	snez	a0,a0
20018e7a:	8f49                	or	a4,a4,a0
20018e7c:	00f8d7b3          	srl	a5,a7,a5
20018e80:	00777693          	andi	a3,a4,7
20018e84:	ce81                	beqz	a3,20018e9c <__divdf3+0x4e4>
20018e86:	00f77693          	andi	a3,a4,15
20018e8a:	4591                	li	a1,4
20018e8c:	00b68863          	beq	a3,a1,20018e9c <__divdf3+0x4e4>
20018e90:	00470693          	addi	a3,a4,4 # 10004 <__heap_size+0xfc04>
20018e94:	00e6b733          	sltu	a4,a3,a4
20018e98:	97ba                	add	a5,a5,a4
20018e9a:	8736                	mv	a4,a3
20018e9c:	00879693          	slli	a3,a5,0x8
20018ea0:	0406ca63          	bltz	a3,20018ef4 <__divdf3+0x53c>
20018ea4:	01d79813          	slli	a6,a5,0x1d
20018ea8:	830d                	srli	a4,a4,0x3
20018eaa:	00e86733          	or	a4,a6,a4
20018eae:	838d                	srli	a5,a5,0x3
20018eb0:	4681                	li	a3,0
20018eb2:	bf3d                	j	20018df0 <__divdf3+0x438>
20018eb4:	5705                	li	a4,-31
20018eb6:	8f15                	sub	a4,a4,a3
20018eb8:	02000593          	li	a1,32
20018ebc:	00e8d733          	srl	a4,a7,a4
20018ec0:	4681                	li	a3,0
20018ec2:	00b78663          	beq	a5,a1,20018ece <__divdf3+0x516>
20018ec6:	43e50513          	addi	a0,a0,1086
20018eca:	00a896b3          	sll	a3,a7,a0
20018ece:	0106e6b3          	or	a3,a3,a6
20018ed2:	00d036b3          	snez	a3,a3
20018ed6:	8f55                	or	a4,a4,a3
20018ed8:	4781                	li	a5,0
20018eda:	b75d                	j	20018e80 <__divdf3+0x4c8>
20018edc:	000807b7          	lui	a5,0x80
20018ee0:	4701                	li	a4,0
20018ee2:	7ff00693          	li	a3,2047
20018ee6:	4601                	li	a2,0
20018ee8:	b721                	j	20018df0 <__divdf3+0x438>
20018eea:	4781                	li	a5,0
20018eec:	4701                	li	a4,0
20018eee:	7ff00693          	li	a3,2047
20018ef2:	bdfd                	j	20018df0 <__divdf3+0x438>
20018ef4:	4781                	li	a5,0
20018ef6:	4701                	li	a4,0
20018ef8:	4685                	li	a3,1
20018efa:	bddd                	j	20018df0 <__divdf3+0x438>
20018efc:	8836                	mv	a6,a3
20018efe:	86c2                	mv	a3,a6
20018f00:	bd69                	j	20018d9a <__divdf3+0x3e2>

20018f02 <__muldf3>:
20018f02:	7179                	addi	sp,sp,-48
20018f04:	d04a                	sw	s2,32(sp)
20018f06:	0145d913          	srli	s2,a1,0x14
20018f0a:	ce4e                	sw	s3,28(sp)
20018f0c:	cc52                	sw	s4,24(sp)
20018f0e:	ca56                	sw	s5,20(sp)
20018f10:	c85a                	sw	s6,16(sp)
20018f12:	c65e                	sw	s7,12(sp)
20018f14:	00c59a93          	slli	s5,a1,0xc
20018f18:	d606                	sw	ra,44(sp)
20018f1a:	d422                	sw	s0,40(sp)
20018f1c:	d226                	sw	s1,36(sp)
20018f1e:	7ff97913          	andi	s2,s2,2047
20018f22:	8b2a                	mv	s6,a0
20018f24:	8bb2                	mv	s7,a2
20018f26:	8a36                	mv	s4,a3
20018f28:	00cada93          	srli	s5,s5,0xc
20018f2c:	01f5d993          	srli	s3,a1,0x1f
20018f30:	08090763          	beqz	s2,20018fbe <__muldf3+0xbc>
20018f34:	7ff00793          	li	a5,2047
20018f38:	0cf90c63          	beq	s2,a5,20019010 <__muldf3+0x10e>
20018f3c:	01d55413          	srli	s0,a0,0x1d
20018f40:	0a8e                	slli	s5,s5,0x3
20018f42:	01546ab3          	or	s5,s0,s5
20018f46:	00800437          	lui	s0,0x800
20018f4a:	008ae433          	or	s0,s5,s0
20018f4e:	00351493          	slli	s1,a0,0x3
20018f52:	c0190913          	addi	s2,s2,-1023
20018f56:	4b01                	li	s6,0
20018f58:	014a5513          	srli	a0,s4,0x14
20018f5c:	00ca1a93          	slli	s5,s4,0xc
20018f60:	7ff57513          	andi	a0,a0,2047
20018f64:	875e                	mv	a4,s7
20018f66:	00cada93          	srli	s5,s5,0xc
20018f6a:	01fa5a13          	srli	s4,s4,0x1f
20018f6e:	c179                	beqz	a0,20019034 <__muldf3+0x132>
20018f70:	7ff00793          	li	a5,2047
20018f74:	10f50a63          	beq	a0,a5,20019088 <__muldf3+0x186>
20018f78:	01dbd793          	srli	a5,s7,0x1d
20018f7c:	0a8e                	slli	s5,s5,0x3
20018f7e:	0157eab3          	or	s5,a5,s5
20018f82:	008007b7          	lui	a5,0x800
20018f86:	00fae7b3          	or	a5,s5,a5
20018f8a:	003b9713          	slli	a4,s7,0x3
20018f8e:	c0150513          	addi	a0,a0,-1023
20018f92:	4681                	li	a3,0
20018f94:	002b1593          	slli	a1,s6,0x2
20018f98:	8dd5                	or	a1,a1,a3
20018f9a:	954a                	add	a0,a0,s2
20018f9c:	15fd                	addi	a1,a1,-1
20018f9e:	48b9                	li	a7,14
20018fa0:	0149c633          	xor	a2,s3,s4
20018fa4:	00150813          	addi	a6,a0,1
20018fa8:	10b8e163          	bltu	a7,a1,200190aa <__muldf3+0x1a8>
20018fac:	00005517          	auipc	a0,0x5
20018fb0:	7b850513          	addi	a0,a0,1976 # 2001e764 <zeroes.4476+0x4c>
20018fb4:	058a                	slli	a1,a1,0x2
20018fb6:	95aa                	add	a1,a1,a0
20018fb8:	418c                	lw	a1,0(a1)
20018fba:	95aa                	add	a1,a1,a0
20018fbc:	8582                	jr	a1
20018fbe:	00aae433          	or	s0,s5,a0
20018fc2:	c025                	beqz	s0,20019022 <__muldf3+0x120>
20018fc4:	020a8b63          	beqz	s5,20018ffa <__muldf3+0xf8>
20018fc8:	8556                	mv	a0,s5
20018fca:	520020ef          	jal	ra,2001b4ea <__clzsi2>
20018fce:	ff550793          	addi	a5,a0,-11
20018fd2:	4771                	li	a4,28
20018fd4:	02f74863          	blt	a4,a5,20019004 <__muldf3+0x102>
20018fd8:	4475                	li	s0,29
20018fda:	ff850493          	addi	s1,a0,-8
20018fde:	8c1d                	sub	s0,s0,a5
20018fe0:	009a9ab3          	sll	s5,s5,s1
20018fe4:	008b5433          	srl	s0,s6,s0
20018fe8:	01546433          	or	s0,s0,s5
20018fec:	009b14b3          	sll	s1,s6,s1
20018ff0:	c0d00913          	li	s2,-1011
20018ff4:	40a90933          	sub	s2,s2,a0
20018ff8:	bfb9                	j	20018f56 <__muldf3+0x54>
20018ffa:	4f0020ef          	jal	ra,2001b4ea <__clzsi2>
20018ffe:	02050513          	addi	a0,a0,32
20019002:	b7f1                	j	20018fce <__muldf3+0xcc>
20019004:	fd850413          	addi	s0,a0,-40
20019008:	008b1433          	sll	s0,s6,s0
2001900c:	4481                	li	s1,0
2001900e:	b7cd                	j	20018ff0 <__muldf3+0xee>
20019010:	00aae433          	or	s0,s5,a0
20019014:	c819                	beqz	s0,2001902a <__muldf3+0x128>
20019016:	84aa                	mv	s1,a0
20019018:	8456                	mv	s0,s5
2001901a:	7ff00913          	li	s2,2047
2001901e:	4b0d                	li	s6,3
20019020:	bf25                	j	20018f58 <__muldf3+0x56>
20019022:	4481                	li	s1,0
20019024:	4901                	li	s2,0
20019026:	4b05                	li	s6,1
20019028:	bf05                	j	20018f58 <__muldf3+0x56>
2001902a:	4481                	li	s1,0
2001902c:	7ff00913          	li	s2,2047
20019030:	4b09                	li	s6,2
20019032:	b71d                	j	20018f58 <__muldf3+0x56>
20019034:	017ae7b3          	or	a5,s5,s7
20019038:	c3a5                	beqz	a5,20019098 <__muldf3+0x196>
2001903a:	020a8b63          	beqz	s5,20019070 <__muldf3+0x16e>
2001903e:	8556                	mv	a0,s5
20019040:	4aa020ef          	jal	ra,2001b4ea <__clzsi2>
20019044:	ff550693          	addi	a3,a0,-11
20019048:	47f1                	li	a5,28
2001904a:	02d7c963          	blt	a5,a3,2001907c <__muldf3+0x17a>
2001904e:	47f5                	li	a5,29
20019050:	ff850713          	addi	a4,a0,-8
20019054:	8f95                	sub	a5,a5,a3
20019056:	00ea9ab3          	sll	s5,s5,a4
2001905a:	00fbd7b3          	srl	a5,s7,a5
2001905e:	0157e7b3          	or	a5,a5,s5
20019062:	00eb9733          	sll	a4,s7,a4
20019066:	c0d00613          	li	a2,-1011
2001906a:	40a60533          	sub	a0,a2,a0
2001906e:	b715                	j	20018f92 <__muldf3+0x90>
20019070:	855e                	mv	a0,s7
20019072:	478020ef          	jal	ra,2001b4ea <__clzsi2>
20019076:	02050513          	addi	a0,a0,32
2001907a:	b7e9                	j	20019044 <__muldf3+0x142>
2001907c:	fd850793          	addi	a5,a0,-40
20019080:	00fb97b3          	sll	a5,s7,a5
20019084:	4701                	li	a4,0
20019086:	b7c5                	j	20019066 <__muldf3+0x164>
20019088:	017ae7b3          	or	a5,s5,s7
2001908c:	cb91                	beqz	a5,200190a0 <__muldf3+0x19e>
2001908e:	87d6                	mv	a5,s5
20019090:	7ff00513          	li	a0,2047
20019094:	468d                	li	a3,3
20019096:	bdfd                	j	20018f94 <__muldf3+0x92>
20019098:	4701                	li	a4,0
2001909a:	4501                	li	a0,0
2001909c:	4685                	li	a3,1
2001909e:	bddd                	j	20018f94 <__muldf3+0x92>
200190a0:	4701                	li	a4,0
200190a2:	7ff00513          	li	a0,2047
200190a6:	4689                	li	a3,2
200190a8:	b5f5                	j	20018f94 <__muldf3+0x92>
200190aa:	6fc1                	lui	t6,0x10
200190ac:	ffff8f13          	addi	t5,t6,-1 # ffff <__heap_size+0xfbff>
200190b0:	0104d693          	srli	a3,s1,0x10
200190b4:	01075313          	srli	t1,a4,0x10
200190b8:	01e4f4b3          	and	s1,s1,t5
200190bc:	01e77733          	and	a4,a4,t5
200190c0:	029308b3          	mul	a7,t1,s1
200190c4:	029705b3          	mul	a1,a4,s1
200190c8:	02e682b3          	mul	t0,a3,a4
200190cc:	00588e33          	add	t3,a7,t0
200190d0:	0105d893          	srli	a7,a1,0x10
200190d4:	98f2                	add	a7,a7,t3
200190d6:	02668eb3          	mul	t4,a3,t1
200190da:	0058f363          	bgeu	a7,t0,200190e0 <__muldf3+0x1de>
200190de:	9efe                	add	t4,t4,t6
200190e0:	0108d913          	srli	s2,a7,0x10
200190e4:	01e8f8b3          	and	a7,a7,t5
200190e8:	0107df93          	srli	t6,a5,0x10
200190ec:	01e5f5b3          	and	a1,a1,t5
200190f0:	01e7f3b3          	and	t2,a5,t5
200190f4:	08c2                	slli	a7,a7,0x10
200190f6:	98ae                	add	a7,a7,a1
200190f8:	027687b3          	mul	a5,a3,t2
200190fc:	029385b3          	mul	a1,t2,s1
20019100:	029f84b3          	mul	s1,t6,s1
20019104:	00f48e33          	add	t3,s1,a5
20019108:	0105d493          	srli	s1,a1,0x10
2001910c:	94f2                	add	s1,s1,t3
2001910e:	03f686b3          	mul	a3,a3,t6
20019112:	00f4f463          	bgeu	s1,a5,2001911a <__muldf3+0x218>
20019116:	67c1                	lui	a5,0x10
20019118:	96be                	add	a3,a3,a5
2001911a:	0104df13          	srli	t5,s1,0x10
2001911e:	69c1                	lui	s3,0x10
20019120:	9f36                	add	t5,t5,a3
20019122:	fff98693          	addi	a3,s3,-1 # ffff <__heap_size+0xfbff>
20019126:	8cf5                	and	s1,s1,a3
20019128:	8df5                	and	a1,a1,a3
2001912a:	01045793          	srli	a5,s0,0x10
2001912e:	04c2                	slli	s1,s1,0x10
20019130:	8c75                	and	s0,s0,a3
20019132:	94ae                	add	s1,s1,a1
20019134:	028706b3          	mul	a3,a4,s0
20019138:	9926                	add	s2,s2,s1
2001913a:	02e78e33          	mul	t3,a5,a4
2001913e:	028305b3          	mul	a1,t1,s0
20019142:	02f30733          	mul	a4,t1,a5
20019146:	01c58333          	add	t1,a1,t3
2001914a:	0106d593          	srli	a1,a3,0x10
2001914e:	959a                	add	a1,a1,t1
20019150:	01c5f363          	bgeu	a1,t3,20019156 <__muldf3+0x254>
20019154:	974e                	add	a4,a4,s3
20019156:	0105d313          	srli	t1,a1,0x10
2001915a:	69c1                	lui	s3,0x10
2001915c:	00e302b3          	add	t0,t1,a4
20019160:	fff98713          	addi	a4,s3,-1 # ffff <__heap_size+0xfbff>
20019164:	8df9                	and	a1,a1,a4
20019166:	8ef9                	and	a3,a3,a4
20019168:	02838333          	mul	t1,t2,s0
2001916c:	05c2                	slli	a1,a1,0x10
2001916e:	95b6                	add	a1,a1,a3
20019170:	02778733          	mul	a4,a5,t2
20019174:	028f8433          	mul	s0,t6,s0
20019178:	02ff8e33          	mul	t3,t6,a5
2001917c:	943a                	add	s0,s0,a4
2001917e:	01035793          	srli	a5,t1,0x10
20019182:	943e                	add	s0,s0,a5
20019184:	00e47363          	bgeu	s0,a4,2001918a <__muldf3+0x288>
20019188:	9e4e                	add	t3,t3,s3
2001918a:	67c1                	lui	a5,0x10
2001918c:	17fd                	addi	a5,a5,-1
2001918e:	00f476b3          	and	a3,s0,a5
20019192:	00f37333          	and	t1,t1,a5
20019196:	06c2                	slli	a3,a3,0x10
20019198:	9eca                	add	t4,t4,s2
2001919a:	969a                	add	a3,a3,t1
2001919c:	009eb4b3          	sltu	s1,t4,s1
200191a0:	96fa                	add	a3,a3,t5
200191a2:	009687b3          	add	a5,a3,s1
200191a6:	9eae                	add	t4,t4,a1
200191a8:	00beb5b3          	sltu	a1,t4,a1
200191ac:	00578333          	add	t1,a5,t0
200191b0:	00b30fb3          	add	t6,t1,a1
200191b4:	01e6b6b3          	sltu	a3,a3,t5
200191b8:	0097b7b3          	sltu	a5,a5,s1
200191bc:	8fd5                	or	a5,a5,a3
200191be:	8041                	srli	s0,s0,0x10
200191c0:	00533333          	sltu	t1,t1,t0
200191c4:	00bfb5b3          	sltu	a1,t6,a1
200191c8:	97a2                	add	a5,a5,s0
200191ca:	00b365b3          	or	a1,t1,a1
200191ce:	97ae                	add	a5,a5,a1
200191d0:	97f2                	add	a5,a5,t3
200191d2:	017fd713          	srli	a4,t6,0x17
200191d6:	07a6                	slli	a5,a5,0x9
200191d8:	8fd9                	or	a5,a5,a4
200191da:	009e9713          	slli	a4,t4,0x9
200191de:	01176733          	or	a4,a4,a7
200191e2:	00e03733          	snez	a4,a4
200191e6:	017ede93          	srli	t4,t4,0x17
200191ea:	009f9693          	slli	a3,t6,0x9
200191ee:	01d76733          	or	a4,a4,t4
200191f2:	8f55                	or	a4,a4,a3
200191f4:	00779693          	slli	a3,a5,0x7
200191f8:	0a06d863          	bgez	a3,200192a8 <__muldf3+0x3a6>
200191fc:	00175693          	srli	a3,a4,0x1
20019200:	8b05                	andi	a4,a4,1
20019202:	8f55                	or	a4,a4,a3
20019204:	01f79693          	slli	a3,a5,0x1f
20019208:	8f55                	or	a4,a4,a3
2001920a:	8385                	srli	a5,a5,0x1
2001920c:	3ff80593          	addi	a1,a6,1023
20019210:	08b05e63          	blez	a1,200192ac <__muldf3+0x3aa>
20019214:	00777693          	andi	a3,a4,7
20019218:	ce81                	beqz	a3,20019230 <__muldf3+0x32e>
2001921a:	00f77693          	andi	a3,a4,15
2001921e:	4511                	li	a0,4
20019220:	00a68863          	beq	a3,a0,20019230 <__muldf3+0x32e>
20019224:	00470693          	addi	a3,a4,4
20019228:	00e6b733          	sltu	a4,a3,a4
2001922c:	97ba                	add	a5,a5,a4
2001922e:	8736                	mv	a4,a3
20019230:	00779693          	slli	a3,a5,0x7
20019234:	0006d863          	bgez	a3,20019244 <__muldf3+0x342>
20019238:	ff0006b7          	lui	a3,0xff000
2001923c:	16fd                	addi	a3,a3,-1
2001923e:	8ff5                	and	a5,a5,a3
20019240:	40080593          	addi	a1,a6,1024
20019244:	7fe00693          	li	a3,2046
20019248:	0eb6cc63          	blt	a3,a1,20019340 <__muldf3+0x43e>
2001924c:	00375693          	srli	a3,a4,0x3
20019250:	01d79713          	slli	a4,a5,0x1d
20019254:	8f55                	or	a4,a4,a3
20019256:	838d                	srli	a5,a5,0x3
20019258:	7ff5f693          	andi	a3,a1,2047
2001925c:	07b2                	slli	a5,a5,0xc
2001925e:	06d2                	slli	a3,a3,0x14
20019260:	50b2                	lw	ra,44(sp)
20019262:	5422                	lw	s0,40(sp)
20019264:	83b1                	srli	a5,a5,0xc
20019266:	067e                	slli	a2,a2,0x1f
20019268:	8fd5                	or	a5,a5,a3
2001926a:	00c7e6b3          	or	a3,a5,a2
2001926e:	5492                	lw	s1,36(sp)
20019270:	5902                	lw	s2,32(sp)
20019272:	49f2                	lw	s3,28(sp)
20019274:	4a62                	lw	s4,24(sp)
20019276:	4ad2                	lw	s5,20(sp)
20019278:	4b42                	lw	s6,16(sp)
2001927a:	4bb2                	lw	s7,12(sp)
2001927c:	853a                	mv	a0,a4
2001927e:	85b6                	mv	a1,a3
20019280:	6145                	addi	sp,sp,48
20019282:	8082                	ret
20019284:	864e                	mv	a2,s3
20019286:	87a2                	mv	a5,s0
20019288:	8726                	mv	a4,s1
2001928a:	86da                	mv	a3,s6
2001928c:	4589                	li	a1,2
2001928e:	0ab68963          	beq	a3,a1,20019340 <__muldf3+0x43e>
20019292:	458d                	li	a1,3
20019294:	08b68f63          	beq	a3,a1,20019332 <__muldf3+0x430>
20019298:	4585                	li	a1,1
2001929a:	f6b699e3          	bne	a3,a1,2001920c <__muldf3+0x30a>
2001929e:	4781                	li	a5,0
200192a0:	4701                	li	a4,0
200192a2:	a09d                	j	20019308 <__muldf3+0x406>
200192a4:	8652                	mv	a2,s4
200192a6:	b7dd                	j	2001928c <__muldf3+0x38a>
200192a8:	882a                	mv	a6,a0
200192aa:	b78d                	j	2001920c <__muldf3+0x30a>
200192ac:	4505                	li	a0,1
200192ae:	8d0d                	sub	a0,a0,a1
200192b0:	03800693          	li	a3,56
200192b4:	fea6c5e3          	blt	a3,a0,2001929e <__muldf3+0x39c>
200192b8:	46fd                	li	a3,31
200192ba:	04a6c963          	blt	a3,a0,2001930c <__muldf3+0x40a>
200192be:	41e80813          	addi	a6,a6,1054
200192c2:	010796b3          	sll	a3,a5,a6
200192c6:	00a755b3          	srl	a1,a4,a0
200192ca:	01071733          	sll	a4,a4,a6
200192ce:	8ecd                	or	a3,a3,a1
200192d0:	00e03733          	snez	a4,a4
200192d4:	8f55                	or	a4,a4,a3
200192d6:	00a7d7b3          	srl	a5,a5,a0
200192da:	00777693          	andi	a3,a4,7
200192de:	ce81                	beqz	a3,200192f6 <__muldf3+0x3f4>
200192e0:	00f77693          	andi	a3,a4,15
200192e4:	4591                	li	a1,4
200192e6:	00b68863          	beq	a3,a1,200192f6 <__muldf3+0x3f4>
200192ea:	00470693          	addi	a3,a4,4
200192ee:	00e6b733          	sltu	a4,a3,a4
200192f2:	97ba                	add	a5,a5,a4
200192f4:	8736                	mv	a4,a3
200192f6:	00879693          	slli	a3,a5,0x8
200192fa:	0406c863          	bltz	a3,2001934a <__muldf3+0x448>
200192fe:	01d79693          	slli	a3,a5,0x1d
20019302:	830d                	srli	a4,a4,0x3
20019304:	8f55                	or	a4,a4,a3
20019306:	838d                	srli	a5,a5,0x3
20019308:	4581                	li	a1,0
2001930a:	b7b9                	j	20019258 <__muldf3+0x356>
2001930c:	5685                	li	a3,-31
2001930e:	8e8d                	sub	a3,a3,a1
20019310:	02000893          	li	a7,32
20019314:	00d7d6b3          	srl	a3,a5,a3
20019318:	4581                	li	a1,0
2001931a:	01150663          	beq	a0,a7,20019326 <__muldf3+0x424>
2001931e:	43e80813          	addi	a6,a6,1086
20019322:	010795b3          	sll	a1,a5,a6
20019326:	8f4d                	or	a4,a4,a1
20019328:	00e03733          	snez	a4,a4
2001932c:	8f55                	or	a4,a4,a3
2001932e:	4781                	li	a5,0
20019330:	b76d                	j	200192da <__muldf3+0x3d8>
20019332:	000807b7          	lui	a5,0x80
20019336:	4701                	li	a4,0
20019338:	7ff00593          	li	a1,2047
2001933c:	4601                	li	a2,0
2001933e:	bf29                	j	20019258 <__muldf3+0x356>
20019340:	4781                	li	a5,0
20019342:	4701                	li	a4,0
20019344:	7ff00593          	li	a1,2047
20019348:	bf01                	j	20019258 <__muldf3+0x356>
2001934a:	4781                	li	a5,0
2001934c:	4701                	li	a4,0
2001934e:	4585                	li	a1,1
20019350:	b721                	j	20019258 <__muldf3+0x356>

20019352 <__eqtf2>:
20019352:	455c                	lw	a5,12(a0)
20019354:	0005af03          	lw	t5,0(a1)
20019358:	0045af83          	lw	t6,4(a1)
2001935c:	0085a283          	lw	t0,8(a1)
20019360:	45cc                	lw	a1,12(a1)
20019362:	6721                	lui	a4,0x8
20019364:	0107d693          	srli	a3,a5,0x10
20019368:	177d                	addi	a4,a4,-1
2001936a:	01079813          	slli	a6,a5,0x10
2001936e:	01059e93          	slli	t4,a1,0x10
20019372:	01f7d613          	srli	a2,a5,0x1f
20019376:	8ef9                	and	a3,a3,a4
20019378:	0105d793          	srli	a5,a1,0x10
2001937c:	1141                	addi	sp,sp,-16
2001937e:	00052883          	lw	a7,0(a0)
20019382:	00452303          	lw	t1,4(a0)
20019386:	00852e03          	lw	t3,8(a0)
2001938a:	01085813          	srli	a6,a6,0x10
2001938e:	010ede93          	srli	t4,t4,0x10
20019392:	8ff9                	and	a5,a5,a4
20019394:	81fd                	srli	a1,a1,0x1f
20019396:	00e69d63          	bne	a3,a4,200193b0 <__eqtf2+0x5e>
2001939a:	0068e733          	or	a4,a7,t1
2001939e:	01c76733          	or	a4,a4,t3
200193a2:	01076733          	or	a4,a4,a6
200193a6:	4505                	li	a0,1
200193a8:	e721                	bnez	a4,200193f0 <__eqtf2+0x9e>
200193aa:	04d79363          	bne	a5,a3,200193f0 <__eqtf2+0x9e>
200193ae:	a019                	j	200193b4 <__eqtf2+0x62>
200193b0:	00e79a63          	bne	a5,a4,200193c4 <__eqtf2+0x72>
200193b4:	01ff6733          	or	a4,t5,t6
200193b8:	00576733          	or	a4,a4,t0
200193bc:	01d76733          	or	a4,a4,t4
200193c0:	4505                	li	a0,1
200193c2:	e71d                	bnez	a4,200193f0 <__eqtf2+0x9e>
200193c4:	4505                	li	a0,1
200193c6:	02d79563          	bne	a5,a3,200193f0 <__eqtf2+0x9e>
200193ca:	03e89363          	bne	a7,t5,200193f0 <__eqtf2+0x9e>
200193ce:	03f31163          	bne	t1,t6,200193f0 <__eqtf2+0x9e>
200193d2:	005e1f63          	bne	t3,t0,200193f0 <__eqtf2+0x9e>
200193d6:	01d81d63          	bne	a6,t4,200193f0 <__eqtf2+0x9e>
200193da:	00b60d63          	beq	a2,a1,200193f4 <__eqtf2+0xa2>
200193de:	eb89                	bnez	a5,200193f0 <__eqtf2+0x9e>
200193e0:	0068e533          	or	a0,a7,t1
200193e4:	01c56533          	or	a0,a0,t3
200193e8:	01056533          	or	a0,a0,a6
200193ec:	00a03533          	snez	a0,a0
200193f0:	0141                	addi	sp,sp,16
200193f2:	8082                	ret
200193f4:	4501                	li	a0,0
200193f6:	bfed                	j	200193f0 <__eqtf2+0x9e>

200193f8 <__getf2>:
200193f8:	455c                	lw	a5,12(a0)
200193fa:	45d0                	lw	a2,12(a1)
200193fc:	0005a283          	lw	t0,0(a1)
20019400:	0045a883          	lw	a7,4(a1)
20019404:	0085af03          	lw	t5,8(a1)
20019408:	65a1                	lui	a1,0x8
2001940a:	0107d693          	srli	a3,a5,0x10
2001940e:	15fd                	addi	a1,a1,-1
20019410:	01079313          	slli	t1,a5,0x10
20019414:	01061e13          	slli	t3,a2,0x10
20019418:	01065713          	srli	a4,a2,0x10
2001941c:	8eed                	and	a3,a3,a1
2001941e:	1141                	addi	sp,sp,-16
20019420:	00052f83          	lw	t6,0(a0)
20019424:	00452803          	lw	a6,4(a0)
20019428:	00852e83          	lw	t4,8(a0)
2001942c:	01035313          	srli	t1,t1,0x10
20019430:	83fd                	srli	a5,a5,0x1f
20019432:	010e5e13          	srli	t3,t3,0x10
20019436:	8f6d                	and	a4,a4,a1
20019438:	827d                	srli	a2,a2,0x1f
2001943a:	00b69c63          	bne	a3,a1,20019452 <__getf2+0x5a>
2001943e:	01f865b3          	or	a1,a6,t6
20019442:	01d5e5b3          	or	a1,a1,t4
20019446:	0065e5b3          	or	a1,a1,t1
2001944a:	5579                	li	a0,-2
2001944c:	cdd1                	beqz	a1,200194e8 <__getf2+0xf0>
2001944e:	0141                	addi	sp,sp,16
20019450:	8082                	ret
20019452:	00b71a63          	bne	a4,a1,20019466 <__getf2+0x6e>
20019456:	0058e5b3          	or	a1,a7,t0
2001945a:	01e5e5b3          	or	a1,a1,t5
2001945e:	01c5e5b3          	or	a1,a1,t3
20019462:	5579                	li	a0,-2
20019464:	f5ed                	bnez	a1,2001944e <__getf2+0x56>
20019466:	e2d9                	bnez	a3,200194ec <__getf2+0xf4>
20019468:	01f86533          	or	a0,a6,t6
2001946c:	01d56533          	or	a0,a0,t4
20019470:	00656533          	or	a0,a0,t1
20019474:	00153513          	seqz	a0,a0
20019478:	eb01                	bnez	a4,20019488 <__getf2+0x90>
2001947a:	0058e5b3          	or	a1,a7,t0
2001947e:	01e5e5b3          	or	a1,a1,t5
20019482:	01c5e5b3          	or	a1,a1,t3
20019486:	c9a1                	beqz	a1,200194d6 <__getf2+0xde>
20019488:	e511                	bnez	a0,20019494 <__getf2+0x9c>
2001948a:	00c78863          	beq	a5,a2,2001949a <__getf2+0xa2>
2001948e:	4505                	li	a0,1
20019490:	dfdd                	beqz	a5,2001944e <__getf2+0x56>
20019492:	a011                	j	20019496 <__getf2+0x9e>
20019494:	fe4d                	bnez	a2,2001944e <__getf2+0x56>
20019496:	557d                	li	a0,-1
20019498:	bf5d                	j	2001944e <__getf2+0x56>
2001949a:	fed74ae3          	blt	a4,a3,2001948e <__getf2+0x96>
2001949e:	00e6d663          	bge	a3,a4,200194aa <__getf2+0xb2>
200194a2:	557d                	li	a0,-1
200194a4:	d7cd                	beqz	a5,2001944e <__getf2+0x56>
200194a6:	4505                	li	a0,1
200194a8:	b75d                	j	2001944e <__getf2+0x56>
200194aa:	fe6e62e3          	bltu	t3,t1,2001948e <__getf2+0x96>
200194ae:	03c31763          	bne	t1,t3,200194dc <__getf2+0xe4>
200194b2:	fddf6ee3          	bltu	t5,t4,2001948e <__getf2+0x96>
200194b6:	03df1663          	bne	t5,t4,200194e2 <__getf2+0xea>
200194ba:	fd08eae3          	bltu	a7,a6,2001948e <__getf2+0x96>
200194be:	01089463          	bne	a7,a6,200194c6 <__getf2+0xce>
200194c2:	fdf2e6e3          	bltu	t0,t6,2001948e <__getf2+0x96>
200194c6:	fd186ee3          	bltu	a6,a7,200194a2 <__getf2+0xaa>
200194ca:	4501                	li	a0,0
200194cc:	f90891e3          	bne	a7,a6,2001944e <__getf2+0x56>
200194d0:	f65fffe3          	bgeu	t6,t0,2001944e <__getf2+0x56>
200194d4:	b7f9                	j	200194a2 <__getf2+0xaa>
200194d6:	dd45                	beqz	a0,2001948e <__getf2+0x96>
200194d8:	4501                	li	a0,0
200194da:	bf95                	j	2001944e <__getf2+0x56>
200194dc:	fdc363e3          	bltu	t1,t3,200194a2 <__getf2+0xaa>
200194e0:	bfe5                	j	200194d8 <__getf2+0xe0>
200194e2:	fdeee0e3          	bltu	t4,t5,200194a2 <__getf2+0xaa>
200194e6:	bfcd                	j	200194d8 <__getf2+0xe0>
200194e8:	f6d707e3          	beq	a4,a3,20019456 <__getf2+0x5e>
200194ec:	ff59                	bnez	a4,2001948a <__getf2+0x92>
200194ee:	4501                	li	a0,0
200194f0:	b769                	j	2001947a <__getf2+0x82>

200194f2 <__letf2>:
200194f2:	455c                	lw	a5,12(a0)
200194f4:	45d0                	lw	a2,12(a1)
200194f6:	0005a283          	lw	t0,0(a1) # 8000 <__heap_size+0x7c00>
200194fa:	0045a883          	lw	a7,4(a1)
200194fe:	0085af03          	lw	t5,8(a1)
20019502:	65a1                	lui	a1,0x8
20019504:	0107d693          	srli	a3,a5,0x10
20019508:	15fd                	addi	a1,a1,-1
2001950a:	01079313          	slli	t1,a5,0x10
2001950e:	01061e13          	slli	t3,a2,0x10
20019512:	01065713          	srli	a4,a2,0x10
20019516:	8eed                	and	a3,a3,a1
20019518:	1141                	addi	sp,sp,-16
2001951a:	00052f83          	lw	t6,0(a0)
2001951e:	00452803          	lw	a6,4(a0)
20019522:	00852e83          	lw	t4,8(a0)
20019526:	01035313          	srli	t1,t1,0x10
2001952a:	83fd                	srli	a5,a5,0x1f
2001952c:	010e5e13          	srli	t3,t3,0x10
20019530:	8f6d                	and	a4,a4,a1
20019532:	827d                	srli	a2,a2,0x1f
20019534:	00b69c63          	bne	a3,a1,2001954c <__letf2+0x5a>
20019538:	01f865b3          	or	a1,a6,t6
2001953c:	01d5e5b3          	or	a1,a1,t4
20019540:	0065e5b3          	or	a1,a1,t1
20019544:	4509                	li	a0,2
20019546:	cdd1                	beqz	a1,200195e2 <__letf2+0xf0>
20019548:	0141                	addi	sp,sp,16
2001954a:	8082                	ret
2001954c:	00b71a63          	bne	a4,a1,20019560 <__letf2+0x6e>
20019550:	0058e5b3          	or	a1,a7,t0
20019554:	01e5e5b3          	or	a1,a1,t5
20019558:	01c5e5b3          	or	a1,a1,t3
2001955c:	4509                	li	a0,2
2001955e:	f5ed                	bnez	a1,20019548 <__letf2+0x56>
20019560:	e2d9                	bnez	a3,200195e6 <__letf2+0xf4>
20019562:	01f86533          	or	a0,a6,t6
20019566:	01d56533          	or	a0,a0,t4
2001956a:	00656533          	or	a0,a0,t1
2001956e:	00153513          	seqz	a0,a0
20019572:	eb01                	bnez	a4,20019582 <__letf2+0x90>
20019574:	0058e5b3          	or	a1,a7,t0
20019578:	01e5e5b3          	or	a1,a1,t5
2001957c:	01c5e5b3          	or	a1,a1,t3
20019580:	c9a1                	beqz	a1,200195d0 <__letf2+0xde>
20019582:	e511                	bnez	a0,2001958e <__letf2+0x9c>
20019584:	00c78863          	beq	a5,a2,20019594 <__letf2+0xa2>
20019588:	4505                	li	a0,1
2001958a:	dfdd                	beqz	a5,20019548 <__letf2+0x56>
2001958c:	a011                	j	20019590 <__letf2+0x9e>
2001958e:	fe4d                	bnez	a2,20019548 <__letf2+0x56>
20019590:	557d                	li	a0,-1
20019592:	bf5d                	j	20019548 <__letf2+0x56>
20019594:	fed74ae3          	blt	a4,a3,20019588 <__letf2+0x96>
20019598:	00e6d663          	bge	a3,a4,200195a4 <__letf2+0xb2>
2001959c:	557d                	li	a0,-1
2001959e:	d7cd                	beqz	a5,20019548 <__letf2+0x56>
200195a0:	4505                	li	a0,1
200195a2:	b75d                	j	20019548 <__letf2+0x56>
200195a4:	fe6e62e3          	bltu	t3,t1,20019588 <__letf2+0x96>
200195a8:	03c31763          	bne	t1,t3,200195d6 <__letf2+0xe4>
200195ac:	fddf6ee3          	bltu	t5,t4,20019588 <__letf2+0x96>
200195b0:	03df1663          	bne	t5,t4,200195dc <__letf2+0xea>
200195b4:	fd08eae3          	bltu	a7,a6,20019588 <__letf2+0x96>
200195b8:	01089463          	bne	a7,a6,200195c0 <__letf2+0xce>
200195bc:	fdf2e6e3          	bltu	t0,t6,20019588 <__letf2+0x96>
200195c0:	fd186ee3          	bltu	a6,a7,2001959c <__letf2+0xaa>
200195c4:	4501                	li	a0,0
200195c6:	f90891e3          	bne	a7,a6,20019548 <__letf2+0x56>
200195ca:	f65fffe3          	bgeu	t6,t0,20019548 <__letf2+0x56>
200195ce:	b7f9                	j	2001959c <__letf2+0xaa>
200195d0:	dd45                	beqz	a0,20019588 <__letf2+0x96>
200195d2:	4501                	li	a0,0
200195d4:	bf95                	j	20019548 <__letf2+0x56>
200195d6:	fdc363e3          	bltu	t1,t3,2001959c <__letf2+0xaa>
200195da:	bfe5                	j	200195d2 <__letf2+0xe0>
200195dc:	fdeee0e3          	bltu	t4,t5,2001959c <__letf2+0xaa>
200195e0:	bfcd                	j	200195d2 <__letf2+0xe0>
200195e2:	f6d707e3          	beq	a4,a3,20019550 <__letf2+0x5e>
200195e6:	ff59                	bnez	a4,20019584 <__letf2+0x92>
200195e8:	4501                	li	a0,0
200195ea:	b769                	j	20019574 <__letf2+0x82>

200195ec <__multf3>:
200195ec:	7131                	addi	sp,sp,-192
200195ee:	d74e                	sw	s3,172(sp)
200195f0:	00c5a983          	lw	s3,12(a1) # 800c <__heap_size+0x7c0c>
200195f4:	4194                	lw	a3,0(a1)
200195f6:	41dc                	lw	a5,4(a1)
200195f8:	c62a                	sw	a0,12(sp)
200195fa:	4588                	lw	a0,8(a1)
200195fc:	01099713          	slli	a4,s3,0x10
20019600:	d94a                	sw	s2,176(sp)
20019602:	d552                	sw	s4,168(sp)
20019604:	d356                	sw	s5,164(sp)
20019606:	d15a                	sw	s6,160(sp)
20019608:	00062a03          	lw	s4,0(a2) # 1000000 <__heap_size+0xfffc00>
2001960c:	00462b03          	lw	s6,4(a2)
20019610:	00862a83          	lw	s5,8(a2)
20019614:	00c62903          	lw	s2,12(a2)
20019618:	6621                	lui	a2,0x8
2001961a:	db26                	sw	s1,180(sp)
2001961c:	8341                	srli	a4,a4,0x10
2001961e:	0109d493          	srli	s1,s3,0x10
20019622:	167d                	addi	a2,a2,-1
20019624:	d6ce                	sw	s3,108(sp)
20019626:	df06                	sw	ra,188(sp)
20019628:	dd22                	sw	s0,184(sp)
2001962a:	cf5e                	sw	s7,156(sp)
2001962c:	cd62                	sw	s8,152(sp)
2001962e:	cb66                	sw	s9,148(sp)
20019630:	c96a                	sw	s10,144(sp)
20019632:	c76e                	sw	s11,140(sp)
20019634:	d0b6                	sw	a3,96(sp)
20019636:	d2be                	sw	a5,100(sp)
20019638:	d4aa                	sw	a0,104(sp)
2001963a:	d836                	sw	a3,48(sp)
2001963c:	da3e                	sw	a5,52(sp)
2001963e:	dc2a                	sw	a0,56(sp)
20019640:	de3a                	sw	a4,60(sp)
20019642:	8cf1                	and	s1,s1,a2
20019644:	01f9d993          	srli	s3,s3,0x1f
20019648:	cccd                	beqz	s1,20019702 <__multf3+0x116>
2001964a:	18c48363          	beq	s1,a2,200197d0 <__multf3+0x1e4>
2001964e:	67c1                	lui	a5,0x10
20019650:	8fd9                	or	a5,a5,a4
20019652:	de3e                	sw	a5,60(sp)
20019654:	1810                	addi	a2,sp,48
20019656:	187c                	addi	a5,sp,60
20019658:	4398                	lw	a4,0(a5)
2001965a:	ffc7a683          	lw	a3,-4(a5) # fffc <__heap_size+0xfbfc>
2001965e:	17f1                	addi	a5,a5,-4
20019660:	070e                	slli	a4,a4,0x3
20019662:	82f5                	srli	a3,a3,0x1d
20019664:	8f55                	or	a4,a4,a3
20019666:	c3d8                	sw	a4,4(a5)
20019668:	fef618e3          	bne	a2,a5,20019658 <__multf3+0x6c>
2001966c:	57c2                	lw	a5,48(sp)
2001966e:	7571                	lui	a0,0xffffc
20019670:	0505                	addi	a0,a0,1
20019672:	078e                	slli	a5,a5,0x3
20019674:	d83e                	sw	a5,48(sp)
20019676:	94aa                	add	s1,s1,a0
20019678:	4b81                	li	s7,0
2001967a:	01091513          	slli	a0,s2,0x10
2001967e:	6721                	lui	a4,0x8
20019680:	01095793          	srli	a5,s2,0x10
20019684:	8141                	srli	a0,a0,0x10
20019686:	177d                	addi	a4,a4,-1
20019688:	d6ca                	sw	s2,108(sp)
2001968a:	d0d2                	sw	s4,96(sp)
2001968c:	d2da                	sw	s6,100(sp)
2001968e:	d4d6                	sw	s5,104(sp)
20019690:	c0d2                	sw	s4,64(sp)
20019692:	c2da                	sw	s6,68(sp)
20019694:	c4d6                	sw	s5,72(sp)
20019696:	c6aa                	sw	a0,76(sp)
20019698:	8ff9                	and	a5,a5,a4
2001969a:	01f95913          	srli	s2,s2,0x1f
2001969e:	14078463          	beqz	a5,200197e6 <__multf3+0x1fa>
200196a2:	20e78b63          	beq	a5,a4,200198b8 <__multf3+0x2cc>
200196a6:	6ac1                	lui	s5,0x10
200196a8:	01556ab3          	or	s5,a0,s5
200196ac:	c6d6                	sw	s5,76(sp)
200196ae:	008c                	addi	a1,sp,64
200196b0:	00f8                	addi	a4,sp,76
200196b2:	4314                	lw	a3,0(a4)
200196b4:	ffc72603          	lw	a2,-4(a4) # 7ffc <__heap_size+0x7bfc>
200196b8:	1771                	addi	a4,a4,-4
200196ba:	068e                	slli	a3,a3,0x3
200196bc:	8275                	srli	a2,a2,0x1d
200196be:	8ed1                	or	a3,a3,a2
200196c0:	c354                	sw	a3,4(a4)
200196c2:	fee598e3          	bne	a1,a4,200196b2 <__multf3+0xc6>
200196c6:	4706                	lw	a4,64(sp)
200196c8:	7571                	lui	a0,0xffffc
200196ca:	0505                	addi	a0,a0,1
200196cc:	070e                	slli	a4,a4,0x3
200196ce:	c0ba                	sw	a4,64(sp)
200196d0:	97aa                	add	a5,a5,a0
200196d2:	4701                	li	a4,0
200196d4:	97a6                	add	a5,a5,s1
200196d6:	d03e                	sw	a5,32(sp)
200196d8:	0785                	addi	a5,a5,1
200196da:	ce3e                	sw	a5,28(sp)
200196dc:	002b9793          	slli	a5,s7,0x2
200196e0:	0129c6b3          	xor	a3,s3,s2
200196e4:	8fd9                	or	a5,a5,a4
200196e6:	c836                	sw	a3,16(sp)
200196e8:	17fd                	addi	a5,a5,-1
200196ea:	46b9                	li	a3,14
200196ec:	1ef6e463          	bltu	a3,a5,200198d4 <__multf3+0x2e8>
200196f0:	00005697          	auipc	a3,0x5
200196f4:	0b068693          	addi	a3,a3,176 # 2001e7a0 <zeroes.4476+0x88>
200196f8:	078a                	slli	a5,a5,0x2
200196fa:	97b6                	add	a5,a5,a3
200196fc:	439c                	lw	a5,0(a5)
200196fe:	97b6                	add	a5,a5,a3
20019700:	8782                	jr	a5
20019702:	00d7e633          	or	a2,a5,a3
20019706:	8e49                	or	a2,a2,a0
20019708:	8e59                	or	a2,a2,a4
2001970a:	ca79                	beqz	a2,200197e0 <__multf3+0x1f4>
2001970c:	c339                	beqz	a4,20019752 <__multf3+0x166>
2001970e:	853a                	mv	a0,a4
20019710:	5db010ef          	jal	ra,2001b4ea <__clzsi2>
20019714:	ff450693          	addi	a3,a0,-12 # ffffbff4 <metal_segment_heap_target_end+0x7fff7ff4>
20019718:	4056d793          	srai	a5,a3,0x5
2001971c:	8afd                	andi	a3,a3,31
2001971e:	cea9                	beqz	a3,20019778 <__multf3+0x18c>
20019720:	5771                	li	a4,-4
20019722:	02e78733          	mul	a4,a5,a4
20019726:	03010313          	addi	t1,sp,48
2001972a:	02000813          	li	a6,32
2001972e:	00279593          	slli	a1,a5,0x2
20019732:	40d80833          	sub	a6,a6,a3
20019736:	0731                	addi	a4,a4,12
20019738:	971a                	add	a4,a4,t1
2001973a:	04e31e63          	bne	t1,a4,20019796 <__multf3+0x1aa>
2001973e:	0118                	addi	a4,sp,128
20019740:	95ba                	add	a1,a1,a4
20019742:	5742                	lw	a4,48(sp)
20019744:	17fd                	addi	a5,a5,-1
20019746:	00d716b3          	sll	a3,a4,a3
2001974a:	fad5a823          	sw	a3,-80(a1)
2001974e:	56fd                	li	a3,-1
20019750:	a895                	j	200197c4 <__multf3+0x1d8>
20019752:	c511                	beqz	a0,2001975e <__multf3+0x172>
20019754:	597010ef          	jal	ra,2001b4ea <__clzsi2>
20019758:	02050513          	addi	a0,a0,32
2001975c:	bf65                	j	20019714 <__multf3+0x128>
2001975e:	c799                	beqz	a5,2001976c <__multf3+0x180>
20019760:	853e                	mv	a0,a5
20019762:	589010ef          	jal	ra,2001b4ea <__clzsi2>
20019766:	04050513          	addi	a0,a0,64
2001976a:	b76d                	j	20019714 <__multf3+0x128>
2001976c:	8536                	mv	a0,a3
2001976e:	57d010ef          	jal	ra,2001b4ea <__clzsi2>
20019772:	06050513          	addi	a0,a0,96
20019776:	bf79                	j	20019714 <__multf3+0x128>
20019778:	5671                	li	a2,-4
2001977a:	02c78633          	mul	a2,a5,a2
2001977e:	1878                	addi	a4,sp,60
20019780:	468d                	li	a3,3
20019782:	00c705b3          	add	a1,a4,a2
20019786:	418c                	lw	a1,0(a1)
20019788:	16fd                	addi	a3,a3,-1
2001978a:	1771                	addi	a4,a4,-4
2001978c:	c34c                	sw	a1,4(a4)
2001978e:	fef6dae3          	bge	a3,a5,20019782 <__multf3+0x196>
20019792:	17fd                	addi	a5,a5,-1
20019794:	bf6d                	j	2001974e <__multf3+0x162>
20019796:	ffc72603          	lw	a2,-4(a4)
2001979a:	00072883          	lw	a7,0(a4)
2001979e:	00b70e33          	add	t3,a4,a1
200197a2:	01065633          	srl	a2,a2,a6
200197a6:	00d898b3          	sll	a7,a7,a3
200197aa:	01166633          	or	a2,a2,a7
200197ae:	00ce2023          	sw	a2,0(t3) # 10000 <__heap_size+0xfc00>
200197b2:	1771                	addi	a4,a4,-4
200197b4:	b759                	j	2001973a <__multf3+0x14e>
200197b6:	00279713          	slli	a4,a5,0x2
200197ba:	1810                	addi	a2,sp,48
200197bc:	9732                	add	a4,a4,a2
200197be:	00072023          	sw	zero,0(a4)
200197c2:	17fd                	addi	a5,a5,-1
200197c4:	fed799e3          	bne	a5,a3,200197b6 <__multf3+0x1ca>
200197c8:	74f1                	lui	s1,0xffffc
200197ca:	04c5                	addi	s1,s1,17
200197cc:	8c89                	sub	s1,s1,a0
200197ce:	b56d                	j	20019678 <__multf3+0x8c>
200197d0:	8fd5                	or	a5,a5,a3
200197d2:	8fc9                	or	a5,a5,a0
200197d4:	8fd9                	or	a5,a5,a4
200197d6:	4b8d                	li	s7,3
200197d8:	ea0791e3          	bnez	a5,2001967a <__multf3+0x8e>
200197dc:	4b89                	li	s7,2
200197de:	bd71                	j	2001967a <__multf3+0x8e>
200197e0:	4481                	li	s1,0
200197e2:	4b85                	li	s7,1
200197e4:	bd59                	j	2001967a <__multf3+0x8e>
200197e6:	016a67b3          	or	a5,s4,s6
200197ea:	0157e7b3          	or	a5,a5,s5
200197ee:	8fc9                	or	a5,a5,a0
200197f0:	cff9                	beqz	a5,200198ce <__multf3+0x2e2>
200197f2:	c129                	beqz	a0,20019834 <__multf3+0x248>
200197f4:	4f7010ef          	jal	ra,2001b4ea <__clzsi2>
200197f8:	ff450613          	addi	a2,a0,-12
200197fc:	40565713          	srai	a4,a2,0x5
20019800:	8a7d                	andi	a2,a2,31
20019802:	ce39                	beqz	a2,20019860 <__multf3+0x274>
20019804:	56f1                	li	a3,-4
20019806:	02d706b3          	mul	a3,a4,a3
2001980a:	04010313          	addi	t1,sp,64
2001980e:	02000793          	li	a5,32
20019812:	00271813          	slli	a6,a4,0x2
20019816:	8f91                	sub	a5,a5,a2
20019818:	06b1                	addi	a3,a3,12
2001981a:	969a                	add	a3,a3,t1
2001981c:	06d31163          	bne	t1,a3,2001987e <__multf3+0x292>
20019820:	011c                	addi	a5,sp,128
20019822:	983e                	add	a6,a6,a5
20019824:	4786                	lw	a5,64(sp)
20019826:	177d                	addi	a4,a4,-1
20019828:	00c79633          	sll	a2,a5,a2
2001982c:	fcc82023          	sw	a2,-64(a6)
20019830:	56fd                	li	a3,-1
20019832:	a8ad                	j	200198ac <__multf3+0x2c0>
20019834:	000a8863          	beqz	s5,20019844 <__multf3+0x258>
20019838:	8556                	mv	a0,s5
2001983a:	4b1010ef          	jal	ra,2001b4ea <__clzsi2>
2001983e:	02050513          	addi	a0,a0,32
20019842:	bf5d                	j	200197f8 <__multf3+0x20c>
20019844:	000b0863          	beqz	s6,20019854 <__multf3+0x268>
20019848:	855a                	mv	a0,s6
2001984a:	4a1010ef          	jal	ra,2001b4ea <__clzsi2>
2001984e:	04050513          	addi	a0,a0,64
20019852:	b75d                	j	200197f8 <__multf3+0x20c>
20019854:	8552                	mv	a0,s4
20019856:	495010ef          	jal	ra,2001b4ea <__clzsi2>
2001985a:	06050513          	addi	a0,a0,96
2001985e:	bf69                	j	200197f8 <__multf3+0x20c>
20019860:	5671                	li	a2,-4
20019862:	02c70633          	mul	a2,a4,a2
20019866:	00f4                	addi	a3,sp,76
20019868:	478d                	li	a5,3
2001986a:	00c685b3          	add	a1,a3,a2
2001986e:	418c                	lw	a1,0(a1)
20019870:	17fd                	addi	a5,a5,-1
20019872:	16f1                	addi	a3,a3,-4
20019874:	c2cc                	sw	a1,4(a3)
20019876:	fee7dae3          	bge	a5,a4,2001986a <__multf3+0x27e>
2001987a:	177d                	addi	a4,a4,-1
2001987c:	bf55                	j	20019830 <__multf3+0x244>
2001987e:	ffc6a583          	lw	a1,-4(a3)
20019882:	0006a883          	lw	a7,0(a3)
20019886:	01068e33          	add	t3,a3,a6
2001988a:	00f5d5b3          	srl	a1,a1,a5
2001988e:	00c898b3          	sll	a7,a7,a2
20019892:	0115e5b3          	or	a1,a1,a7
20019896:	00be2023          	sw	a1,0(t3)
2001989a:	16f1                	addi	a3,a3,-4
2001989c:	b741                	j	2001981c <__multf3+0x230>
2001989e:	00271793          	slli	a5,a4,0x2
200198a2:	0090                	addi	a2,sp,64
200198a4:	97b2                	add	a5,a5,a2
200198a6:	0007a023          	sw	zero,0(a5)
200198aa:	177d                	addi	a4,a4,-1
200198ac:	fed719e3          	bne	a4,a3,2001989e <__multf3+0x2b2>
200198b0:	77f1                	lui	a5,0xffffc
200198b2:	07c5                	addi	a5,a5,17
200198b4:	8f89                	sub	a5,a5,a0
200198b6:	bd31                	j	200196d2 <__multf3+0xe6>
200198b8:	016a6a33          	or	s4,s4,s6
200198bc:	015a6ab3          	or	s5,s4,s5
200198c0:	00aaeab3          	or	s5,s5,a0
200198c4:	470d                	li	a4,3
200198c6:	e00a97e3          	bnez	s5,200196d4 <__multf3+0xe8>
200198ca:	4709                	li	a4,2
200198cc:	b521                	j	200196d4 <__multf3+0xe8>
200198ce:	4781                	li	a5,0
200198d0:	4705                	li	a4,1
200198d2:	b509                	j	200196d4 <__multf3+0xe8>
200198d4:	5742                	lw	a4,48(sp)
200198d6:	4e06                	lw	t3,64(sp)
200198d8:	6541                	lui	a0,0x10
200198da:	fff50693          	addi	a3,a0,-1 # ffff <__heap_size+0xfbff>
200198de:	01075f93          	srli	t6,a4,0x10
200198e2:	010e5a93          	srli	s5,t3,0x10
200198e6:	8f75                	and	a4,a4,a3
200198e8:	00de7e33          	and	t3,t3,a3
200198ec:	02ea87b3          	mul	a5,s5,a4
200198f0:	02ee0633          	mul	a2,t3,a4
200198f4:	03cf8833          	mul	a6,t6,t3
200198f8:	010785b3          	add	a1,a5,a6
200198fc:	01065793          	srli	a5,a2,0x10
20019900:	97ae                	add	a5,a5,a1
20019902:	035f8b33          	mul	s6,t6,s5
20019906:	0107f363          	bgeu	a5,a6,2001990c <__multf3+0x320>
2001990a:	9b2a                	add	s6,s6,a0
2001990c:	4f16                	lw	t5,68(sp)
2001990e:	0107d293          	srli	t0,a5,0x10
20019912:	8ff5                	and	a5,a5,a3
20019914:	8e75                	and	a2,a2,a3
20019916:	07c2                	slli	a5,a5,0x10
20019918:	97b2                	add	a5,a5,a2
2001991a:	010f5493          	srli	s1,t5,0x10
2001991e:	00df7f33          	and	t5,t5,a3
20019922:	d23e                	sw	a5,36(sp)
20019924:	d0be                	sw	a5,96(sp)
20019926:	02ef06b3          	mul	a3,t5,a4
2001992a:	02e487b3          	mul	a5,s1,a4
2001992e:	03ef8633          	mul	a2,t6,t5
20019932:	00c78533          	add	a0,a5,a2
20019936:	0106d793          	srli	a5,a3,0x10
2001993a:	97aa                	add	a5,a5,a0
2001993c:	029f8a33          	mul	s4,t6,s1
20019940:	00c7f463          	bgeu	a5,a2,20019948 <__multf3+0x35c>
20019944:	6641                	lui	a2,0x10
20019946:	9a32                	add	s4,s4,a2
20019948:	6641                	lui	a2,0x10
2001994a:	fff60593          	addi	a1,a2,-1 # ffff <__heap_size+0xfbff>
2001994e:	00b7f533          	and	a0,a5,a1
20019952:	0107dd93          	srli	s11,a5,0x10
20019956:	57d2                	lw	a5,52(sp)
20019958:	8eed                	and	a3,a3,a1
2001995a:	0542                	slli	a0,a0,0x10
2001995c:	0107d913          	srli	s2,a5,0x10
20019960:	8dfd                	and	a1,a1,a5
20019962:	9536                	add	a0,a0,a3
20019964:	02ba87b3          	mul	a5,s5,a1
20019968:	92aa                	add	t0,t0,a0
2001996a:	02be06b3          	mul	a3,t3,a1
2001996e:	03c90333          	mul	t1,s2,t3
20019972:	00678833          	add	a6,a5,t1
20019976:	0106d793          	srli	a5,a3,0x10
2001997a:	97c2                	add	a5,a5,a6
2001997c:	032a88b3          	mul	a7,s5,s2
20019980:	0067f363          	bgeu	a5,t1,20019986 <__multf3+0x39a>
20019984:	98b2                	add	a7,a7,a2
20019986:	0107d993          	srli	s3,a5,0x10
2001998a:	99c6                	add	s3,s3,a7
2001998c:	68c1                	lui	a7,0x10
2001998e:	fff88613          	addi	a2,a7,-1 # ffff <__heap_size+0xfbff>
20019992:	00c7f833          	and	a6,a5,a2
20019996:	0842                	slli	a6,a6,0x10
20019998:	00c6f7b3          	and	a5,a3,a2
2001999c:	983e                	add	a6,a6,a5
2001999e:	03e58633          	mul	a2,a1,t5
200199a2:	03e907b3          	mul	a5,s2,t5
200199a6:	01065e93          	srli	t4,a2,0x10
200199aa:	02b486b3          	mul	a3,s1,a1
200199ae:	96be                	add	a3,a3,a5
200199b0:	96f6                	add	a3,a3,t4
200199b2:	03248333          	mul	t1,s1,s2
200199b6:	00f6f363          	bgeu	a3,a5,200199bc <__multf3+0x3d0>
200199ba:	9346                	add	t1,t1,a7
200199bc:	0106d793          	srli	a5,a3,0x10
200199c0:	4ea6                	lw	t4,72(sp)
200199c2:	979a                	add	a5,a5,t1
200199c4:	63c1                	lui	t2,0x10
200199c6:	d43e                	sw	a5,40(sp)
200199c8:	fff38793          	addi	a5,t2,-1 # ffff <__heap_size+0xfbff>
200199cc:	010ed413          	srli	s0,t4,0x10
200199d0:	00fefeb3          	and	t4,t4,a5
200199d4:	02e408b3          	mul	a7,s0,a4
200199d8:	8e7d                	and	a2,a2,a5
200199da:	8efd                	and	a3,a3,a5
200199dc:	06c2                	slli	a3,a3,0x10
200199de:	96b2                	add	a3,a3,a2
200199e0:	02ee8333          	mul	t1,t4,a4
200199e4:	03df8bb3          	mul	s7,t6,t4
200199e8:	017887b3          	add	a5,a7,s7
200199ec:	01035893          	srli	a7,t1,0x10
200199f0:	98be                	add	a7,a7,a5
200199f2:	028f8633          	mul	a2,t6,s0
200199f6:	0178f363          	bgeu	a7,s7,200199fc <__multf3+0x410>
200199fa:	961e                	add	a2,a2,t2
200199fc:	0108d793          	srli	a5,a7,0x10
20019a00:	6c41                	lui	s8,0x10
20019a02:	97b2                	add	a5,a5,a2
20019a04:	fffc0613          	addi	a2,s8,-1 # ffff <__heap_size+0xfbff>
20019a08:	d63e                	sw	a5,44(sp)
20019a0a:	00c8f7b3          	and	a5,a7,a2
20019a0e:	58e2                	lw	a7,56(sp)
20019a10:	00c37333          	and	t1,t1,a2
20019a14:	07c2                	slli	a5,a5,0x10
20019a16:	0108d393          	srli	t2,a7,0x10
20019a1a:	00c8f633          	and	a2,a7,a2
20019a1e:	979a                	add	a5,a5,t1
20019a20:	03c608b3          	mul	a7,a2,t3
20019a24:	03c38cb3          	mul	s9,t2,t3
20019a28:	0108dd13          	srli	s10,a7,0x10
20019a2c:	02ca8333          	mul	t1,s5,a2
20019a30:	9366                	add	t1,t1,s9
20019a32:	936a                	add	t1,t1,s10
20019a34:	027a8bb3          	mul	s7,s5,t2
20019a38:	01937363          	bgeu	t1,s9,20019a3e <__multf3+0x452>
20019a3c:	9be2                	add	s7,s7,s8
20019a3e:	01035c13          	srli	s8,t1,0x10
20019a42:	9be2                	add	s7,s7,s8
20019a44:	6c41                	lui	s8,0x10
20019a46:	92da                	add	t0,t0,s6
20019a48:	fffc0c93          	addi	s9,s8,-1 # ffff <__heap_size+0xfbff>
20019a4c:	00a2b533          	sltu	a0,t0,a0
20019a50:	01937333          	and	t1,t1,s9
20019a54:	9daa                	add	s11,s11,a0
20019a56:	0342                	slli	t1,t1,0x10
20019a58:	0198f8b3          	and	a7,a7,s9
20019a5c:	9a6e                	add	s4,s4,s11
20019a5e:	989a                	add	a7,a7,t1
20019a60:	01028333          	add	t1,t0,a6
20019a64:	01033833          	sltu	a6,t1,a6
20019a68:	ca1a                	sw	t1,20(sp)
20019a6a:	d29a                	sw	t1,100(sp)
20019a6c:	013a0333          	add	t1,s4,s3
20019a70:	01030b33          	add	s6,t1,a6
20019a74:	013339b3          	sltu	s3,t1,s3
20019a78:	010b3833          	sltu	a6,s6,a6
20019a7c:	0109e833          	or	a6,s3,a6
20019a80:	00aa3533          	sltu	a0,s4,a0
20019a84:	9542                	add	a0,a0,a6
20019a86:	5822                	lw	a6,40(sp)
20019a88:	00db02b3          	add	t0,s6,a3
20019a8c:	59a2                	lw	s3,40(sp)
20019a8e:	00d2b6b3          	sltu	a3,t0,a3
20019a92:	9542                	add	a0,a0,a6
20019a94:	5332                	lw	t1,44(sp)
20019a96:	00d50833          	add	a6,a0,a3
20019a9a:	92be                	add	t0,t0,a5
20019a9c:	01353533          	sltu	a0,a0,s3
20019aa0:	00d836b3          	sltu	a3,a6,a3
20019aa4:	00f2b7b3          	sltu	a5,t0,a5
20019aa8:	00680db3          	add	s11,a6,t1
20019aac:	8ec9                	or	a3,a3,a0
20019aae:	5532                	lw	a0,44(sp)
20019ab0:	00fd8333          	add	t1,s11,a5
20019ab4:	92c6                	add	t0,t0,a7
20019ab6:	0112b8b3          	sltu	a7,t0,a7
20019aba:	00f337b3          	sltu	a5,t1,a5
20019abe:	cc16                	sw	t0,24(sp)
20019ac0:	d496                	sw	t0,104(sp)
20019ac2:	017302b3          	add	t0,t1,s7
20019ac6:	4336                	lw	t1,76(sp)
20019ac8:	01128d33          	add	s10,t0,a7
20019acc:	00adbdb3          	sltu	s11,s11,a0
20019ad0:	00fde7b3          	or	a5,s11,a5
20019ad4:	0172bbb3          	sltu	s7,t0,s7
20019ad8:	011d38b3          	sltu	a7,s10,a7
20019adc:	96be                	add	a3,a3,a5
20019ade:	01035293          	srli	t0,t1,0x10
20019ae2:	011bea33          	or	s4,s7,a7
20019ae6:	01937333          	and	t1,t1,s9
20019aea:	02e307b3          	mul	a5,t1,a4
20019aee:	9a36                	add	s4,s4,a3
20019af0:	02e28733          	mul	a4,t0,a4
20019af4:	0107d893          	srli	a7,a5,0x10
20019af8:	026f86b3          	mul	a3,t6,t1
20019afc:	9736                	add	a4,a4,a3
20019afe:	98ba                	add	a7,a7,a4
20019b00:	025f8fb3          	mul	t6,t6,t0
20019b04:	00d8f363          	bgeu	a7,a3,20019b0a <__multf3+0x51e>
20019b08:	9fe2                	add	t6,t6,s8
20019b0a:	59f2                	lw	s3,60(sp)
20019b0c:	66c1                	lui	a3,0x10
20019b0e:	fff68513          	addi	a0,a3,-1 # ffff <__heap_size+0xfbff>
20019b12:	0108d713          	srli	a4,a7,0x10
20019b16:	00a8f8b3          	and	a7,a7,a0
20019b1a:	977e                	add	a4,a4,t6
20019b1c:	8fe9                	and	a5,a5,a0
20019b1e:	0109df93          	srli	t6,s3,0x10
20019b22:	08c2                	slli	a7,a7,0x10
20019b24:	00a9f9b3          	and	s3,s3,a0
20019b28:	98be                	add	a7,a7,a5
20019b2a:	03fa8b33          	mul	s6,s5,t6
20019b2e:	8dba                	mv	s11,a4
20019b30:	033e07b3          	mul	a5,t3,s3
20019b34:	033a8ab3          	mul	s5,s5,s3
20019b38:	0107d813          	srli	a6,a5,0x10
20019b3c:	03cf8e33          	mul	t3,t6,t3
20019b40:	9af2                	add	s5,s5,t3
20019b42:	9ac2                	add	s5,s5,a6
20019b44:	01caf363          	bgeu	s5,t3,20019b4a <__multf3+0x55e>
20019b48:	9b36                	add	s6,s6,a3
20019b4a:	010ad813          	srli	a6,s5,0x10
20019b4e:	01680733          	add	a4,a6,s6
20019b52:	6b41                	lui	s6,0x10
20019b54:	d43a                	sw	a4,40(sp)
20019b56:	fffb0713          	addi	a4,s6,-1 # ffff <__heap_size+0xfbff>
20019b5a:	00eaf833          	and	a6,s5,a4
20019b5e:	8ff9                	and	a5,a5,a4
20019b60:	0842                	slli	a6,a6,0x10
20019b62:	983e                	add	a6,a6,a5
20019b64:	02be86b3          	mul	a3,t4,a1
20019b68:	03d90e33          	mul	t3,s2,t4
20019b6c:	0106d513          	srli	a0,a3,0x10
20019b70:	02b407b3          	mul	a5,s0,a1
20019b74:	97f2                	add	a5,a5,t3
20019b76:	97aa                	add	a5,a5,a0
20019b78:	02890733          	mul	a4,s2,s0
20019b7c:	01c7f363          	bgeu	a5,t3,20019b82 <__multf3+0x596>
20019b80:	975a                	add	a4,a4,s6
20019b82:	0107d513          	srli	a0,a5,0x10
20019b86:	972a                	add	a4,a4,a0
20019b88:	6b41                	lui	s6,0x10
20019b8a:	d63a                	sw	a4,44(sp)
20019b8c:	fffb0713          	addi	a4,s6,-1 # ffff <__heap_size+0xfbff>
20019b90:	00e7f533          	and	a0,a5,a4
20019b94:	8ef9                	and	a3,a3,a4
20019b96:	03e38e33          	mul	t3,t2,t5
20019b9a:	0542                	slli	a0,a0,0x10
20019b9c:	9536                	add	a0,a0,a3
20019b9e:	03e60733          	mul	a4,a2,t5
20019ba2:	02c487b3          	mul	a5,s1,a2
20019ba6:	01075693          	srli	a3,a4,0x10
20019baa:	97f2                	add	a5,a5,t3
20019bac:	97b6                	add	a5,a5,a3
20019bae:	02748ab3          	mul	s5,s1,t2
20019bb2:	01c7f363          	bgeu	a5,t3,20019bb8 <__multf3+0x5cc>
20019bb6:	9ada                	add	s5,s5,s6
20019bb8:	66c1                	lui	a3,0x10
20019bba:	fff68e13          	addi	t3,a3,-1 # ffff <__heap_size+0xfbff>
20019bbe:	01c7f6b3          	and	a3,a5,t3
20019bc2:	0107db93          	srli	s7,a5,0x10
20019bc6:	011d07b3          	add	a5,s10,a7
20019bca:	01c77733          	and	a4,a4,t3
20019bce:	0117b8b3          	sltu	a7,a5,a7
20019bd2:	9a6e                	add	s4,s4,s11
20019bd4:	06c2                	slli	a3,a3,0x10
20019bd6:	96ba                	add	a3,a3,a4
20019bd8:	011a0d33          	add	s10,s4,a7
20019bdc:	5722                	lw	a4,40(sp)
20019bde:	011d38b3          	sltu	a7,s10,a7
20019be2:	01ba3a33          	sltu	s4,s4,s11
20019be6:	97c2                	add	a5,a5,a6
20019be8:	011a6a33          	or	s4,s4,a7
20019bec:	58a2                	lw	a7,40(sp)
20019bee:	0107b833          	sltu	a6,a5,a6
20019bf2:	00ed0b33          	add	s6,s10,a4
20019bf6:	5732                	lw	a4,44(sp)
20019bf8:	010b0cb3          	add	s9,s6,a6
20019bfc:	97aa                	add	a5,a5,a0
20019bfe:	011b3b33          	sltu	s6,s6,a7
20019c02:	010cb833          	sltu	a6,s9,a6
20019c06:	00a7b533          	sltu	a0,a5,a0
20019c0a:	9766                	add	a4,a4,s9
20019c0c:	010b6b33          	or	s6,s6,a6
20019c10:	5832                	lw	a6,44(sp)
20019c12:	00a70c33          	add	s8,a4,a0
20019c16:	9bd6                	add	s7,s7,s5
20019c18:	97b6                	add	a5,a5,a3
20019c1a:	00d7b6b3          	sltu	a3,a5,a3
20019c1e:	017c0ab3          	add	s5,s8,s7
20019c22:	00da8e33          	add	t3,s5,a3
20019c26:	01073733          	sltu	a4,a4,a6
20019c2a:	00ac3533          	sltu	a0,s8,a0
20019c2e:	8f49                	or	a4,a4,a0
20019c30:	00de36b3          	sltu	a3,t3,a3
20019c34:	9a5a                	add	s4,s4,s6
20019c36:	017abab3          	sltu	s5,s5,s7
20019c3a:	9a3a                	add	s4,s4,a4
20019c3c:	00daeab3          	or	s5,s5,a3
20019c40:	015a06b3          	add	a3,s4,s5
20019c44:	02ce8833          	mul	a6,t4,a2
20019c48:	d6be                	sw	a5,108(sp)
20019c4a:	03d38a33          	mul	s4,t2,t4
20019c4e:	01085513          	srli	a0,a6,0x10
20019c52:	02c40733          	mul	a4,s0,a2
20019c56:	9752                	add	a4,a4,s4
20019c58:	972a                	add	a4,a4,a0
20019c5a:	027408b3          	mul	a7,s0,t2
20019c5e:	01477463          	bgeu	a4,s4,20019c66 <__multf3+0x67a>
20019c62:	6541                	lui	a0,0x10
20019c64:	98aa                	add	a7,a7,a0
20019c66:	6a41                	lui	s4,0x10
20019c68:	01075513          	srli	a0,a4,0x10
20019c6c:	fffa0a93          	addi	s5,s4,-1 # ffff <__heap_size+0xfbff>
20019c70:	98aa                	add	a7,a7,a0
20019c72:	01577533          	and	a0,a4,s5
20019c76:	01587833          	and	a6,a6,s5
20019c7a:	0542                	slli	a0,a0,0x10
20019c7c:	02690ab3          	mul	s5,s2,t1
20019c80:	9542                	add	a0,a0,a6
20019c82:	02b30833          	mul	a6,t1,a1
20019c86:	02b285b3          	mul	a1,t0,a1
20019c8a:	01085713          	srli	a4,a6,0x10
20019c8e:	95d6                	add	a1,a1,s5
20019c90:	972e                	add	a4,a4,a1
20019c92:	02590933          	mul	s2,s2,t0
20019c96:	01577363          	bgeu	a4,s5,20019c9c <__multf3+0x6b0>
20019c9a:	9952                	add	s2,s2,s4
20019c9c:	6ac1                	lui	s5,0x10
20019c9e:	01075593          	srli	a1,a4,0x10
20019ca2:	fffa8a13          	addi	s4,s5,-1 # ffff <__heap_size+0xfbff>
20019ca6:	01487833          	and	a6,a6,s4
20019caa:	992e                	add	s2,s2,a1
20019cac:	014775b3          	and	a1,a4,s4
20019cb0:	05c2                	slli	a1,a1,0x10
20019cb2:	03e98733          	mul	a4,s3,t5
20019cb6:	95c2                	add	a1,a1,a6
20019cb8:	03ef8f33          	mul	t5,t6,t5
20019cbc:	01075813          	srli	a6,a4,0x10
20019cc0:	03f48a33          	mul	s4,s1,t6
20019cc4:	033484b3          	mul	s1,s1,s3
20019cc8:	94fa                	add	s1,s1,t5
20019cca:	94c2                	add	s1,s1,a6
20019ccc:	01e4f363          	bgeu	s1,t5,20019cd2 <__multf3+0x6e6>
20019cd0:	9a56                	add	s4,s4,s5
20019cd2:	0104db13          	srli	s6,s1,0x10
20019cd6:	9b52                	add	s6,s6,s4
20019cd8:	6a41                	lui	s4,0x10
20019cda:	fffa0f13          	addi	t5,s4,-1 # ffff <__heap_size+0xfbff>
20019cde:	01e4f833          	and	a6,s1,t5
20019ce2:	01e77733          	and	a4,a4,t5
20019ce6:	026384b3          	mul	s1,t2,t1
20019cea:	0842                	slli	a6,a6,0x10
20019cec:	983a                	add	a6,a6,a4
20019cee:	02660f33          	mul	t5,a2,t1
20019cf2:	02c28633          	mul	a2,t0,a2
20019cf6:	010f5713          	srli	a4,t5,0x10
20019cfa:	9626                	add	a2,a2,s1
20019cfc:	963a                	add	a2,a2,a4
20019cfe:	025383b3          	mul	t2,t2,t0
20019d02:	00967363          	bgeu	a2,s1,20019d08 <__multf3+0x71c>
20019d06:	93d2                	add	t2,t2,s4
20019d08:	6a41                	lui	s4,0x10
20019d0a:	01065713          	srli	a4,a2,0x10
20019d0e:	fffa0493          	addi	s1,s4,-1 # ffff <__heap_size+0xfbff>
20019d12:	93ba                	add	t2,t2,a4
20019d14:	00967733          	and	a4,a2,s1
20019d18:	009f7f33          	and	t5,t5,s1
20019d1c:	0742                	slli	a4,a4,0x10
20019d1e:	977a                	add	a4,a4,t5
20019d20:	03340633          	mul	a2,s0,s3
20019d24:	033e8f33          	mul	t5,t4,s3
20019d28:	03df8eb3          	mul	t4,t6,t4
20019d2c:	010f5a93          	srli	s5,t5,0x10
20019d30:	9676                	add	a2,a2,t4
20019d32:	9656                	add	a2,a2,s5
20019d34:	03f404b3          	mul	s1,s0,t6
20019d38:	01d67363          	bgeu	a2,t4,20019d3e <__multf3+0x752>
20019d3c:	94d2                	add	s1,s1,s4
20019d3e:	01065c13          	srli	s8,a2,0x10
20019d42:	6cc1                	lui	s9,0x10
20019d44:	9c26                	add	s8,s8,s1
20019d46:	9e2a                	add	t3,t3,a0
20019d48:	fffc8493          	addi	s1,s9,-1 # ffff <__heap_size+0xfbff>
20019d4c:	00ae3533          	sltu	a0,t3,a0
20019d50:	96c6                	add	a3,a3,a7
20019d52:	8e65                	and	a2,a2,s1
20019d54:	00a68db3          	add	s11,a3,a0
20019d58:	009f7f33          	and	t5,t5,s1
20019d5c:	9e2e                	add	t3,t3,a1
20019d5e:	0642                	slli	a2,a2,0x10
20019d60:	967a                	add	a2,a2,t5
20019d62:	00be35b3          	sltu	a1,t3,a1
20019d66:	012d8f33          	add	t5,s11,s2
20019d6a:	9e42                	add	t3,t3,a6
20019d6c:	00bf0d33          	add	s10,t5,a1
20019d70:	016d0eb3          	add	t4,s10,s6
20019d74:	d8f2                	sw	t3,112(sp)
20019d76:	010e3e33          	sltu	t3,t3,a6
20019d7a:	01ce8a33          	add	s4,t4,t3
20019d7e:	0116b6b3          	sltu	a3,a3,a7
20019d82:	00bd35b3          	sltu	a1,s10,a1
20019d86:	00adb533          	sltu	a0,s11,a0
20019d8a:	012f3933          	sltu	s2,t5,s2
20019d8e:	8d55                	or	a0,a0,a3
20019d90:	00b96933          	or	s2,s2,a1
20019d94:	016ebeb3          	sltu	t4,t4,s6
20019d98:	01ca3e33          	sltu	t3,s4,t3
20019d9c:	954a                	add	a0,a0,s2
20019d9e:	01ceeeb3          	or	t4,t4,t3
20019da2:	00ea0833          	add	a6,s4,a4
20019da6:	9576                	add	a0,a0,t4
20019da8:	00e83733          	sltu	a4,a6,a4
20019dac:	951e                	add	a0,a0,t2
20019dae:	00e506b3          	add	a3,a0,a4
20019db2:	007533b3          	sltu	t2,a0,t2
20019db6:	03330533          	mul	a0,t1,s3
20019dba:	9832                	add	a6,a6,a2
20019dbc:	00e6b733          	sltu	a4,a3,a4
20019dc0:	00c83633          	sltu	a2,a6,a2
20019dc4:	96e2                	add	a3,a3,s8
20019dc6:	00c685b3          	add	a1,a3,a2
20019dca:	0186bc33          	sltu	s8,a3,s8
20019dce:	00c5b633          	sltu	a2,a1,a2
20019dd2:	dac2                	sw	a6,116(sp)
20019dd4:	00e3e733          	or	a4,t2,a4
20019dd8:	026f8333          	mul	t1,t6,t1
20019ddc:	01055693          	srli	a3,a0,0x10
20019de0:	00cc6633          	or	a2,s8,a2
20019de4:	033289b3          	mul	s3,t0,s3
20019de8:	999a                	add	s3,s3,t1
20019dea:	03f28fb3          	mul	t6,t0,t6
20019dee:	013682b3          	add	t0,a3,s3
20019df2:	0062f363          	bgeu	t0,t1,20019df8 <__multf3+0x80c>
20019df6:	9fe6                	add	t6,t6,s9
20019df8:	0092f6b3          	and	a3,t0,s1
20019dfc:	06c2                	slli	a3,a3,0x10
20019dfe:	8ce9                	and	s1,s1,a0
20019e00:	94b6                	add	s1,s1,a3
20019e02:	0102d293          	srli	t0,t0,0x10
20019e06:	95a6                	add	a1,a1,s1
20019e08:	92ba                	add	t0,t0,a4
20019e0a:	46d2                	lw	a3,20(sp)
20019e0c:	5712                	lw	a4,36(sp)
20019e0e:	0095b4b3          	sltu	s1,a1,s1
20019e12:	92b2                	add	t0,t0,a2
20019e14:	92a6                	add	t0,t0,s1
20019e16:	9f96                	add	t6,t6,t0
20019e18:	00d762b3          	or	t0,a4,a3
20019e1c:	4762                	lw	a4,24(sp)
20019e1e:	07b6                	slli	a5,a5,0xd
20019e20:	dcae                	sw	a1,120(sp)
20019e22:	005762b3          	or	t0,a4,t0
20019e26:	defe                	sw	t6,124(sp)
20019e28:	0057e7b3          	or	a5,a5,t0
20019e2c:	1098                	addi	a4,sp,96
20019e2e:	188c                	addi	a1,sp,112
20019e30:	4754                	lw	a3,12(a4)
20019e32:	4b10                	lw	a2,16(a4)
20019e34:	0711                	addi	a4,a4,4
20019e36:	82cd                	srli	a3,a3,0x13
20019e38:	0636                	slli	a2,a2,0xd
20019e3a:	8ed1                	or	a3,a3,a2
20019e3c:	fed72e23          	sw	a3,-4(a4)
20019e40:	fee598e3          	bne	a1,a4,20019e30 <__multf3+0x844>
20019e44:	5706                	lw	a4,96(sp)
20019e46:	56a6                	lw	a3,104(sp)
20019e48:	00f037b3          	snez	a5,a5
20019e4c:	8fd9                	or	a5,a5,a4
20019e4e:	ccb6                	sw	a3,88(sp)
20019e50:	5736                	lw	a4,108(sp)
20019e52:	5696                	lw	a3,100(sp)
20019e54:	c8be                	sw	a5,80(sp)
20019e56:	ceba                	sw	a4,92(sp)
20019e58:	cab6                	sw	a3,84(sp)
20019e5a:	00b71693          	slli	a3,a4,0xb
20019e5e:	1406d363          	bgez	a3,20019fa4 <__multf3+0x9b8>
20019e62:	07fe                	slli	a5,a5,0x1f
20019e64:	0898                	addi	a4,sp,80
20019e66:	08ec                	addi	a1,sp,92
20019e68:	4314                	lw	a3,0(a4)
20019e6a:	4350                	lw	a2,4(a4)
20019e6c:	0711                	addi	a4,a4,4
20019e6e:	8285                	srli	a3,a3,0x1
20019e70:	067e                	slli	a2,a2,0x1f
20019e72:	8ed1                	or	a3,a3,a2
20019e74:	fed72e23          	sw	a3,-4(a4)
20019e78:	fee598e3          	bne	a1,a4,20019e68 <__multf3+0x87c>
20019e7c:	4776                	lw	a4,92(sp)
20019e7e:	00f037b3          	snez	a5,a5
20019e82:	8305                	srli	a4,a4,0x1
20019e84:	ceba                	sw	a4,92(sp)
20019e86:	4746                	lw	a4,80(sp)
20019e88:	8fd9                	or	a5,a5,a4
20019e8a:	c8be                	sw	a5,80(sp)
20019e8c:	4772                	lw	a4,28(sp)
20019e8e:	6791                	lui	a5,0x4
20019e90:	17fd                	addi	a5,a5,-1
20019e92:	97ba                	add	a5,a5,a4
20019e94:	12f05263          	blez	a5,20019fb8 <__multf3+0x9cc>
20019e98:	4746                	lw	a4,80(sp)
20019e9a:	00777693          	andi	a3,a4,7
20019e9e:	c69d                	beqz	a3,20019ecc <__multf3+0x8e0>
20019ea0:	00f77693          	andi	a3,a4,15
20019ea4:	4611                	li	a2,4
20019ea6:	02c68363          	beq	a3,a2,20019ecc <__multf3+0x8e0>
20019eaa:	46d6                	lw	a3,84(sp)
20019eac:	0711                	addi	a4,a4,4
20019eae:	c8ba                	sw	a4,80(sp)
20019eb0:	00473713          	sltiu	a4,a4,4
20019eb4:	96ba                	add	a3,a3,a4
20019eb6:	00e6b733          	sltu	a4,a3,a4
20019eba:	cab6                	sw	a3,84(sp)
20019ebc:	46e6                	lw	a3,88(sp)
20019ebe:	96ba                	add	a3,a3,a4
20019ec0:	ccb6                	sw	a3,88(sp)
20019ec2:	00e6b6b3          	sltu	a3,a3,a4
20019ec6:	4776                	lw	a4,92(sp)
20019ec8:	96ba                	add	a3,a3,a4
20019eca:	ceb6                	sw	a3,92(sp)
20019ecc:	4776                	lw	a4,92(sp)
20019ece:	00b71693          	slli	a3,a4,0xb
20019ed2:	0006da63          	bgez	a3,20019ee6 <__multf3+0x8fa>
20019ed6:	fff007b7          	lui	a5,0xfff00
20019eda:	17fd                	addi	a5,a5,-1
20019edc:	8f7d                	and	a4,a4,a5
20019ede:	ceba                	sw	a4,92(sp)
20019ee0:	4772                	lw	a4,28(sp)
20019ee2:	6791                	lui	a5,0x4
20019ee4:	97ba                	add	a5,a5,a4
20019ee6:	0898                	addi	a4,sp,80
20019ee8:	08ec                	addi	a1,sp,92
20019eea:	4314                	lw	a3,0(a4)
20019eec:	4350                	lw	a2,4(a4)
20019eee:	0711                	addi	a4,a4,4
20019ef0:	828d                	srli	a3,a3,0x3
20019ef2:	0676                	slli	a2,a2,0x1d
20019ef4:	8ed1                	or	a3,a3,a2
20019ef6:	fed72e23          	sw	a3,-4(a4)
20019efa:	feb718e3          	bne	a4,a1,20019eea <__multf3+0x8fe>
20019efe:	6721                	lui	a4,0x8
20019f00:	ffe70693          	addi	a3,a4,-2 # 7ffe <__heap_size+0x7bfe>
20019f04:	0af6c363          	blt	a3,a5,20019faa <__multf3+0x9be>
20019f08:	4776                	lw	a4,92(sp)
20019f0a:	830d                	srli	a4,a4,0x3
20019f0c:	ceba                	sw	a4,92(sp)
20019f0e:	4776                	lw	a4,92(sp)
20019f10:	07c6                	slli	a5,a5,0x11
20019f12:	800106b7          	lui	a3,0x80010
20019f16:	06e11623          	sh	a4,108(sp)
20019f1a:	5736                	lw	a4,108(sp)
20019f1c:	16fd                	addi	a3,a3,-1
20019f1e:	83c5                	srli	a5,a5,0x11
20019f20:	8f75                	and	a4,a4,a3
20019f22:	07c2                	slli	a5,a5,0x10
20019f24:	8fd9                	or	a5,a5,a4
20019f26:	4742                	lw	a4,16(sp)
20019f28:	0786                	slli	a5,a5,0x1
20019f2a:	8385                	srli	a5,a5,0x1
20019f2c:	077e                	slli	a4,a4,0x1f
20019f2e:	46b2                	lw	a3,12(sp)
20019f30:	8fd9                	or	a5,a5,a4
20019f32:	4746                	lw	a4,80(sp)
20019f34:	50fa                	lw	ra,188(sp)
20019f36:	546a                	lw	s0,184(sp)
20019f38:	c298                	sw	a4,0(a3)
20019f3a:	4756                	lw	a4,84(sp)
20019f3c:	c6dc                	sw	a5,12(a3)
20019f3e:	54da                	lw	s1,180(sp)
20019f40:	c2d8                	sw	a4,4(a3)
20019f42:	4766                	lw	a4,88(sp)
20019f44:	594a                	lw	s2,176(sp)
20019f46:	59ba                	lw	s3,172(sp)
20019f48:	c698                	sw	a4,8(a3)
20019f4a:	5a2a                	lw	s4,168(sp)
20019f4c:	5a9a                	lw	s5,164(sp)
20019f4e:	5b0a                	lw	s6,160(sp)
20019f50:	4bfa                	lw	s7,156(sp)
20019f52:	4c6a                	lw	s8,152(sp)
20019f54:	4cda                	lw	s9,148(sp)
20019f56:	4d4a                	lw	s10,144(sp)
20019f58:	4dba                	lw	s11,140(sp)
20019f5a:	8536                	mv	a0,a3
20019f5c:	6129                	addi	sp,sp,192
20019f5e:	8082                	ret
20019f60:	c84e                	sw	s3,16(sp)
20019f62:	57c2                	lw	a5,48(sp)
20019f64:	c8be                	sw	a5,80(sp)
20019f66:	57d2                	lw	a5,52(sp)
20019f68:	cabe                	sw	a5,84(sp)
20019f6a:	57e2                	lw	a5,56(sp)
20019f6c:	ccbe                	sw	a5,88(sp)
20019f6e:	57f2                	lw	a5,60(sp)
20019f70:	cebe                	sw	a5,92(sp)
20019f72:	4789                	li	a5,2
20019f74:	18fb8b63          	beq	s7,a5,2001a10a <__multf3+0xb1e>
20019f78:	478d                	li	a5,3
20019f7a:	18fb8f63          	beq	s7,a5,2001a118 <__multf3+0xb2c>
20019f7e:	4785                	li	a5,1
20019f80:	f0fb96e3          	bne	s7,a5,20019e8c <__multf3+0x8a0>
20019f84:	ce82                	sw	zero,92(sp)
20019f86:	cc82                	sw	zero,88(sp)
20019f88:	ca82                	sw	zero,84(sp)
20019f8a:	c882                	sw	zero,80(sp)
20019f8c:	aab1                	j	2001a0e8 <__multf3+0xafc>
20019f8e:	c84a                	sw	s2,16(sp)
20019f90:	4786                	lw	a5,64(sp)
20019f92:	8bba                	mv	s7,a4
20019f94:	c8be                	sw	a5,80(sp)
20019f96:	4796                	lw	a5,68(sp)
20019f98:	cabe                	sw	a5,84(sp)
20019f9a:	47a6                	lw	a5,72(sp)
20019f9c:	ccbe                	sw	a5,88(sp)
20019f9e:	47b6                	lw	a5,76(sp)
20019fa0:	cebe                	sw	a5,92(sp)
20019fa2:	bfc1                	j	20019f72 <__multf3+0x986>
20019fa4:	5782                	lw	a5,32(sp)
20019fa6:	ce3e                	sw	a5,28(sp)
20019fa8:	b5d5                	j	20019e8c <__multf3+0x8a0>
20019faa:	ce82                	sw	zero,92(sp)
20019fac:	cc82                	sw	zero,88(sp)
20019fae:	ca82                	sw	zero,84(sp)
20019fb0:	c882                	sw	zero,80(sp)
20019fb2:	fff70793          	addi	a5,a4,-1
20019fb6:	bfa1                	j	20019f0e <__multf3+0x922>
20019fb8:	4705                	li	a4,1
20019fba:	40f707b3          	sub	a5,a4,a5
20019fbe:	07400713          	li	a4,116
20019fc2:	12f74563          	blt	a4,a5,2001a0ec <__multf3+0xb00>
20019fc6:	4057d893          	srai	a7,a5,0x5
20019fca:	4701                	li	a4,0
20019fcc:	8bfd                	andi	a5,a5,31
20019fce:	4681                	li	a3,0
20019fd0:	00269613          	slli	a2,a3,0x2
20019fd4:	03169263          	bne	a3,a7,20019ff8 <__multf3+0xa0c>
20019fd8:	e795                	bnez	a5,2001a004 <__multf3+0xa18>
20019fda:	450d                	li	a0,3
20019fdc:	088c                	addi	a1,sp,80
20019fde:	40d506b3          	sub	a3,a0,a3
20019fe2:	00c58533          	add	a0,a1,a2
20019fe6:	4108                	lw	a0,0(a0)
20019fe8:	0785                	addi	a5,a5,1
20019fea:	0591                	addi	a1,a1,4
20019fec:	fea5ae23          	sw	a0,-4(a1)
20019ff0:	fef6d9e3          	bge	a3,a5,20019fe2 <__multf3+0x9f6>
20019ff4:	4611                	li	a2,4
20019ff6:	a041                	j	2001a076 <__multf3+0xa8a>
20019ff8:	088c                	addi	a1,sp,80
20019ffa:	962e                	add	a2,a2,a1
20019ffc:	4210                	lw	a2,0(a2)
20019ffe:	0685                	addi	a3,a3,1
2001a000:	8f51                	or	a4,a4,a2
2001a002:	b7f9                	j	20019fd0 <__multf3+0x9e4>
2001a004:	0114                	addi	a3,sp,128
2001a006:	96b2                	add	a3,a3,a2
2001a008:	fd06a683          	lw	a3,-48(a3) # 8000ffd0 <metal_segment_heap_target_end+0xbfd0>
2001a00c:	02000813          	li	a6,32
2001a010:	40f80833          	sub	a6,a6,a5
2001a014:	010696b3          	sll	a3,a3,a6
2001a018:	8f55                	or	a4,a4,a3
2001a01a:	0894                	addi	a3,sp,80
2001a01c:	9636                	add	a2,a2,a3
2001a01e:	468d                	li	a3,3
2001a020:	4501                	li	a0,0
2001a022:	411686b3          	sub	a3,a3,a7
2001a026:	0611                	addi	a2,a2,4
2001a028:	00d54e63          	blt	a0,a3,2001a044 <__multf3+0xa58>
2001a02c:	0110                	addi	a2,sp,128
2001a02e:	068a                	slli	a3,a3,0x2
2001a030:	96b2                	add	a3,a3,a2
2001a032:	4676                	lw	a2,92(sp)
2001a034:	00f657b3          	srl	a5,a2,a5
2001a038:	fcf6a823          	sw	a5,-48(a3)
2001a03c:	4791                	li	a5,4
2001a03e:	411787b3          	sub	a5,a5,a7
2001a042:	bf4d                	j	20019ff4 <__multf3+0xa08>
2001a044:	00251313          	slli	t1,a0,0x2
2001a048:	088c                	addi	a1,sp,80
2001a04a:	932e                	add	t1,t1,a1
2001a04c:	00062e03          	lw	t3,0(a2)
2001a050:	ffc62583          	lw	a1,-4(a2)
2001a054:	0505                	addi	a0,a0,1
2001a056:	010e1e33          	sll	t3,t3,a6
2001a05a:	00f5d5b3          	srl	a1,a1,a5
2001a05e:	01c5e5b3          	or	a1,a1,t3
2001a062:	00b32023          	sw	a1,0(t1) # 1000000 <__heap_size+0xfffc00>
2001a066:	b7c1                	j	2001a026 <__multf3+0xa3a>
2001a068:	00279693          	slli	a3,a5,0x2
2001a06c:	088c                	addi	a1,sp,80
2001a06e:	96ae                	add	a3,a3,a1
2001a070:	0006a023          	sw	zero,0(a3)
2001a074:	0785                	addi	a5,a5,1
2001a076:	fec799e3          	bne	a5,a2,2001a068 <__multf3+0xa7c>
2001a07a:	46c6                	lw	a3,80(sp)
2001a07c:	00e03733          	snez	a4,a4
2001a080:	8f55                	or	a4,a4,a3
2001a082:	c8ba                	sw	a4,80(sp)
2001a084:	00777693          	andi	a3,a4,7
2001a088:	c695                	beqz	a3,2001a0b4 <__multf3+0xac8>
2001a08a:	00f77693          	andi	a3,a4,15
2001a08e:	02f68363          	beq	a3,a5,2001a0b4 <__multf3+0xac8>
2001a092:	47d6                	lw	a5,84(sp)
2001a094:	0711                	addi	a4,a4,4
2001a096:	c8ba                	sw	a4,80(sp)
2001a098:	00473713          	sltiu	a4,a4,4
2001a09c:	97ba                	add	a5,a5,a4
2001a09e:	00e7b733          	sltu	a4,a5,a4
2001a0a2:	cabe                	sw	a5,84(sp)
2001a0a4:	47e6                	lw	a5,88(sp)
2001a0a6:	97ba                	add	a5,a5,a4
2001a0a8:	ccbe                	sw	a5,88(sp)
2001a0aa:	00e7b7b3          	sltu	a5,a5,a4
2001a0ae:	4776                	lw	a4,92(sp)
2001a0b0:	97ba                	add	a5,a5,a4
2001a0b2:	cebe                	sw	a5,92(sp)
2001a0b4:	47f6                	lw	a5,92(sp)
2001a0b6:	00c79713          	slli	a4,a5,0xc
2001a0ba:	00075863          	bgez	a4,2001a0ca <__multf3+0xade>
2001a0be:	ce82                	sw	zero,92(sp)
2001a0c0:	cc82                	sw	zero,88(sp)
2001a0c2:	ca82                	sw	zero,84(sp)
2001a0c4:	c882                	sw	zero,80(sp)
2001a0c6:	4785                	li	a5,1
2001a0c8:	b599                	j	20019f0e <__multf3+0x922>
2001a0ca:	089c                	addi	a5,sp,80
2001a0cc:	08f0                	addi	a2,sp,92
2001a0ce:	4398                	lw	a4,0(a5)
2001a0d0:	43d4                	lw	a3,4(a5)
2001a0d2:	0791                	addi	a5,a5,4
2001a0d4:	830d                	srli	a4,a4,0x3
2001a0d6:	06f6                	slli	a3,a3,0x1d
2001a0d8:	8f55                	or	a4,a4,a3
2001a0da:	fee7ae23          	sw	a4,-4(a5) # 3ffc <__heap_size+0x3bfc>
2001a0de:	fef618e3          	bne	a2,a5,2001a0ce <__multf3+0xae2>
2001a0e2:	47f6                	lw	a5,92(sp)
2001a0e4:	838d                	srli	a5,a5,0x3
2001a0e6:	cebe                	sw	a5,92(sp)
2001a0e8:	4781                	li	a5,0
2001a0ea:	b515                	j	20019f0e <__multf3+0x922>
2001a0ec:	47d6                	lw	a5,84(sp)
2001a0ee:	4746                	lw	a4,80(sp)
2001a0f0:	8f5d                	or	a4,a4,a5
2001a0f2:	47e6                	lw	a5,88(sp)
2001a0f4:	8f5d                	or	a4,a4,a5
2001a0f6:	47f6                	lw	a5,92(sp)
2001a0f8:	8f5d                	or	a4,a4,a5
2001a0fa:	4781                	li	a5,0
2001a0fc:	e00709e3          	beqz	a4,20019f0e <__multf3+0x922>
2001a100:	ce82                	sw	zero,92(sp)
2001a102:	cc82                	sw	zero,88(sp)
2001a104:	ca82                	sw	zero,84(sp)
2001a106:	c882                	sw	zero,80(sp)
2001a108:	b519                	j	20019f0e <__multf3+0x922>
2001a10a:	67a1                	lui	a5,0x8
2001a10c:	ce82                	sw	zero,92(sp)
2001a10e:	cc82                	sw	zero,88(sp)
2001a110:	ca82                	sw	zero,84(sp)
2001a112:	c882                	sw	zero,80(sp)
2001a114:	17fd                	addi	a5,a5,-1
2001a116:	bbe5                	j	20019f0e <__multf3+0x922>
2001a118:	67a1                	lui	a5,0x8
2001a11a:	cebe                	sw	a5,92(sp)
2001a11c:	cc82                	sw	zero,88(sp)
2001a11e:	ca82                	sw	zero,84(sp)
2001a120:	c882                	sw	zero,80(sp)
2001a122:	17fd                	addi	a5,a5,-1
2001a124:	c802                	sw	zero,16(sp)
2001a126:	b3e5                	j	20019f0e <__multf3+0x922>

2001a128 <__subtf3>:
2001a128:	711d                	addi	sp,sp,-96
2001a12a:	459c                	lw	a5,8(a1)
2001a12c:	c8ca                	sw	s2,80(sp)
2001a12e:	00c5a903          	lw	s2,12(a1)
2001a132:	41d8                	lw	a4,4(a1)
2001a134:	caa6                	sw	s1,84(sp)
2001a136:	84aa                	mv	s1,a0
2001a138:	4188                	lw	a0,0(a1)
2001a13a:	dc3e                	sw	a5,56(sp)
2001a13c:	cc3e                	sw	a5,24(sp)
2001a13e:	00062303          	lw	t1,0(a2)
2001a142:	01091793          	slli	a5,s2,0x10
2001a146:	00462883          	lw	a7,4(a2)
2001a14a:	4614                	lw	a3,8(a2)
2001a14c:	00c62803          	lw	a6,12(a2)
2001a150:	cca2                	sw	s0,88(sp)
2001a152:	83c1                	srli	a5,a5,0x10
2001a154:	00191413          	slli	s0,s2,0x1
2001a158:	de4a                	sw	s2,60(sp)
2001a15a:	ce86                	sw	ra,92(sp)
2001a15c:	c6ce                	sw	s3,76(sp)
2001a15e:	c4d2                	sw	s4,72(sp)
2001a160:	c2d6                	sw	s5,68(sp)
2001a162:	d82a                	sw	a0,48(sp)
2001a164:	da3a                	sw	a4,52(sp)
2001a166:	c82a                	sw	a0,16(sp)
2001a168:	ca3a                	sw	a4,20(sp)
2001a16a:	ce3e                	sw	a5,28(sp)
2001a16c:	8045                	srli	s0,s0,0x11
2001a16e:	01f95913          	srli	s2,s2,0x1f
2001a172:	01010e13          	addi	t3,sp,16
2001a176:	086c                	addi	a1,sp,28
2001a178:	419c                	lw	a5,0(a1)
2001a17a:	ffc5a703          	lw	a4,-4(a1)
2001a17e:	15f1                	addi	a1,a1,-4
2001a180:	078e                	slli	a5,a5,0x3
2001a182:	8375                	srli	a4,a4,0x1d
2001a184:	8fd9                	or	a5,a5,a4
2001a186:	c1dc                	sw	a5,4(a1)
2001a188:	febe18e3          	bne	t3,a1,2001a178 <__subtf3+0x50>
2001a18c:	4742                	lw	a4,16(sp)
2001a18e:	01081793          	slli	a5,a6,0x10
2001a192:	00181613          	slli	a2,a6,0x1
2001a196:	070e                	slli	a4,a4,0x3
2001a198:	83c1                	srli	a5,a5,0x10
2001a19a:	d81a                	sw	t1,48(sp)
2001a19c:	da46                	sw	a7,52(sp)
2001a19e:	de42                	sw	a6,60(sp)
2001a1a0:	d01a                	sw	t1,32(sp)
2001a1a2:	d246                	sw	a7,36(sp)
2001a1a4:	c83a                	sw	a4,16(sp)
2001a1a6:	dc36                	sw	a3,56(sp)
2001a1a8:	d436                	sw	a3,40(sp)
2001a1aa:	d63e                	sw	a5,44(sp)
2001a1ac:	8245                	srli	a2,a2,0x11
2001a1ae:	01f85813          	srli	a6,a6,0x1f
2001a1b2:	02010313          	addi	t1,sp,32
2001a1b6:	02c10893          	addi	a7,sp,44
2001a1ba:	0008a783          	lw	a5,0(a7)
2001a1be:	ffc8a683          	lw	a3,-4(a7)
2001a1c2:	18f1                	addi	a7,a7,-4
2001a1c4:	078e                	slli	a5,a5,0x3
2001a1c6:	82f5                	srli	a3,a3,0x1d
2001a1c8:	8fd5                	or	a5,a5,a3
2001a1ca:	00f8a223          	sw	a5,4(a7)
2001a1ce:	ff1316e3          	bne	t1,a7,2001a1ba <__subtf3+0x92>
2001a1d2:	5782                	lw	a5,32(sp)
2001a1d4:	66a1                	lui	a3,0x8
2001a1d6:	16fd                	addi	a3,a3,-1
2001a1d8:	078e                	slli	a5,a5,0x3
2001a1da:	d03e                	sw	a5,32(sp)
2001a1dc:	00d61963          	bne	a2,a3,2001a1ee <__subtf3+0xc6>
2001a1e0:	5522                	lw	a0,40(sp)
2001a1e2:	5692                	lw	a3,36(sp)
2001a1e4:	8ec9                	or	a3,a3,a0
2001a1e6:	5532                	lw	a0,44(sp)
2001a1e8:	8ec9                	or	a3,a3,a0
2001a1ea:	8edd                	or	a3,a3,a5
2001a1ec:	e299                	bnez	a3,2001a1f2 <__subtf3+0xca>
2001a1ee:	00184813          	xori	a6,a6,1
2001a1f2:	40c40533          	sub	a0,s0,a2
2001a1f6:	61281063          	bne	a6,s2,2001a7f6 <__subtf3+0x6ce>
2001a1fa:	20a05063          	blez	a0,2001a3fa <__subtf3+0x2d2>
2001a1fe:	e249                	bnez	a2,2001a280 <__subtf3+0x158>
2001a200:	5592                	lw	a1,36(sp)
2001a202:	5622                	lw	a2,40(sp)
2001a204:	5832                	lw	a6,44(sp)
2001a206:	00c5e6b3          	or	a3,a1,a2
2001a20a:	0106e6b3          	or	a3,a3,a6
2001a20e:	8edd                	or	a3,a3,a5
2001a210:	ea81                	bnez	a3,2001a220 <__subtf3+0xf8>
2001a212:	47d2                	lw	a5,20(sp)
2001a214:	d83a                	sw	a4,48(sp)
2001a216:	da3e                	sw	a5,52(sp)
2001a218:	47e2                	lw	a5,24(sp)
2001a21a:	dc3e                	sw	a5,56(sp)
2001a21c:	47f2                	lw	a5,28(sp)
2001a21e:	a419                	j	2001a424 <__subtf3+0x2fc>
2001a220:	fff50693          	addi	a3,a0,-1 # ffff <__heap_size+0xfbff>
2001a224:	e2a1                	bnez	a3,2001a264 <__subtf3+0x13c>
2001a226:	46d2                	lw	a3,20(sp)
2001a228:	97ba                	add	a5,a5,a4
2001a22a:	00e7b733          	sltu	a4,a5,a4
2001a22e:	95b6                	add	a1,a1,a3
2001a230:	d83e                	sw	a5,48(sp)
2001a232:	00e587b3          	add	a5,a1,a4
2001a236:	00e7b733          	sltu	a4,a5,a4
2001a23a:	da3e                	sw	a5,52(sp)
2001a23c:	47e2                	lw	a5,24(sp)
2001a23e:	00d5b6b3          	sltu	a3,a1,a3
2001a242:	8f55                	or	a4,a4,a3
2001a244:	00f606b3          	add	a3,a2,a5
2001a248:	00e68633          	add	a2,a3,a4
2001a24c:	00e63733          	sltu	a4,a2,a4
2001a250:	00f6b7b3          	sltu	a5,a3,a5
2001a254:	8fd9                	or	a5,a5,a4
2001a256:	4772                	lw	a4,28(sp)
2001a258:	dc32                	sw	a2,56(sp)
2001a25a:	983a                	add	a6,a6,a4
2001a25c:	97c2                	add	a5,a5,a6
2001a25e:	de3e                	sw	a5,60(sp)
2001a260:	4405                	li	s0,1
2001a262:	a289                	j	2001a3a4 <__subtf3+0x27c>
2001a264:	67a1                	lui	a5,0x8
2001a266:	17fd                	addi	a5,a5,-1
2001a268:	faf505e3          	beq	a0,a5,2001a212 <__subtf3+0xea>
2001a26c:	07400793          	li	a5,116
2001a270:	02d7de63          	bge	a5,a3,2001a2ac <__subtf3+0x184>
2001a274:	4785                	li	a5,1
2001a276:	d602                	sw	zero,44(sp)
2001a278:	d402                	sw	zero,40(sp)
2001a27a:	d202                	sw	zero,36(sp)
2001a27c:	d03e                	sw	a5,32(sp)
2001a27e:	a0d5                	j	2001a362 <__subtf3+0x23a>
2001a280:	67a1                	lui	a5,0x8
2001a282:	17fd                	addi	a5,a5,-1
2001a284:	00f41a63          	bne	s0,a5,2001a298 <__subtf3+0x170>
2001a288:	47d2                	lw	a5,20(sp)
2001a28a:	d83a                	sw	a4,48(sp)
2001a28c:	da3e                	sw	a5,52(sp)
2001a28e:	47e2                	lw	a5,24(sp)
2001a290:	dc3e                	sw	a5,56(sp)
2001a292:	47f2                	lw	a5,28(sp)
2001a294:	de3e                	sw	a5,60(sp)
2001a296:	aa49                	j	2001a428 <__subtf3+0x300>
2001a298:	57b2                	lw	a5,44(sp)
2001a29a:	00080737          	lui	a4,0x80
2001a29e:	8fd9                	or	a5,a5,a4
2001a2a0:	d63e                	sw	a5,44(sp)
2001a2a2:	07400793          	li	a5,116
2001a2a6:	fca7c7e3          	blt	a5,a0,2001a274 <__subtf3+0x14c>
2001a2aa:	86aa                	mv	a3,a0
2001a2ac:	4056de13          	srai	t3,a3,0x5
2001a2b0:	01f6f793          	andi	a5,a3,31
2001a2b4:	4601                	li	a2,0
2001a2b6:	4701                	li	a4,0
2001a2b8:	00271693          	slli	a3,a4,0x2
2001a2bc:	03c71163          	bne	a4,t3,2001a2de <__subtf3+0x1b6>
2001a2c0:	e785                	bnez	a5,2001a2e8 <__subtf3+0x1c0>
2001a2c2:	458d                	li	a1,3
2001a2c4:	40e58733          	sub	a4,a1,a4
2001a2c8:	00d885b3          	add	a1,a7,a3
2001a2cc:	418c                	lw	a1,0(a1)
2001a2ce:	0785                	addi	a5,a5,1
2001a2d0:	0891                	addi	a7,a7,4
2001a2d2:	feb8ae23          	sw	a1,-4(a7)
2001a2d6:	fef759e3          	bge	a4,a5,2001a2c8 <__subtf3+0x1a0>
2001a2da:	4691                	li	a3,4
2001a2dc:	a8a5                	j	2001a354 <__subtf3+0x22c>
2001a2de:	969a                	add	a3,a3,t1
2001a2e0:	4294                	lw	a3,0(a3)
2001a2e2:	0705                	addi	a4,a4,1
2001a2e4:	8e55                	or	a2,a2,a3
2001a2e6:	bfc9                	j	2001a2b8 <__subtf3+0x190>
2001a2e8:	0098                	addi	a4,sp,64
2001a2ea:	9736                	add	a4,a4,a3
2001a2ec:	fe072703          	lw	a4,-32(a4) # 7ffe0 <__heap_size+0x7fbe0>
2001a2f0:	02000813          	li	a6,32
2001a2f4:	40f80833          	sub	a6,a6,a5
2001a2f8:	01071733          	sll	a4,a4,a6
2001a2fc:	8e59                	or	a2,a2,a4
2001a2fe:	470d                	li	a4,3
2001a300:	969a                	add	a3,a3,t1
2001a302:	4501                	li	a0,0
2001a304:	41c70733          	sub	a4,a4,t3
2001a308:	0691                	addi	a3,a3,4
2001a30a:	00e54e63          	blt	a0,a4,2001a326 <__subtf3+0x1fe>
2001a30e:	0094                	addi	a3,sp,64
2001a310:	070a                	slli	a4,a4,0x2
2001a312:	9736                	add	a4,a4,a3
2001a314:	56b2                	lw	a3,44(sp)
2001a316:	00f6d7b3          	srl	a5,a3,a5
2001a31a:	fef72023          	sw	a5,-32(a4)
2001a31e:	4791                	li	a5,4
2001a320:	41c787b3          	sub	a5,a5,t3
2001a324:	bf5d                	j	2001a2da <__subtf3+0x1b2>
2001a326:	ffc6a583          	lw	a1,-4(a3) # 7ffc <__heap_size+0x7bfc>
2001a32a:	0006ae83          	lw	t4,0(a3)
2001a32e:	00251893          	slli	a7,a0,0x2
2001a332:	00f5d5b3          	srl	a1,a1,a5
2001a336:	010e9eb3          	sll	t4,t4,a6
2001a33a:	989a                	add	a7,a7,t1
2001a33c:	01d5e5b3          	or	a1,a1,t4
2001a340:	00b8a023          	sw	a1,0(a7)
2001a344:	0505                	addi	a0,a0,1
2001a346:	b7c9                	j	2001a308 <__subtf3+0x1e0>
2001a348:	00279713          	slli	a4,a5,0x2
2001a34c:	971a                	add	a4,a4,t1
2001a34e:	00072023          	sw	zero,0(a4)
2001a352:	0785                	addi	a5,a5,1
2001a354:	fed79ae3          	bne	a5,a3,2001a348 <__subtf3+0x220>
2001a358:	5782                	lw	a5,32(sp)
2001a35a:	00c03633          	snez	a2,a2
2001a35e:	8e5d                	or	a2,a2,a5
2001a360:	d032                	sw	a2,32(sp)
2001a362:	46c2                	lw	a3,16(sp)
2001a364:	5782                	lw	a5,32(sp)
2001a366:	4752                	lw	a4,20(sp)
2001a368:	55a2                	lw	a1,40(sp)
2001a36a:	97b6                	add	a5,a5,a3
2001a36c:	00d7b6b3          	sltu	a3,a5,a3
2001a370:	d83e                	sw	a5,48(sp)
2001a372:	5792                	lw	a5,36(sp)
2001a374:	5532                	lw	a0,44(sp)
2001a376:	97ba                	add	a5,a5,a4
2001a378:	00d78633          	add	a2,a5,a3
2001a37c:	00e7b733          	sltu	a4,a5,a4
2001a380:	00d637b3          	sltu	a5,a2,a3
2001a384:	8fd9                	or	a5,a5,a4
2001a386:	4762                	lw	a4,24(sp)
2001a388:	46f2                	lw	a3,28(sp)
2001a38a:	da32                	sw	a2,52(sp)
2001a38c:	95ba                	add	a1,a1,a4
2001a38e:	00f58633          	add	a2,a1,a5
2001a392:	00e5b733          	sltu	a4,a1,a4
2001a396:	00f637b3          	sltu	a5,a2,a5
2001a39a:	96aa                	add	a3,a3,a0
2001a39c:	8f5d                	or	a4,a4,a5
2001a39e:	9736                	add	a4,a4,a3
2001a3a0:	dc32                	sw	a2,56(sp)
2001a3a2:	de3a                	sw	a4,60(sp)
2001a3a4:	57f2                	lw	a5,60(sp)
2001a3a6:	00c79713          	slli	a4,a5,0xc
2001a3aa:	06075f63          	bgez	a4,2001a428 <__subtf3+0x300>
2001a3ae:	fff80737          	lui	a4,0xfff80
2001a3b2:	177d                	addi	a4,a4,-1
2001a3b4:	8ff9                	and	a5,a5,a4
2001a3b6:	de3e                	sw	a5,60(sp)
2001a3b8:	57c2                	lw	a5,48(sp)
2001a3ba:	0405                	addi	s0,s0,1
2001a3bc:	186c                	addi	a1,sp,60
2001a3be:	01f79713          	slli	a4,a5,0x1f
2001a3c2:	181c                	addi	a5,sp,48
2001a3c4:	4394                	lw	a3,0(a5)
2001a3c6:	43d0                	lw	a2,4(a5)
2001a3c8:	0791                	addi	a5,a5,4
2001a3ca:	8285                	srli	a3,a3,0x1
2001a3cc:	067e                	slli	a2,a2,0x1f
2001a3ce:	8ed1                	or	a3,a3,a2
2001a3d0:	fed7ae23          	sw	a3,-4(a5) # 7ffc <__heap_size+0x7bfc>
2001a3d4:	fef598e3          	bne	a1,a5,2001a3c4 <__subtf3+0x29c>
2001a3d8:	57f2                	lw	a5,60(sp)
2001a3da:	8385                	srli	a5,a5,0x1
2001a3dc:	de3e                	sw	a5,60(sp)
2001a3de:	00e037b3          	snez	a5,a4
2001a3e2:	5742                	lw	a4,48(sp)
2001a3e4:	8fd9                	or	a5,a5,a4
2001a3e6:	d83e                	sw	a5,48(sp)
2001a3e8:	67a1                	lui	a5,0x8
2001a3ea:	17fd                	addi	a5,a5,-1
2001a3ec:	02f41e63          	bne	s0,a5,2001a428 <__subtf3+0x300>
2001a3f0:	de02                	sw	zero,60(sp)
2001a3f2:	dc02                	sw	zero,56(sp)
2001a3f4:	da02                	sw	zero,52(sp)
2001a3f6:	d802                	sw	zero,48(sp)
2001a3f8:	a805                	j	2001a428 <__subtf3+0x300>
2001a3fa:	2a050463          	beqz	a0,2001a6a2 <__subtf3+0x57a>
2001a3fe:	40860533          	sub	a0,a2,s0
2001a402:	16041063          	bnez	s0,2001a562 <__subtf3+0x43a>
2001a406:	48d2                	lw	a7,20(sp)
2001a408:	4862                	lw	a6,24(sp)
2001a40a:	4372                	lw	t1,28(sp)
2001a40c:	0108e6b3          	or	a3,a7,a6
2001a410:	0066e6b3          	or	a3,a3,t1
2001a414:	8ed9                	or	a3,a3,a4
2001a416:	e6f5                	bnez	a3,2001a502 <__subtf3+0x3da>
2001a418:	d83e                	sw	a5,48(sp)
2001a41a:	5792                	lw	a5,36(sp)
2001a41c:	da3e                	sw	a5,52(sp)
2001a41e:	57a2                	lw	a5,40(sp)
2001a420:	dc3e                	sw	a5,56(sp)
2001a422:	57b2                	lw	a5,44(sp)
2001a424:	de3e                	sw	a5,60(sp)
2001a426:	842a                	mv	s0,a0
2001a428:	57c2                	lw	a5,48(sp)
2001a42a:	0077f713          	andi	a4,a5,7
2001a42e:	c71d                	beqz	a4,2001a45c <__subtf3+0x334>
2001a430:	00f7f713          	andi	a4,a5,15
2001a434:	4691                	li	a3,4
2001a436:	02d70363          	beq	a4,a3,2001a45c <__subtf3+0x334>
2001a43a:	5752                	lw	a4,52(sp)
2001a43c:	0791                	addi	a5,a5,4
2001a43e:	d83e                	sw	a5,48(sp)
2001a440:	0047b793          	sltiu	a5,a5,4
2001a444:	973e                	add	a4,a4,a5
2001a446:	00f737b3          	sltu	a5,a4,a5
2001a44a:	da3a                	sw	a4,52(sp)
2001a44c:	5762                	lw	a4,56(sp)
2001a44e:	973e                	add	a4,a4,a5
2001a450:	dc3a                	sw	a4,56(sp)
2001a452:	00f73733          	sltu	a4,a4,a5
2001a456:	57f2                	lw	a5,60(sp)
2001a458:	973e                	add	a4,a4,a5
2001a45a:	de3a                	sw	a4,60(sp)
2001a45c:	57f2                	lw	a5,60(sp)
2001a45e:	00c79713          	slli	a4,a5,0xc
2001a462:	00075c63          	bgez	a4,2001a47a <__subtf3+0x352>
2001a466:	6721                	lui	a4,0x8
2001a468:	0405                	addi	s0,s0,1
2001a46a:	177d                	addi	a4,a4,-1
2001a46c:	30e406e3          	beq	s0,a4,2001af78 <__subtf3+0xe50>
2001a470:	fff80737          	lui	a4,0xfff80
2001a474:	177d                	addi	a4,a4,-1
2001a476:	8ff9                	and	a5,a5,a4
2001a478:	de3e                	sw	a5,60(sp)
2001a47a:	181c                	addi	a5,sp,48
2001a47c:	1870                	addi	a2,sp,60
2001a47e:	4398                	lw	a4,0(a5)
2001a480:	43d4                	lw	a3,4(a5)
2001a482:	0791                	addi	a5,a5,4
2001a484:	830d                	srli	a4,a4,0x3
2001a486:	06f6                	slli	a3,a3,0x1d
2001a488:	8f55                	or	a4,a4,a3
2001a48a:	fee7ae23          	sw	a4,-4(a5) # 7ffc <__heap_size+0x7bfc>
2001a48e:	fef618e3          	bne	a2,a5,2001a47e <__subtf3+0x356>
2001a492:	57f2                	lw	a5,60(sp)
2001a494:	66a1                	lui	a3,0x8
2001a496:	0037d713          	srli	a4,a5,0x3
2001a49a:	de3a                	sw	a4,60(sp)
2001a49c:	fff68793          	addi	a5,a3,-1 # 7fff <__heap_size+0x7bff>
2001a4a0:	00f41e63          	bne	s0,a5,2001a4bc <__subtf3+0x394>
2001a4a4:	5652                	lw	a2,52(sp)
2001a4a6:	57c2                	lw	a5,48(sp)
2001a4a8:	8fd1                	or	a5,a5,a2
2001a4aa:	5662                	lw	a2,56(sp)
2001a4ac:	8fd1                	or	a5,a5,a2
2001a4ae:	8fd9                	or	a5,a5,a4
2001a4b0:	c791                	beqz	a5,2001a4bc <__subtf3+0x394>
2001a4b2:	de36                	sw	a3,60(sp)
2001a4b4:	dc02                	sw	zero,56(sp)
2001a4b6:	da02                	sw	zero,52(sp)
2001a4b8:	d802                	sw	zero,48(sp)
2001a4ba:	4901                	li	s2,0
2001a4bc:	57f2                	lw	a5,60(sp)
2001a4be:	0446                	slli	s0,s0,0x11
2001a4c0:	8045                	srli	s0,s0,0x11
2001a4c2:	00f11623          	sh	a5,12(sp)
2001a4c6:	01041793          	slli	a5,s0,0x10
2001a4ca:	4432                	lw	s0,12(sp)
2001a4cc:	80010737          	lui	a4,0x80010
2001a4d0:	177d                	addi	a4,a4,-1
2001a4d2:	8c79                	and	s0,s0,a4
2001a4d4:	8c5d                	or	s0,s0,a5
2001a4d6:	57c2                	lw	a5,48(sp)
2001a4d8:	0406                	slli	s0,s0,0x1
2001a4da:	097e                	slli	s2,s2,0x1f
2001a4dc:	c09c                	sw	a5,0(s1)
2001a4de:	57d2                	lw	a5,52(sp)
2001a4e0:	8005                	srli	s0,s0,0x1
2001a4e2:	01246433          	or	s0,s0,s2
2001a4e6:	c0dc                	sw	a5,4(s1)
2001a4e8:	57e2                	lw	a5,56(sp)
2001a4ea:	c4c0                	sw	s0,12(s1)
2001a4ec:	40f6                	lw	ra,92(sp)
2001a4ee:	4466                	lw	s0,88(sp)
2001a4f0:	c49c                	sw	a5,8(s1)
2001a4f2:	8526                	mv	a0,s1
2001a4f4:	4946                	lw	s2,80(sp)
2001a4f6:	44d6                	lw	s1,84(sp)
2001a4f8:	49b6                	lw	s3,76(sp)
2001a4fa:	4a26                	lw	s4,72(sp)
2001a4fc:	4a96                	lw	s5,68(sp)
2001a4fe:	6125                	addi	sp,sp,96
2001a500:	8082                	ret
2001a502:	fff50693          	addi	a3,a0,-1
2001a506:	e2a1                	bnez	a3,2001a546 <__subtf3+0x41e>
2001a508:	5692                	lw	a3,36(sp)
2001a50a:	973e                	add	a4,a4,a5
2001a50c:	00f737b3          	sltu	a5,a4,a5
2001a510:	00d88633          	add	a2,a7,a3
2001a514:	d83a                	sw	a4,48(sp)
2001a516:	00f60733          	add	a4,a2,a5
2001a51a:	00f737b3          	sltu	a5,a4,a5
2001a51e:	da3a                	sw	a4,52(sp)
2001a520:	5722                	lw	a4,40(sp)
2001a522:	00d636b3          	sltu	a3,a2,a3
2001a526:	8fd5                	or	a5,a5,a3
2001a528:	00e806b3          	add	a3,a6,a4
2001a52c:	00f68633          	add	a2,a3,a5
2001a530:	00f637b3          	sltu	a5,a2,a5
2001a534:	00e6b733          	sltu	a4,a3,a4
2001a538:	8f5d                	or	a4,a4,a5
2001a53a:	57b2                	lw	a5,44(sp)
2001a53c:	dc32                	sw	a2,56(sp)
2001a53e:	933e                	add	t1,t1,a5
2001a540:	971a                	add	a4,a4,t1
2001a542:	de3a                	sw	a4,60(sp)
2001a544:	bb31                	j	2001a260 <__subtf3+0x138>
2001a546:	6721                	lui	a4,0x8
2001a548:	177d                	addi	a4,a4,-1
2001a54a:	ece507e3          	beq	a0,a4,2001a418 <__subtf3+0x2f0>
2001a54e:	07400793          	li	a5,116
2001a552:	02d7df63          	bge	a5,a3,2001a590 <__subtf3+0x468>
2001a556:	4785                	li	a5,1
2001a558:	ce02                	sw	zero,28(sp)
2001a55a:	cc02                	sw	zero,24(sp)
2001a55c:	ca02                	sw	zero,20(sp)
2001a55e:	c83e                	sw	a5,16(sp)
2001a560:	a8f5                	j	2001a65c <__subtf3+0x534>
2001a562:	6721                	lui	a4,0x8
2001a564:	177d                	addi	a4,a4,-1
2001a566:	00e61b63          	bne	a2,a4,2001a57c <__subtf3+0x454>
2001a56a:	d83e                	sw	a5,48(sp)
2001a56c:	5792                	lw	a5,36(sp)
2001a56e:	8432                	mv	s0,a2
2001a570:	da3e                	sw	a5,52(sp)
2001a572:	57a2                	lw	a5,40(sp)
2001a574:	dc3e                	sw	a5,56(sp)
2001a576:	57b2                	lw	a5,44(sp)
2001a578:	de3e                	sw	a5,60(sp)
2001a57a:	b57d                	j	2001a428 <__subtf3+0x300>
2001a57c:	47f2                	lw	a5,28(sp)
2001a57e:	00080737          	lui	a4,0x80
2001a582:	8fd9                	or	a5,a5,a4
2001a584:	ce3e                	sw	a5,28(sp)
2001a586:	07400793          	li	a5,116
2001a58a:	fca7c6e3          	blt	a5,a0,2001a556 <__subtf3+0x42e>
2001a58e:	86aa                	mv	a3,a0
2001a590:	02000793          	li	a5,32
2001a594:	02f6c533          	div	a0,a3,a5
2001a598:	4701                	li	a4,0
2001a59a:	02f6e7b3          	rem	a5,a3,a5
2001a59e:	4681                	li	a3,0
2001a5a0:	02a74863          	blt	a4,a0,2001a5d0 <__subtf3+0x4a8>
2001a5a4:	882a                	mv	a6,a0
2001a5a6:	00055363          	bgez	a0,2001a5ac <__subtf3+0x484>
2001a5aa:	4801                	li	a6,0
2001a5ac:	00251713          	slli	a4,a0,0x2
2001a5b0:	eb8d                	bnez	a5,2001a5e2 <__subtf3+0x4ba>
2001a5b2:	480d                	li	a6,3
2001a5b4:	40a80533          	sub	a0,a6,a0
2001a5b8:	00e58833          	add	a6,a1,a4
2001a5bc:	00082803          	lw	a6,0(a6)
2001a5c0:	0785                	addi	a5,a5,1
2001a5c2:	0591                	addi	a1,a1,4
2001a5c4:	ff05ae23          	sw	a6,-4(a1)
2001a5c8:	fef558e3          	bge	a0,a5,2001a5b8 <__subtf3+0x490>
2001a5cc:	458d                	li	a1,3
2001a5ce:	a041                	j	2001a64e <__subtf3+0x526>
2001a5d0:	00271813          	slli	a6,a4,0x2
2001a5d4:	9872                	add	a6,a6,t3
2001a5d6:	00082803          	lw	a6,0(a6)
2001a5da:	0705                	addi	a4,a4,1
2001a5dc:	0106e6b3          	or	a3,a3,a6
2001a5e0:	b7c1                	j	2001a5a0 <__subtf3+0x478>
2001a5e2:	008c                	addi	a1,sp,64
2001a5e4:	080a                	slli	a6,a6,0x2
2001a5e6:	982e                	add	a6,a6,a1
2001a5e8:	fd082583          	lw	a1,-48(a6)
2001a5ec:	02000313          	li	t1,32
2001a5f0:	40f30333          	sub	t1,t1,a5
2001a5f4:	006595b3          	sll	a1,a1,t1
2001a5f8:	8ecd                	or	a3,a3,a1
2001a5fa:	00ee05b3          	add	a1,t3,a4
2001a5fe:	470d                	li	a4,3
2001a600:	4881                	li	a7,0
2001a602:	8f09                	sub	a4,a4,a0
2001a604:	0591                	addi	a1,a1,4
2001a606:	00e8cd63          	blt	a7,a4,2001a620 <__subtf3+0x4f8>
2001a60a:	008c                	addi	a1,sp,64
2001a60c:	070a                	slli	a4,a4,0x2
2001a60e:	972e                	add	a4,a4,a1
2001a610:	45f2                	lw	a1,28(sp)
2001a612:	00f5d7b3          	srl	a5,a1,a5
2001a616:	fcf72823          	sw	a5,-48(a4) # 7ffd0 <__heap_size+0x7fbd0>
2001a61a:	4791                	li	a5,4
2001a61c:	8f89                	sub	a5,a5,a0
2001a61e:	b77d                	j	2001a5cc <__subtf3+0x4a4>
2001a620:	ffc5a803          	lw	a6,-4(a1)
2001a624:	0005af03          	lw	t5,0(a1)
2001a628:	00289e93          	slli	t4,a7,0x2
2001a62c:	00f85833          	srl	a6,a6,a5
2001a630:	006f1f33          	sll	t5,t5,t1
2001a634:	9ef2                	add	t4,t4,t3
2001a636:	01e86833          	or	a6,a6,t5
2001a63a:	010ea023          	sw	a6,0(t4)
2001a63e:	0885                	addi	a7,a7,1
2001a640:	b7d1                	j	2001a604 <__subtf3+0x4dc>
2001a642:	00279713          	slli	a4,a5,0x2
2001a646:	9772                	add	a4,a4,t3
2001a648:	00072023          	sw	zero,0(a4)
2001a64c:	0785                	addi	a5,a5,1
2001a64e:	fef5dae3          	bge	a1,a5,2001a642 <__subtf3+0x51a>
2001a652:	47c2                	lw	a5,16(sp)
2001a654:	00d036b3          	snez	a3,a3
2001a658:	8edd                	or	a3,a3,a5
2001a65a:	c836                	sw	a3,16(sp)
2001a65c:	5682                	lw	a3,32(sp)
2001a65e:	47c2                	lw	a5,16(sp)
2001a660:	5712                	lw	a4,36(sp)
2001a662:	4562                	lw	a0,24(sp)
2001a664:	97b6                	add	a5,a5,a3
2001a666:	00d7b6b3          	sltu	a3,a5,a3
2001a66a:	d83e                	sw	a5,48(sp)
2001a66c:	47d2                	lw	a5,20(sp)
2001a66e:	4872                	lw	a6,28(sp)
2001a670:	8432                	mv	s0,a2
2001a672:	97ba                	add	a5,a5,a4
2001a674:	00d785b3          	add	a1,a5,a3
2001a678:	00e7b733          	sltu	a4,a5,a4
2001a67c:	00d5b7b3          	sltu	a5,a1,a3
2001a680:	8fd9                	or	a5,a5,a4
2001a682:	5722                	lw	a4,40(sp)
2001a684:	56b2                	lw	a3,44(sp)
2001a686:	da2e                	sw	a1,52(sp)
2001a688:	953a                	add	a0,a0,a4
2001a68a:	00f505b3          	add	a1,a0,a5
2001a68e:	00e53733          	sltu	a4,a0,a4
2001a692:	00f5b7b3          	sltu	a5,a1,a5
2001a696:	96c2                	add	a3,a3,a6
2001a698:	8f5d                	or	a4,a4,a5
2001a69a:	9736                	add	a4,a4,a3
2001a69c:	dc2e                	sw	a1,56(sp)
2001a69e:	de3a                	sw	a4,60(sp)
2001a6a0:	b311                	j	2001a3a4 <__subtf3+0x27c>
2001a6a2:	6fa1                	lui	t6,0x8
2001a6a4:	00140f13          	addi	t5,s0,1 # 800001 <__heap_size+0x7ffc01>
2001a6a8:	ffef8613          	addi	a2,t6,-2 # 7ffe <__heap_size+0x7bfe>
2001a6ac:	00cf7633          	and	a2,t5,a2
2001a6b0:	5692                	lw	a3,36(sp)
2001a6b2:	55a2                	lw	a1,40(sp)
2001a6b4:	5532                	lw	a0,44(sp)
2001a6b6:	4352                	lw	t1,20(sp)
2001a6b8:	48e2                	lw	a7,24(sp)
2001a6ba:	4e72                	lw	t3,28(sp)
2001a6bc:	03010813          	addi	a6,sp,48
2001a6c0:	03c10e93          	addi	t4,sp,60
2001a6c4:	e669                	bnez	a2,2001a78e <__subtf3+0x666>
2001a6c6:	01136633          	or	a2,t1,a7
2001a6ca:	01c66633          	or	a2,a2,t3
2001a6ce:	8e59                	or	a2,a2,a4
2001a6d0:	e43d                	bnez	s0,2001a73e <__subtf3+0x616>
2001a6d2:	e611                	bnez	a2,2001a6de <__subtf3+0x5b6>
2001a6d4:	d83e                	sw	a5,48(sp)
2001a6d6:	da36                	sw	a3,52(sp)
2001a6d8:	dc2e                	sw	a1,56(sp)
2001a6da:	de2a                	sw	a0,60(sp)
2001a6dc:	b3b1                	j	2001a428 <__subtf3+0x300>
2001a6de:	00b6e633          	or	a2,a3,a1
2001a6e2:	8e49                	or	a2,a2,a0
2001a6e4:	8e5d                	or	a2,a2,a5
2001a6e6:	e611                	bnez	a2,2001a6f2 <__subtf3+0x5ca>
2001a6e8:	d83a                	sw	a4,48(sp)
2001a6ea:	da1a                	sw	t1,52(sp)
2001a6ec:	dc46                	sw	a7,56(sp)
2001a6ee:	de72                	sw	t3,60(sp)
2001a6f0:	bb25                	j	2001a428 <__subtf3+0x300>
2001a6f2:	97ba                	add	a5,a5,a4
2001a6f4:	00e7b733          	sltu	a4,a5,a4
2001a6f8:	969a                	add	a3,a3,t1
2001a6fa:	d83e                	sw	a5,48(sp)
2001a6fc:	00e687b3          	add	a5,a3,a4
2001a700:	00e7b733          	sltu	a4,a5,a4
2001a704:	0066b6b3          	sltu	a3,a3,t1
2001a708:	8f55                	or	a4,a4,a3
2001a70a:	95c6                	add	a1,a1,a7
2001a70c:	da3e                	sw	a5,52(sp)
2001a70e:	00e587b3          	add	a5,a1,a4
2001a712:	0115b633          	sltu	a2,a1,a7
2001a716:	00e7b733          	sltu	a4,a5,a4
2001a71a:	8f51                	or	a4,a4,a2
2001a71c:	01c50633          	add	a2,a0,t3
2001a720:	963a                	add	a2,a2,a4
2001a722:	dc3e                	sw	a5,56(sp)
2001a724:	00c61793          	slli	a5,a2,0xc
2001a728:	0007c463          	bltz	a5,2001a730 <__subtf3+0x608>
2001a72c:	de32                	sw	a2,60(sp)
2001a72e:	b9ed                	j	2001a428 <__subtf3+0x300>
2001a730:	fff80737          	lui	a4,0xfff80
2001a734:	177d                	addi	a4,a4,-1
2001a736:	8e79                	and	a2,a2,a4
2001a738:	de32                	sw	a2,60(sp)
2001a73a:	4405                	li	s0,1
2001a73c:	b1f5                	j	2001a428 <__subtf3+0x300>
2001a73e:	ea01                	bnez	a2,2001a74e <__subtf3+0x626>
2001a740:	d83e                	sw	a5,48(sp)
2001a742:	da36                	sw	a3,52(sp)
2001a744:	dc2e                	sw	a1,56(sp)
2001a746:	de2a                	sw	a0,60(sp)
2001a748:	ffff8413          	addi	s0,t6,-1
2001a74c:	b9f1                	j	2001a428 <__subtf3+0x300>
2001a74e:	00b6e633          	or	a2,a3,a1
2001a752:	8e49                	or	a2,a2,a0
2001a754:	8fd1                	or	a5,a5,a2
2001a756:	e791                	bnez	a5,2001a762 <__subtf3+0x63a>
2001a758:	d83a                	sw	a4,48(sp)
2001a75a:	da1a                	sw	t1,52(sp)
2001a75c:	dc46                	sw	a7,56(sp)
2001a75e:	de72                	sw	t3,60(sp)
2001a760:	b7e5                	j	2001a748 <__subtf3+0x620>
2001a762:	de7e                	sw	t6,60(sp)
2001a764:	dc02                	sw	zero,56(sp)
2001a766:	da02                	sw	zero,52(sp)
2001a768:	d802                	sw	zero,48(sp)
2001a76a:	87f6                	mv	a5,t4
2001a76c:	4398                	lw	a4,0(a5)
2001a76e:	ffc7a683          	lw	a3,-4(a5)
2001a772:	17f1                	addi	a5,a5,-4
2001a774:	070e                	slli	a4,a4,0x3
2001a776:	82f5                	srli	a3,a3,0x1d
2001a778:	8f55                	or	a4,a4,a3
2001a77a:	c3d8                	sw	a4,4(a5)
2001a77c:	fef818e3          	bne	a6,a5,2001a76c <__subtf3+0x644>
2001a780:	57c2                	lw	a5,48(sp)
2001a782:	6421                	lui	s0,0x8
2001a784:	4901                	li	s2,0
2001a786:	078e                	slli	a5,a5,0x3
2001a788:	d83e                	sw	a5,48(sp)
2001a78a:	147d                	addi	s0,s0,-1
2001a78c:	b971                	j	2001a428 <__subtf3+0x300>
2001a78e:	97ba                	add	a5,a5,a4
2001a790:	00e7b733          	sltu	a4,a5,a4
2001a794:	969a                	add	a3,a3,t1
2001a796:	d83e                	sw	a5,48(sp)
2001a798:	00e687b3          	add	a5,a3,a4
2001a79c:	00e7b733          	sltu	a4,a5,a4
2001a7a0:	0066b6b3          	sltu	a3,a3,t1
2001a7a4:	8f55                	or	a4,a4,a3
2001a7a6:	01158633          	add	a2,a1,a7
2001a7aa:	00e606b3          	add	a3,a2,a4
2001a7ae:	00e6b733          	sltu	a4,a3,a4
2001a7b2:	01163633          	sltu	a2,a2,a7
2001a7b6:	8e59                	or	a2,a2,a4
2001a7b8:	01c50733          	add	a4,a0,t3
2001a7bc:	963a                	add	a2,a2,a4
2001a7be:	da3e                	sw	a5,52(sp)
2001a7c0:	dc36                	sw	a3,56(sp)
2001a7c2:	de32                	sw	a2,60(sp)
2001a7c4:	87c2                	mv	a5,a6
2001a7c6:	4398                	lw	a4,0(a5)
2001a7c8:	43d4                	lw	a3,4(a5)
2001a7ca:	0791                	addi	a5,a5,4
2001a7cc:	8305                	srli	a4,a4,0x1
2001a7ce:	06fe                	slli	a3,a3,0x1f
2001a7d0:	8f55                	or	a4,a4,a3
2001a7d2:	fee7ae23          	sw	a4,-4(a5)
2001a7d6:	fefe98e3          	bne	t4,a5,2001a7c6 <__subtf3+0x69e>
2001a7da:	67a1                	lui	a5,0x8
2001a7dc:	17fd                	addi	a5,a5,-1
2001a7de:	00ff0763          	beq	t5,a5,2001a7ec <__subtf3+0x6c4>
2001a7e2:	57f2                	lw	a5,60(sp)
2001a7e4:	8385                	srli	a5,a5,0x1
2001a7e6:	de3e                	sw	a5,60(sp)
2001a7e8:	847a                	mv	s0,t5
2001a7ea:	b93d                	j	2001a428 <__subtf3+0x300>
2001a7ec:	de02                	sw	zero,60(sp)
2001a7ee:	dc02                	sw	zero,56(sp)
2001a7f0:	da02                	sw	zero,52(sp)
2001a7f2:	d802                	sw	zero,48(sp)
2001a7f4:	bfd5                	j	2001a7e8 <__subtf3+0x6c0>
2001a7f6:	1ca05563          	blez	a0,2001a9c0 <__subtf3+0x898>
2001a7fa:	e651                	bnez	a2,2001a886 <__subtf3+0x75e>
2001a7fc:	5812                	lw	a6,36(sp)
2001a7fe:	5622                	lw	a2,40(sp)
2001a800:	5e32                	lw	t3,44(sp)
2001a802:	00c865b3          	or	a1,a6,a2
2001a806:	01c5e5b3          	or	a1,a1,t3
2001a80a:	8ddd                	or	a1,a1,a5
2001a80c:	a00583e3          	beqz	a1,2001a212 <__subtf3+0xea>
2001a810:	fff50693          	addi	a3,a0,-1
2001a814:	eab9                	bnez	a3,2001a86a <__subtf3+0x742>
2001a816:	48d2                	lw	a7,20(sp)
2001a818:	40f707b3          	sub	a5,a4,a5
2001a81c:	00f735b3          	sltu	a1,a4,a5
2001a820:	41088533          	sub	a0,a7,a6
2001a824:	00a8b333          	sltu	t1,a7,a0
2001a828:	8d0d                	sub	a0,a0,a1
2001a82a:	d83e                	sw	a5,48(sp)
2001a82c:	da2a                	sw	a0,52(sp)
2001a82e:	4581                	li	a1,0
2001a830:	00f77663          	bgeu	a4,a5,2001a83c <__subtf3+0x714>
2001a834:	411805b3          	sub	a1,a6,a7
2001a838:	0015b593          	seqz	a1,a1
2001a83c:	4862                	lw	a6,24(sp)
2001a83e:	0065e5b3          	or	a1,a1,t1
2001a842:	40c80533          	sub	a0,a6,a2
2001a846:	00a837b3          	sltu	a5,a6,a0
2001a84a:	8d0d                	sub	a0,a0,a1
2001a84c:	dc2a                	sw	a0,56(sp)
2001a84e:	c589                	beqz	a1,2001a858 <__subtf3+0x730>
2001a850:	41060633          	sub	a2,a2,a6
2001a854:	00163693          	seqz	a3,a2
2001a858:	4772                	lw	a4,28(sp)
2001a85a:	8fd5                	or	a5,a5,a3
2001a85c:	41c70733          	sub	a4,a4,t3
2001a860:	40f707b3          	sub	a5,a4,a5
2001a864:	de3e                	sw	a5,60(sp)
2001a866:	4405                	li	s0,1
2001a868:	a289                	j	2001a9aa <__subtf3+0x882>
2001a86a:	67a1                	lui	a5,0x8
2001a86c:	17fd                	addi	a5,a5,-1
2001a86e:	9af502e3          	beq	a0,a5,2001a212 <__subtf3+0xea>
2001a872:	07400793          	li	a5,116
2001a876:	02d7d663          	bge	a5,a3,2001a8a2 <__subtf3+0x77a>
2001a87a:	4785                	li	a5,1
2001a87c:	d602                	sw	zero,44(sp)
2001a87e:	d402                	sw	zero,40(sp)
2001a880:	d202                	sw	zero,36(sp)
2001a882:	d03e                	sw	a5,32(sp)
2001a884:	a8d1                	j	2001a958 <__subtf3+0x830>
2001a886:	67a1                	lui	a5,0x8
2001a888:	17fd                	addi	a5,a5,-1
2001a88a:	9ef40fe3          	beq	s0,a5,2001a288 <__subtf3+0x160>
2001a88e:	57b2                	lw	a5,44(sp)
2001a890:	00080737          	lui	a4,0x80
2001a894:	8fd9                	or	a5,a5,a4
2001a896:	d63e                	sw	a5,44(sp)
2001a898:	07400793          	li	a5,116
2001a89c:	fca7cfe3          	blt	a5,a0,2001a87a <__subtf3+0x752>
2001a8a0:	86aa                	mv	a3,a0
2001a8a2:	4056de13          	srai	t3,a3,0x5
2001a8a6:	01f6f793          	andi	a5,a3,31
2001a8aa:	4601                	li	a2,0
2001a8ac:	4701                	li	a4,0
2001a8ae:	00271693          	slli	a3,a4,0x2
2001a8b2:	03c71163          	bne	a4,t3,2001a8d4 <__subtf3+0x7ac>
2001a8b6:	e785                	bnez	a5,2001a8de <__subtf3+0x7b6>
2001a8b8:	458d                	li	a1,3
2001a8ba:	40e58733          	sub	a4,a1,a4
2001a8be:	00d885b3          	add	a1,a7,a3
2001a8c2:	418c                	lw	a1,0(a1)
2001a8c4:	0785                	addi	a5,a5,1
2001a8c6:	0891                	addi	a7,a7,4
2001a8c8:	feb8ae23          	sw	a1,-4(a7)
2001a8cc:	fef759e3          	bge	a4,a5,2001a8be <__subtf3+0x796>
2001a8d0:	4691                	li	a3,4
2001a8d2:	a8a5                	j	2001a94a <__subtf3+0x822>
2001a8d4:	969a                	add	a3,a3,t1
2001a8d6:	4294                	lw	a3,0(a3)
2001a8d8:	0705                	addi	a4,a4,1
2001a8da:	8e55                	or	a2,a2,a3
2001a8dc:	bfc9                	j	2001a8ae <__subtf3+0x786>
2001a8de:	0098                	addi	a4,sp,64
2001a8e0:	9736                	add	a4,a4,a3
2001a8e2:	fe072703          	lw	a4,-32(a4) # 7ffe0 <__heap_size+0x7fbe0>
2001a8e6:	02000813          	li	a6,32
2001a8ea:	40f80833          	sub	a6,a6,a5
2001a8ee:	01071733          	sll	a4,a4,a6
2001a8f2:	8e59                	or	a2,a2,a4
2001a8f4:	470d                	li	a4,3
2001a8f6:	969a                	add	a3,a3,t1
2001a8f8:	4501                	li	a0,0
2001a8fa:	41c70733          	sub	a4,a4,t3
2001a8fe:	0691                	addi	a3,a3,4
2001a900:	00e54e63          	blt	a0,a4,2001a91c <__subtf3+0x7f4>
2001a904:	0094                	addi	a3,sp,64
2001a906:	070a                	slli	a4,a4,0x2
2001a908:	9736                	add	a4,a4,a3
2001a90a:	56b2                	lw	a3,44(sp)
2001a90c:	00f6d7b3          	srl	a5,a3,a5
2001a910:	fef72023          	sw	a5,-32(a4)
2001a914:	4791                	li	a5,4
2001a916:	41c787b3          	sub	a5,a5,t3
2001a91a:	bf5d                	j	2001a8d0 <__subtf3+0x7a8>
2001a91c:	ffc6a583          	lw	a1,-4(a3)
2001a920:	0006ae83          	lw	t4,0(a3)
2001a924:	00251893          	slli	a7,a0,0x2
2001a928:	00f5d5b3          	srl	a1,a1,a5
2001a92c:	010e9eb3          	sll	t4,t4,a6
2001a930:	989a                	add	a7,a7,t1
2001a932:	01d5e5b3          	or	a1,a1,t4
2001a936:	00b8a023          	sw	a1,0(a7)
2001a93a:	0505                	addi	a0,a0,1
2001a93c:	b7c9                	j	2001a8fe <__subtf3+0x7d6>
2001a93e:	00279713          	slli	a4,a5,0x2
2001a942:	971a                	add	a4,a4,t1
2001a944:	00072023          	sw	zero,0(a4)
2001a948:	0785                	addi	a5,a5,1
2001a94a:	fed79ae3          	bne	a5,a3,2001a93e <__subtf3+0x816>
2001a94e:	5782                	lw	a5,32(sp)
2001a950:	00c03633          	snez	a2,a2
2001a954:	8e5d                	or	a2,a2,a5
2001a956:	d032                	sw	a2,32(sp)
2001a958:	46d2                	lw	a3,20(sp)
2001a95a:	45c2                	lw	a1,16(sp)
2001a95c:	5702                	lw	a4,32(sp)
2001a95e:	5792                	lw	a5,36(sp)
2001a960:	40e58733          	sub	a4,a1,a4
2001a964:	40f687b3          	sub	a5,a3,a5
2001a968:	00f6b633          	sltu	a2,a3,a5
2001a96c:	00e5b6b3          	sltu	a3,a1,a4
2001a970:	40d786b3          	sub	a3,a5,a3
2001a974:	da36                	sw	a3,52(sp)
2001a976:	d83a                	sw	a4,48(sp)
2001a978:	4681                	li	a3,0
2001a97a:	00e5f463          	bgeu	a1,a4,2001a982 <__subtf3+0x85a>
2001a97e:	0017b693          	seqz	a3,a5
2001a982:	8ed1                	or	a3,a3,a2
2001a984:	5722                	lw	a4,40(sp)
2001a986:	4662                	lw	a2,24(sp)
2001a988:	40e60733          	sub	a4,a2,a4
2001a98c:	40d707b3          	sub	a5,a4,a3
2001a990:	dc3e                	sw	a5,56(sp)
2001a992:	00e635b3          	sltu	a1,a2,a4
2001a996:	4601                	li	a2,0
2001a998:	c299                	beqz	a3,2001a99e <__subtf3+0x876>
2001a99a:	00173613          	seqz	a2,a4
2001a99e:	47f2                	lw	a5,28(sp)
2001a9a0:	5732                	lw	a4,44(sp)
2001a9a2:	8e4d                	or	a2,a2,a1
2001a9a4:	8f99                	sub	a5,a5,a4
2001a9a6:	8f91                	sub	a5,a5,a2
2001a9a8:	de3e                	sw	a5,60(sp)
2001a9aa:	57f2                	lw	a5,60(sp)
2001a9ac:	00c79713          	slli	a4,a5,0xc
2001a9b0:	a6075ce3          	bgez	a4,2001a428 <__subtf3+0x300>
2001a9b4:	00080737          	lui	a4,0x80
2001a9b8:	177d                	addi	a4,a4,-1
2001a9ba:	8ff9                	and	a5,a5,a4
2001a9bc:	de3e                	sw	a5,60(sp)
2001a9be:	a101                	j	2001adbe <__subtf3+0xc96>
2001a9c0:	1e050f63          	beqz	a0,2001abbe <__subtf3+0xa96>
2001a9c4:	408606b3          	sub	a3,a2,s0
2001a9c8:	e04d                	bnez	s0,2001aa6a <__subtf3+0x942>
2001a9ca:	4352                	lw	t1,20(sp)
2001a9cc:	48e2                	lw	a7,24(sp)
2001a9ce:	4f72                	lw	t5,28(sp)
2001a9d0:	01136eb3          	or	t4,t1,a7
2001a9d4:	01eeeeb3          	or	t4,t4,t5
2001a9d8:	00eeeeb3          	or	t4,t4,a4
2001a9dc:	000e9c63          	bnez	t4,2001a9f4 <__subtf3+0x8cc>
2001a9e0:	d83e                	sw	a5,48(sp)
2001a9e2:	5792                	lw	a5,36(sp)
2001a9e4:	8436                	mv	s0,a3
2001a9e6:	da3e                	sw	a5,52(sp)
2001a9e8:	57a2                	lw	a5,40(sp)
2001a9ea:	dc3e                	sw	a5,56(sp)
2001a9ec:	57b2                	lw	a5,44(sp)
2001a9ee:	de3e                	sw	a5,60(sp)
2001a9f0:	8942                	mv	s2,a6
2001a9f2:	bc1d                	j	2001a428 <__subtf3+0x300>
2001a9f4:	fff68513          	addi	a0,a3,-1
2001a9f8:	e939                	bnez	a0,2001aa4e <__subtf3+0x926>
2001a9fa:	5592                	lw	a1,36(sp)
2001a9fc:	40e78733          	sub	a4,a5,a4
2001aa00:	00e7b6b3          	sltu	a3,a5,a4
2001aa04:	40658633          	sub	a2,a1,t1
2001aa08:	00c5be33          	sltu	t3,a1,a2
2001aa0c:	8e15                	sub	a2,a2,a3
2001aa0e:	d83a                	sw	a4,48(sp)
2001aa10:	da32                	sw	a2,52(sp)
2001aa12:	4681                	li	a3,0
2001aa14:	00e7f663          	bgeu	a5,a4,2001aa20 <__subtf3+0x8f8>
2001aa18:	40b306b3          	sub	a3,t1,a1
2001aa1c:	0016b693          	seqz	a3,a3
2001aa20:	55a2                	lw	a1,40(sp)
2001aa22:	01c6e733          	or	a4,a3,t3
2001aa26:	411586b3          	sub	a3,a1,a7
2001aa2a:	00d5b633          	sltu	a2,a1,a3
2001aa2e:	8e99                	sub	a3,a3,a4
2001aa30:	dc36                	sw	a3,56(sp)
2001aa32:	c709                	beqz	a4,2001aa3c <__subtf3+0x914>
2001aa34:	40b888b3          	sub	a7,a7,a1
2001aa38:	0018b513          	seqz	a0,a7
2001aa3c:	57b2                	lw	a5,44(sp)
2001aa3e:	8d51                	or	a0,a0,a2
2001aa40:	8942                	mv	s2,a6
2001aa42:	41e787b3          	sub	a5,a5,t5
2001aa46:	40a78533          	sub	a0,a5,a0
2001aa4a:	de2a                	sw	a0,60(sp)
2001aa4c:	bd29                	j	2001a866 <__subtf3+0x73e>
2001aa4e:	6721                	lui	a4,0x8
2001aa50:	177d                	addi	a4,a4,-1
2001aa52:	f8e687e3          	beq	a3,a4,2001a9e0 <__subtf3+0x8b8>
2001aa56:	07400793          	li	a5,116
2001aa5a:	06a7de63          	bge	a5,a0,2001aad6 <__subtf3+0x9ae>
2001aa5e:	4785                	li	a5,1
2001aa60:	ce02                	sw	zero,28(sp)
2001aa62:	cc02                	sw	zero,24(sp)
2001aa64:	ca02                	sw	zero,20(sp)
2001aa66:	c83e                	sw	a5,16(sp)
2001aa68:	a8fd                	j	2001ab66 <__subtf3+0xa3e>
2001aa6a:	6721                	lui	a4,0x8
2001aa6c:	177d                	addi	a4,a4,-1
2001aa6e:	00e61b63          	bne	a2,a4,2001aa84 <__subtf3+0x95c>
2001aa72:	d83e                	sw	a5,48(sp)
2001aa74:	5792                	lw	a5,36(sp)
2001aa76:	8432                	mv	s0,a2
2001aa78:	da3e                	sw	a5,52(sp)
2001aa7a:	57a2                	lw	a5,40(sp)
2001aa7c:	dc3e                	sw	a5,56(sp)
2001aa7e:	57b2                	lw	a5,44(sp)
2001aa80:	de3e                	sw	a5,60(sp)
2001aa82:	b7bd                	j	2001a9f0 <__subtf3+0x8c8>
2001aa84:	47f2                	lw	a5,28(sp)
2001aa86:	00080737          	lui	a4,0x80
2001aa8a:	8fd9                	or	a5,a5,a4
2001aa8c:	ce3e                	sw	a5,28(sp)
2001aa8e:	07400793          	li	a5,116
2001aa92:	fcd7c6e3          	blt	a5,a3,2001aa5e <__subtf3+0x936>
2001aa96:	02000793          	li	a5,32
2001aa9a:	02f6c533          	div	a0,a3,a5
2001aa9e:	4701                	li	a4,0
2001aaa0:	02f6e7b3          	rem	a5,a3,a5
2001aaa4:	4681                	li	a3,0
2001aaa6:	02a74a63          	blt	a4,a0,2001aada <__subtf3+0x9b2>
2001aaaa:	88aa                	mv	a7,a0
2001aaac:	00055363          	bgez	a0,2001aab2 <__subtf3+0x98a>
2001aab0:	4881                	li	a7,0
2001aab2:	00251713          	slli	a4,a0,0x2
2001aab6:	eb9d                	bnez	a5,2001aaec <__subtf3+0x9c4>
2001aab8:	488d                	li	a7,3
2001aaba:	40a88533          	sub	a0,a7,a0
2001aabe:	00e588b3          	add	a7,a1,a4
2001aac2:	0008a883          	lw	a7,0(a7)
2001aac6:	0785                	addi	a5,a5,1
2001aac8:	0591                	addi	a1,a1,4
2001aaca:	ff15ae23          	sw	a7,-4(a1)
2001aace:	fef558e3          	bge	a0,a5,2001aabe <__subtf3+0x996>
2001aad2:	458d                	li	a1,3
2001aad4:	a051                	j	2001ab58 <__subtf3+0xa30>
2001aad6:	86aa                	mv	a3,a0
2001aad8:	bf7d                	j	2001aa96 <__subtf3+0x96e>
2001aada:	00271893          	slli	a7,a4,0x2
2001aade:	98f2                	add	a7,a7,t3
2001aae0:	0008a883          	lw	a7,0(a7)
2001aae4:	0705                	addi	a4,a4,1
2001aae6:	0116e6b3          	or	a3,a3,a7
2001aaea:	bf75                	j	2001aaa6 <__subtf3+0x97e>
2001aaec:	008c                	addi	a1,sp,64
2001aaee:	088a                	slli	a7,a7,0x2
2001aaf0:	98ae                	add	a7,a7,a1
2001aaf2:	fd08a583          	lw	a1,-48(a7)
2001aaf6:	02000e93          	li	t4,32
2001aafa:	40fe8eb3          	sub	t4,t4,a5
2001aafe:	01d595b3          	sll	a1,a1,t4
2001ab02:	8ecd                	or	a3,a3,a1
2001ab04:	00ee05b3          	add	a1,t3,a4
2001ab08:	470d                	li	a4,3
2001ab0a:	4301                	li	t1,0
2001ab0c:	8f09                	sub	a4,a4,a0
2001ab0e:	0591                	addi	a1,a1,4
2001ab10:	00e34d63          	blt	t1,a4,2001ab2a <__subtf3+0xa02>
2001ab14:	008c                	addi	a1,sp,64
2001ab16:	070a                	slli	a4,a4,0x2
2001ab18:	972e                	add	a4,a4,a1
2001ab1a:	45f2                	lw	a1,28(sp)
2001ab1c:	00f5d7b3          	srl	a5,a1,a5
2001ab20:	fcf72823          	sw	a5,-48(a4) # 7ffd0 <__heap_size+0x7fbd0>
2001ab24:	4791                	li	a5,4
2001ab26:	8f89                	sub	a5,a5,a0
2001ab28:	b76d                	j	2001aad2 <__subtf3+0x9aa>
2001ab2a:	ffc5a883          	lw	a7,-4(a1)
2001ab2e:	0005af83          	lw	t6,0(a1)
2001ab32:	00231f13          	slli	t5,t1,0x2
2001ab36:	00f8d8b3          	srl	a7,a7,a5
2001ab3a:	01df9fb3          	sll	t6,t6,t4
2001ab3e:	9f72                	add	t5,t5,t3
2001ab40:	01f8e8b3          	or	a7,a7,t6
2001ab44:	011f2023          	sw	a7,0(t5)
2001ab48:	0305                	addi	t1,t1,1
2001ab4a:	b7d1                	j	2001ab0e <__subtf3+0x9e6>
2001ab4c:	00279713          	slli	a4,a5,0x2
2001ab50:	9772                	add	a4,a4,t3
2001ab52:	00072023          	sw	zero,0(a4)
2001ab56:	0785                	addi	a5,a5,1
2001ab58:	fef5dae3          	bge	a1,a5,2001ab4c <__subtf3+0xa24>
2001ab5c:	47c2                	lw	a5,16(sp)
2001ab5e:	00d036b3          	snez	a3,a3
2001ab62:	8edd                	or	a3,a3,a5
2001ab64:	c836                	sw	a3,16(sp)
2001ab66:	5692                	lw	a3,36(sp)
2001ab68:	5502                	lw	a0,32(sp)
2001ab6a:	4742                	lw	a4,16(sp)
2001ab6c:	47d2                	lw	a5,20(sp)
2001ab6e:	40e50733          	sub	a4,a0,a4
2001ab72:	40f687b3          	sub	a5,a3,a5
2001ab76:	00f6b5b3          	sltu	a1,a3,a5
2001ab7a:	00e536b3          	sltu	a3,a0,a4
2001ab7e:	40d786b3          	sub	a3,a5,a3
2001ab82:	da36                	sw	a3,52(sp)
2001ab84:	d83a                	sw	a4,48(sp)
2001ab86:	4681                	li	a3,0
2001ab88:	00e57463          	bgeu	a0,a4,2001ab90 <__subtf3+0xa68>
2001ab8c:	0017b693          	seqz	a3,a5
2001ab90:	8ecd                	or	a3,a3,a1
2001ab92:	4762                	lw	a4,24(sp)
2001ab94:	55a2                	lw	a1,40(sp)
2001ab96:	40e58733          	sub	a4,a1,a4
2001ab9a:	40d707b3          	sub	a5,a4,a3
2001ab9e:	dc3e                	sw	a5,56(sp)
2001aba0:	00e5b533          	sltu	a0,a1,a4
2001aba4:	4581                	li	a1,0
2001aba6:	c299                	beqz	a3,2001abac <__subtf3+0xa84>
2001aba8:	00173593          	seqz	a1,a4
2001abac:	57b2                	lw	a5,44(sp)
2001abae:	4772                	lw	a4,28(sp)
2001abb0:	8dc9                	or	a1,a1,a0
2001abb2:	8432                	mv	s0,a2
2001abb4:	8f99                	sub	a5,a5,a4
2001abb6:	8f8d                	sub	a5,a5,a1
2001abb8:	de3e                	sw	a5,60(sp)
2001abba:	8942                	mv	s2,a6
2001abbc:	b3fd                	j	2001a9aa <__subtf3+0x882>
2001abbe:	6fa1                	lui	t6,0x8
2001abc0:	ffef8693          	addi	a3,t6,-2 # 7ffe <__heap_size+0x7bfe>
2001abc4:	00140593          	addi	a1,s0,1 # 8001 <__heap_size+0x7c01>
2001abc8:	8df5                	and	a1,a1,a3
2001abca:	5612                	lw	a2,36(sp)
2001abcc:	46d2                	lw	a3,20(sp)
2001abce:	48e2                	lw	a7,24(sp)
2001abd0:	4ef2                	lw	t4,28(sp)
2001abd2:	5322                	lw	t1,40(sp)
2001abd4:	5e32                	lw	t3,44(sp)
2001abd6:	14059563          	bnez	a1,2001ad20 <__subtf3+0xbf8>
2001abda:	006665b3          	or	a1,a2,t1
2001abde:	0116ef33          	or	t5,a3,a7
2001abe2:	01c5e5b3          	or	a1,a1,t3
2001abe6:	01df6f33          	or	t5,t5,t4
2001abea:	8ddd                	or	a1,a1,a5
2001abec:	00ef6f33          	or	t5,t5,a4
2001abf0:	e861                	bnez	s0,2001acc0 <__subtf3+0xb98>
2001abf2:	000f1c63          	bnez	t5,2001ac0a <__subtf3+0xae2>
2001abf6:	d83e                	sw	a5,48(sp)
2001abf8:	da32                	sw	a2,52(sp)
2001abfa:	dc1a                	sw	t1,56(sp)
2001abfc:	de72                	sw	t3,60(sp)
2001abfe:	8942                	mv	s2,a6
2001ac00:	820594e3          	bnez	a1,2001a428 <__subtf3+0x300>
2001ac04:	4401                	li	s0,0
2001ac06:	4901                	li	s2,0
2001ac08:	b005                	j	2001a428 <__subtf3+0x300>
2001ac0a:	e591                	bnez	a1,2001ac16 <__subtf3+0xaee>
2001ac0c:	d83a                	sw	a4,48(sp)
2001ac0e:	da36                	sw	a3,52(sp)
2001ac10:	dc46                	sw	a7,56(sp)
2001ac12:	de76                	sw	t4,60(sp)
2001ac14:	b811                	j	2001a428 <__subtf3+0x300>
2001ac16:	40f705b3          	sub	a1,a4,a5
2001ac1a:	40c682b3          	sub	t0,a3,a2
2001ac1e:	00b73fb3          	sltu	t6,a4,a1
2001ac22:	0056bf33          	sltu	t5,a3,t0
2001ac26:	41f282b3          	sub	t0,t0,t6
2001ac2a:	d82e                	sw	a1,48(sp)
2001ac2c:	da16                	sw	t0,52(sp)
2001ac2e:	4f81                	li	t6,0
2001ac30:	00b77663          	bgeu	a4,a1,2001ac3c <__subtf3+0xb14>
2001ac34:	40d60fb3          	sub	t6,a2,a3
2001ac38:	001fbf93          	seqz	t6,t6
2001ac3c:	406883b3          	sub	t2,a7,t1
2001ac40:	01efefb3          	or	t6,t6,t5
2001ac44:	41f38a33          	sub	s4,t2,t6
2001ac48:	dc52                	sw	s4,56(sp)
2001ac4a:	0078bab3          	sltu	s5,a7,t2
2001ac4e:	4981                	li	s3,0
2001ac50:	000f8463          	beqz	t6,2001ac58 <__subtf3+0xb30>
2001ac54:	0013b993          	seqz	s3,t2
2001ac58:	41ce8f33          	sub	t5,t4,t3
2001ac5c:	0159e9b3          	or	s3,s3,s5
2001ac60:	413f0f33          	sub	t5,t5,s3
2001ac64:	de7a                	sw	t5,60(sp)
2001ac66:	00cf1f93          	slli	t6,t5,0xc
2001ac6a:	040fd463          	bgez	t6,2001acb2 <__subtf3+0xb8a>
2001ac6e:	40e78733          	sub	a4,a5,a4
2001ac72:	40d606b3          	sub	a3,a2,a3
2001ac76:	00e7b5b3          	sltu	a1,a5,a4
2001ac7a:	40b685b3          	sub	a1,a3,a1
2001ac7e:	da2e                	sw	a1,52(sp)
2001ac80:	d83a                	sw	a4,48(sp)
2001ac82:	00d63633          	sltu	a2,a2,a3
2001ac86:	4581                	li	a1,0
2001ac88:	00e7f463          	bgeu	a5,a4,2001ac90 <__subtf3+0xb68>
2001ac8c:	0016b593          	seqz	a1,a3
2001ac90:	41130733          	sub	a4,t1,a7
2001ac94:	8e4d                	or	a2,a2,a1
2001ac96:	00e337b3          	sltu	a5,t1,a4
2001ac9a:	8f11                	sub	a4,a4,a2
2001ac9c:	dc3a                	sw	a4,56(sp)
2001ac9e:	c219                	beqz	a2,2001aca4 <__subtf3+0xb7c>
2001aca0:	0013b513          	seqz	a0,t2
2001aca4:	41de0733          	sub	a4,t3,t4
2001aca8:	8fc9                	or	a5,a5,a0
2001acaa:	40f70e33          	sub	t3,a4,a5
2001acae:	de72                	sw	t3,60(sp)
2001acb0:	b381                	j	2001a9f0 <__subtf3+0x8c8>
2001acb2:	0055e5b3          	or	a1,a1,t0
2001acb6:	0145e5b3          	or	a1,a1,s4
2001acba:	01e5e5b3          	or	a1,a1,t5
2001acbe:	b789                	j	2001ac00 <__subtf3+0xad8>
2001acc0:	1808                	addi	a0,sp,48
2001acc2:	020f1963          	bnez	t5,2001acf4 <__subtf3+0xbcc>
2001acc6:	e18d                	bnez	a1,2001ace8 <__subtf3+0xbc0>
2001acc8:	de7e                	sw	t6,60(sp)
2001acca:	dc02                	sw	zero,56(sp)
2001accc:	da02                	sw	zero,52(sp)
2001acce:	d802                	sw	zero,48(sp)
2001acd0:	187c                	addi	a5,sp,60
2001acd2:	4398                	lw	a4,0(a5)
2001acd4:	ffc7a683          	lw	a3,-4(a5) # 7ffc <__heap_size+0x7bfc>
2001acd8:	17f1                	addi	a5,a5,-4
2001acda:	070e                	slli	a4,a4,0x3
2001acdc:	82f5                	srli	a3,a3,0x1d
2001acde:	8f55                	or	a4,a4,a3
2001ace0:	c3d8                	sw	a4,4(a5)
2001ace2:	fef518e3          	bne	a0,a5,2001acd2 <__subtf3+0xbaa>
2001ace6:	bc69                	j	2001a780 <__subtf3+0x658>
2001ace8:	d83e                	sw	a5,48(sp)
2001acea:	da32                	sw	a2,52(sp)
2001acec:	dc1a                	sw	t1,56(sp)
2001acee:	de72                	sw	t3,60(sp)
2001acf0:	8942                	mv	s2,a6
2001acf2:	bc99                	j	2001a748 <__subtf3+0x620>
2001acf4:	e591                	bnez	a1,2001ad00 <__subtf3+0xbd8>
2001acf6:	d83a                	sw	a4,48(sp)
2001acf8:	da36                	sw	a3,52(sp)
2001acfa:	dc46                	sw	a7,56(sp)
2001acfc:	de76                	sw	t4,60(sp)
2001acfe:	b4a9                	j	2001a748 <__subtf3+0x620>
2001ad00:	de7e                	sw	t6,60(sp)
2001ad02:	dc02                	sw	zero,56(sp)
2001ad04:	da02                	sw	zero,52(sp)
2001ad06:	d802                	sw	zero,48(sp)
2001ad08:	187c                	addi	a5,sp,60
2001ad0a:	4398                	lw	a4,0(a5)
2001ad0c:	ffc7a683          	lw	a3,-4(a5)
2001ad10:	17f1                	addi	a5,a5,-4
2001ad12:	070e                	slli	a4,a4,0x3
2001ad14:	82f5                	srli	a3,a3,0x1d
2001ad16:	8f55                	or	a4,a4,a3
2001ad18:	c3d8                	sw	a4,4(a5)
2001ad1a:	fef518e3          	bne	a0,a5,2001ad0a <__subtf3+0xbe2>
2001ad1e:	b48d                	j	2001a780 <__subtf3+0x658>
2001ad20:	40f705b3          	sub	a1,a4,a5
2001ad24:	40c682b3          	sub	t0,a3,a2
2001ad28:	00b73fb3          	sltu	t6,a4,a1
2001ad2c:	0056bf33          	sltu	t5,a3,t0
2001ad30:	41f282b3          	sub	t0,t0,t6
2001ad34:	d82e                	sw	a1,48(sp)
2001ad36:	da16                	sw	t0,52(sp)
2001ad38:	4f81                	li	t6,0
2001ad3a:	00b77663          	bgeu	a4,a1,2001ad46 <__subtf3+0xc1e>
2001ad3e:	40d60fb3          	sub	t6,a2,a3
2001ad42:	001fbf93          	seqz	t6,t6
2001ad46:	406883b3          	sub	t2,a7,t1
2001ad4a:	01efefb3          	or	t6,t6,t5
2001ad4e:	41f38a33          	sub	s4,t2,t6
2001ad52:	dc52                	sw	s4,56(sp)
2001ad54:	0078bab3          	sltu	s5,a7,t2
2001ad58:	4981                	li	s3,0
2001ad5a:	000f8463          	beqz	t6,2001ad62 <__subtf3+0xc3a>
2001ad5e:	0013b993          	seqz	s3,t2
2001ad62:	41ce8f33          	sub	t5,t4,t3
2001ad66:	0159e9b3          	or	s3,s3,s5
2001ad6a:	413f0f33          	sub	t5,t5,s3
2001ad6e:	de7a                	sw	t5,60(sp)
2001ad70:	00cf1f93          	slli	t6,t5,0xc
2001ad74:	080fd863          	bgez	t6,2001ae04 <__subtf3+0xcdc>
2001ad78:	40e78733          	sub	a4,a5,a4
2001ad7c:	40d606b3          	sub	a3,a2,a3
2001ad80:	00e7b5b3          	sltu	a1,a5,a4
2001ad84:	40b685b3          	sub	a1,a3,a1
2001ad88:	da2e                	sw	a1,52(sp)
2001ad8a:	d83a                	sw	a4,48(sp)
2001ad8c:	00d63633          	sltu	a2,a2,a3
2001ad90:	4581                	li	a1,0
2001ad92:	00e7f463          	bgeu	a5,a4,2001ad9a <__subtf3+0xc72>
2001ad96:	0016b593          	seqz	a1,a3
2001ad9a:	41130733          	sub	a4,t1,a7
2001ad9e:	8e4d                	or	a2,a2,a1
2001ada0:	00e336b3          	sltu	a3,t1,a4
2001ada4:	8f11                	sub	a4,a4,a2
2001ada6:	dc3a                	sw	a4,56(sp)
2001ada8:	c219                	beqz	a2,2001adae <__subtf3+0xc86>
2001adaa:	0013b513          	seqz	a0,t2
2001adae:	41de0733          	sub	a4,t3,t4
2001adb2:	00d567b3          	or	a5,a0,a3
2001adb6:	40f707b3          	sub	a5,a4,a5
2001adba:	de3e                	sw	a5,60(sp)
2001adbc:	8942                	mv	s2,a6
2001adbe:	5572                	lw	a0,60(sp)
2001adc0:	c939                	beqz	a0,2001ae16 <__subtf3+0xcee>
2001adc2:	2725                	jal	2001b4ea <__clzsi2>
2001adc4:	1551                	addi	a0,a0,-12
2001adc6:	02000693          	li	a3,32
2001adca:	02d56833          	rem	a6,a0,a3
2001adce:	02d547b3          	div	a5,a0,a3
2001add2:	06080363          	beqz	a6,2001ae38 <__subtf3+0xd10>
2001add6:	5771                	li	a4,-4
2001add8:	03010313          	addi	t1,sp,48
2001addc:	00279593          	slli	a1,a5,0x2
2001ade0:	410686b3          	sub	a3,a3,a6
2001ade4:	02e78733          	mul	a4,a5,a4
2001ade8:	0731                	addi	a4,a4,12
2001adea:	971a                	add	a4,a4,t1
2001adec:	06e31563          	bne	t1,a4,2001ae56 <__subtf3+0xd2e>
2001adf0:	0098                	addi	a4,sp,64
2001adf2:	95ba                	add	a1,a1,a4
2001adf4:	5742                	lw	a4,48(sp)
2001adf6:	17fd                	addi	a5,a5,-1
2001adf8:	01071833          	sll	a6,a4,a6
2001adfc:	ff05a823          	sw	a6,-16(a1)
2001ae00:	56fd                	li	a3,-1
2001ae02:	a049                	j	2001ae84 <__subtf3+0xd5c>
2001ae04:	0055e5b3          	or	a1,a1,t0
2001ae08:	0145e5b3          	or	a1,a1,s4
2001ae0c:	01e5e5b3          	or	a1,a1,t5
2001ae10:	de058ae3          	beqz	a1,2001ac04 <__subtf3+0xadc>
2001ae14:	b76d                	j	2001adbe <__subtf3+0xc96>
2001ae16:	5562                	lw	a0,56(sp)
2001ae18:	c509                	beqz	a0,2001ae22 <__subtf3+0xcfa>
2001ae1a:	2dc1                	jal	2001b4ea <__clzsi2>
2001ae1c:	02050513          	addi	a0,a0,32
2001ae20:	b755                	j	2001adc4 <__subtf3+0xc9c>
2001ae22:	5552                	lw	a0,52(sp)
2001ae24:	c509                	beqz	a0,2001ae2e <__subtf3+0xd06>
2001ae26:	25d1                	jal	2001b4ea <__clzsi2>
2001ae28:	04050513          	addi	a0,a0,64
2001ae2c:	bf61                	j	2001adc4 <__subtf3+0xc9c>
2001ae2e:	5542                	lw	a0,48(sp)
2001ae30:	2d6d                	jal	2001b4ea <__clzsi2>
2001ae32:	06050513          	addi	a0,a0,96
2001ae36:	b779                	j	2001adc4 <__subtf3+0xc9c>
2001ae38:	5671                	li	a2,-4
2001ae3a:	02c78633          	mul	a2,a5,a2
2001ae3e:	1878                	addi	a4,sp,60
2001ae40:	468d                	li	a3,3
2001ae42:	00c705b3          	add	a1,a4,a2
2001ae46:	418c                	lw	a1,0(a1)
2001ae48:	16fd                	addi	a3,a3,-1
2001ae4a:	1771                	addi	a4,a4,-4
2001ae4c:	c34c                	sw	a1,4(a4)
2001ae4e:	fef6dae3          	bge	a3,a5,2001ae42 <__subtf3+0xd1a>
2001ae52:	17fd                	addi	a5,a5,-1
2001ae54:	b775                	j	2001ae00 <__subtf3+0xcd8>
2001ae56:	ffc72603          	lw	a2,-4(a4)
2001ae5a:	00072883          	lw	a7,0(a4)
2001ae5e:	00b70e33          	add	t3,a4,a1
2001ae62:	00d65633          	srl	a2,a2,a3
2001ae66:	010898b3          	sll	a7,a7,a6
2001ae6a:	01166633          	or	a2,a2,a7
2001ae6e:	00ce2023          	sw	a2,0(t3)
2001ae72:	1771                	addi	a4,a4,-4
2001ae74:	bfa5                	j	2001adec <__subtf3+0xcc4>
2001ae76:	00279713          	slli	a4,a5,0x2
2001ae7a:	1810                	addi	a2,sp,48
2001ae7c:	9732                	add	a4,a4,a2
2001ae7e:	00072023          	sw	zero,0(a4)
2001ae82:	17fd                	addi	a5,a5,-1
2001ae84:	fed799e3          	bne	a5,a3,2001ae76 <__subtf3+0xd4e>
2001ae88:	0e854063          	blt	a0,s0,2001af68 <__subtf3+0xe40>
2001ae8c:	40850433          	sub	s0,a0,s0
2001ae90:	0405                	addi	s0,s0,1
2001ae92:	02000793          	li	a5,32
2001ae96:	02f44833          	div	a6,s0,a5
2001ae9a:	4501                	li	a0,0
2001ae9c:	4701                	li	a4,0
2001ae9e:	02f46433          	rem	s0,s0,a5
2001aea2:	03074863          	blt	a4,a6,2001aed2 <__subtf3+0xdaa>
2001aea6:	86c2                	mv	a3,a6
2001aea8:	00085363          	bgez	a6,2001aeae <__subtf3+0xd86>
2001aeac:	4681                	li	a3,0
2001aeae:	00281713          	slli	a4,a6,0x2
2001aeb2:	e805                	bnez	s0,2001aee2 <__subtf3+0xdba>
2001aeb4:	478d                	li	a5,3
2001aeb6:	1814                	addi	a3,sp,48
2001aeb8:	41078833          	sub	a6,a5,a6
2001aebc:	00e687b3          	add	a5,a3,a4
2001aec0:	439c                	lw	a5,0(a5)
2001aec2:	0405                	addi	s0,s0,1
2001aec4:	0691                	addi	a3,a3,4
2001aec6:	fef6ae23          	sw	a5,-4(a3)
2001aeca:	fe8859e3          	bge	a6,s0,2001aebc <__subtf3+0xd94>
2001aece:	470d                	li	a4,3
2001aed0:	a051                	j	2001af54 <__subtf3+0xe2c>
2001aed2:	00271793          	slli	a5,a4,0x2
2001aed6:	1814                	addi	a3,sp,48
2001aed8:	97b6                	add	a5,a5,a3
2001aeda:	439c                	lw	a5,0(a5)
2001aedc:	0705                	addi	a4,a4,1
2001aede:	8d5d                	or	a0,a0,a5
2001aee0:	b7c9                	j	2001aea2 <__subtf3+0xd7a>
2001aee2:	009c                	addi	a5,sp,64
2001aee4:	068a                	slli	a3,a3,0x2
2001aee6:	96be                	add	a3,a3,a5
2001aee8:	ff06a783          	lw	a5,-16(a3)
2001aeec:	02000593          	li	a1,32
2001aef0:	8d81                	sub	a1,a1,s0
2001aef2:	00b797b3          	sll	a5,a5,a1
2001aef6:	8d5d                	or	a0,a0,a5
2001aef8:	181c                	addi	a5,sp,48
2001aefa:	973e                	add	a4,a4,a5
2001aefc:	478d                	li	a5,3
2001aefe:	4601                	li	a2,0
2001af00:	410787b3          	sub	a5,a5,a6
2001af04:	0711                	addi	a4,a4,4
2001af06:	00f64e63          	blt	a2,a5,2001af22 <__subtf3+0xdfa>
2001af0a:	0098                	addi	a4,sp,64
2001af0c:	078a                	slli	a5,a5,0x2
2001af0e:	97ba                	add	a5,a5,a4
2001af10:	5772                	lw	a4,60(sp)
2001af12:	00875433          	srl	s0,a4,s0
2001af16:	fe87a823          	sw	s0,-16(a5)
2001af1a:	4411                	li	s0,4
2001af1c:	41040433          	sub	s0,s0,a6
2001af20:	b77d                	j	2001aece <__subtf3+0xda6>
2001af22:	00261893          	slli	a7,a2,0x2
2001af26:	1814                	addi	a3,sp,48
2001af28:	98b6                	add	a7,a7,a3
2001af2a:	00072303          	lw	t1,0(a4)
2001af2e:	ffc72683          	lw	a3,-4(a4)
2001af32:	0605                	addi	a2,a2,1
2001af34:	00b31333          	sll	t1,t1,a1
2001af38:	0086d6b3          	srl	a3,a3,s0
2001af3c:	0066e6b3          	or	a3,a3,t1
2001af40:	00d8a023          	sw	a3,0(a7)
2001af44:	b7c1                	j	2001af04 <__subtf3+0xddc>
2001af46:	00241793          	slli	a5,s0,0x2
2001af4a:	1814                	addi	a3,sp,48
2001af4c:	97b6                	add	a5,a5,a3
2001af4e:	0007a023          	sw	zero,0(a5)
2001af52:	0405                	addi	s0,s0,1
2001af54:	fe8759e3          	bge	a4,s0,2001af46 <__subtf3+0xe1e>
2001af58:	5742                	lw	a4,48(sp)
2001af5a:	00a037b3          	snez	a5,a0
2001af5e:	4401                	li	s0,0
2001af60:	8fd9                	or	a5,a5,a4
2001af62:	d83e                	sw	a5,48(sp)
2001af64:	cc4ff06f          	j	2001a428 <__subtf3+0x300>
2001af68:	57f2                	lw	a5,60(sp)
2001af6a:	fff80737          	lui	a4,0xfff80
2001af6e:	177d                	addi	a4,a4,-1
2001af70:	8c09                	sub	s0,s0,a0
2001af72:	8ff9                	and	a5,a5,a4
2001af74:	b20ff06f          	j	2001a294 <__subtf3+0x16c>
2001af78:	de02                	sw	zero,60(sp)
2001af7a:	dc02                	sw	zero,56(sp)
2001af7c:	da02                	sw	zero,52(sp)
2001af7e:	d802                	sw	zero,48(sp)
2001af80:	cfaff06f          	j	2001a47a <__subtf3+0x352>

2001af84 <__fixtfsi>:
2001af84:	4558                	lw	a4,12(a0)
2001af86:	451c                	lw	a5,8(a0)
2001af88:	4154                	lw	a3,4(a0)
2001af8a:	4110                	lw	a2,0(a0)
2001af8c:	1101                	addi	sp,sp,-32
2001af8e:	c43e                	sw	a5,8(sp)
2001af90:	c63a                	sw	a4,12(sp)
2001af92:	cc3e                	sw	a5,24(sp)
2001af94:	01071593          	slli	a1,a4,0x10
2001af98:	00171793          	slli	a5,a4,0x1
2001af9c:	01f75813          	srli	a6,a4,0x1f
2001afa0:	6711                	lui	a4,0x4
2001afa2:	c236                	sw	a3,4(sp)
2001afa4:	ca36                	sw	a3,20(sp)
2001afa6:	c032                	sw	a2,0(sp)
2001afa8:	0117d693          	srli	a3,a5,0x11
2001afac:	c832                	sw	a2,16(sp)
2001afae:	ffe70793          	addi	a5,a4,-2 # 3ffe <__heap_size+0x3bfe>
2001afb2:	4501                	li	a0,0
2001afb4:	00d7db63          	bge	a5,a3,2001afca <__fixtfsi+0x46>
2001afb8:	01d70793          	addi	a5,a4,29
2001afbc:	00d7d963          	bge	a5,a3,2001afce <__fixtfsi+0x4a>
2001afc0:	80000537          	lui	a0,0x80000
2001afc4:	fff54513          	not	a0,a0
2001afc8:	9542                	add	a0,a0,a6
2001afca:	6105                	addi	sp,sp,32
2001afcc:	8082                	ret
2001afce:	67c1                	lui	a5,0x10
2001afd0:	81c1                	srli	a1,a1,0x10
2001afd2:	8ddd                	or	a1,a1,a5
2001afd4:	06f70793          	addi	a5,a4,111
2001afd8:	8f95                	sub	a5,a5,a3
2001afda:	4057d713          	srai	a4,a5,0x5
2001afde:	ce2e                	sw	a1,28(sp)
2001afe0:	8bfd                	andi	a5,a5,31
2001afe2:	e7ad                	bnez	a5,2001b04c <__fixtfsi+0xc8>
2001afe4:	00271793          	slli	a5,a4,0x2
2001afe8:	1014                	addi	a3,sp,32
2001afea:	97b6                	add	a5,a5,a3
2001afec:	ff07a783          	lw	a5,-16(a5) # fff0 <__heap_size+0xfbf0>
2001aff0:	4609                	li	a2,2
2001aff2:	c83e                	sw	a5,16(sp)
2001aff4:	4789                	li	a5,2
2001aff6:	00e78363          	beq	a5,a4,2001affc <__fixtfsi+0x78>
2001affa:	4605                	li	a2,1
2001affc:	4711                	li	a4,4
2001affe:	00261793          	slli	a5,a2,0x2
2001b002:	0814                	addi	a3,sp,16
2001b004:	97b6                	add	a5,a5,a3
2001b006:	0007a023          	sw	zero,0(a5)
2001b00a:	0605                	addi	a2,a2,1
2001b00c:	fee619e3          	bne	a2,a4,2001affe <__fixtfsi+0x7a>
2001b010:	4542                	lw	a0,16(sp)
2001b012:	fa080ce3          	beqz	a6,2001afca <__fixtfsi+0x46>
2001b016:	40a00533          	neg	a0,a0
2001b01a:	bf45                	j	2001afca <__fixtfsi+0x46>
2001b01c:	ff062683          	lw	a3,-16(a2)
2001b020:	ff072303          	lw	t1,-16(a4)
2001b024:	011696b3          	sll	a3,a3,a7
2001b028:	00f35333          	srl	t1,t1,a5
2001b02c:	0066e6b3          	or	a3,a3,t1
2001b030:	c836                	sw	a3,16(sp)
2001b032:	4685                	li	a3,1
2001b034:	fea6c4e3          	blt	a3,a0,2001b01c <__fixtfsi+0x98>
2001b038:	00168613          	addi	a2,a3,1
2001b03c:	1018                	addi	a4,sp,32
2001b03e:	068a                	slli	a3,a3,0x2
2001b040:	96ba                	add	a3,a3,a4
2001b042:	00f5d7b3          	srl	a5,a1,a5
2001b046:	fef6a823          	sw	a5,-16(a3)
2001b04a:	bf4d                	j	2001affc <__fixtfsi+0x78>
2001b04c:	00170613          	addi	a2,a4,1
2001b050:	02010893          	addi	a7,sp,32
2001b054:	450d                	li	a0,3
2001b056:	060a                	slli	a2,a2,0x2
2001b058:	8d19                	sub	a0,a0,a4
2001b05a:	9646                	add	a2,a2,a7
2001b05c:	070a                	slli	a4,a4,0x2
2001b05e:	02000893          	li	a7,32
2001b062:	02010313          	addi	t1,sp,32
2001b066:	4681                	li	a3,0
2001b068:	40f888b3          	sub	a7,a7,a5
2001b06c:	971a                	add	a4,a4,t1
2001b06e:	b7d9                	j	2001b034 <__fixtfsi+0xb0>

2001b070 <__floatsitf>:
2001b070:	7179                	addi	sp,sp,-48
2001b072:	d226                	sw	s1,36(sp)
2001b074:	d606                	sw	ra,44(sp)
2001b076:	d422                	sw	s0,40(sp)
2001b078:	d04a                	sw	s2,32(sp)
2001b07a:	84aa                	mv	s1,a0
2001b07c:	cdf9                	beqz	a1,2001b15a <__floatsitf+0xea>
2001b07e:	41f5d793          	srai	a5,a1,0x1f
2001b082:	00b7c433          	xor	s0,a5,a1
2001b086:	8c1d                	sub	s0,s0,a5
2001b088:	8522                	mv	a0,s0
2001b08a:	01f5d913          	srli	s2,a1,0x1f
2001b08e:	29b1                	jal	2001b4ea <__clzsi2>
2001b090:	6711                	lui	a4,0x4
2001b092:	0779                	addi	a4,a4,30
2001b094:	8f09                	sub	a4,a4,a0
2001b096:	05150513          	addi	a0,a0,81 # 80000051 <metal_segment_heap_target_end+0xffffc051>
2001b09a:	c822                	sw	s0,16(sp)
2001b09c:	ca02                	sw	zero,20(sp)
2001b09e:	cc02                	sw	zero,24(sp)
2001b0a0:	ce02                	sw	zero,28(sp)
2001b0a2:	01f57593          	andi	a1,a0,31
2001b0a6:	c59d                	beqz	a1,2001b0d4 <__floatsitf+0x64>
2001b0a8:	05f00793          	li	a5,95
2001b0ac:	468d                	li	a3,3
2001b0ae:	00a7c963          	blt	a5,a0,2001b0c0 <__floatsitf+0x50>
2001b0b2:	02000693          	li	a3,32
2001b0b6:	8e8d                	sub	a3,a3,a1
2001b0b8:	00d456b3          	srl	a3,s0,a3
2001b0bc:	ce36                	sw	a3,28(sp)
2001b0be:	4689                	li	a3,2
2001b0c0:	fff68613          	addi	a2,a3,-1
2001b0c4:	101c                	addi	a5,sp,32
2001b0c6:	068a                	slli	a3,a3,0x2
2001b0c8:	96be                	add	a3,a3,a5
2001b0ca:	00b41433          	sll	s0,s0,a1
2001b0ce:	fe86a823          	sw	s0,-16(a3)
2001b0d2:	a80d                	j	2001b104 <__floatsitf+0x94>
2001b0d4:	40555793          	srai	a5,a0,0x5
2001b0d8:	460d                	li	a2,3
2001b0da:	8e1d                	sub	a2,a2,a5
2001b0dc:	1014                	addi	a3,sp,32
2001b0de:	060a                	slli	a2,a2,0x2
2001b0e0:	9636                	add	a2,a2,a3
2001b0e2:	ff062683          	lw	a3,-16(a2)
2001b0e6:	4609                	li	a2,2
2001b0e8:	ce36                	sw	a3,28(sp)
2001b0ea:	05f00693          	li	a3,95
2001b0ee:	00a6cb63          	blt	a3,a0,2001b104 <__floatsitf+0x94>
2001b0f2:	4689                	li	a3,2
2001b0f4:	8e9d                	sub	a3,a3,a5
2001b0f6:	068a                	slli	a3,a3,0x2
2001b0f8:	101c                	addi	a5,sp,32
2001b0fa:	96be                	add	a3,a3,a5
2001b0fc:	ff06a783          	lw	a5,-16(a3)
2001b100:	4605                	li	a2,1
2001b102:	cc3e                	sw	a5,24(sp)
2001b104:	56fd                	li	a3,-1
2001b106:	00261793          	slli	a5,a2,0x2
2001b10a:	080c                	addi	a1,sp,16
2001b10c:	97ae                	add	a5,a5,a1
2001b10e:	0007a023          	sw	zero,0(a5)
2001b112:	167d                	addi	a2,a2,-1
2001b114:	fed619e3          	bne	a2,a3,2001b106 <__floatsitf+0x96>
2001b118:	47f2                	lw	a5,28(sp)
2001b11a:	0746                	slli	a4,a4,0x11
2001b11c:	8345                	srli	a4,a4,0x11
2001b11e:	00f11623          	sh	a5,12(sp)
2001b122:	01071793          	slli	a5,a4,0x10
2001b126:	4732                	lw	a4,12(sp)
2001b128:	800106b7          	lui	a3,0x80010
2001b12c:	16fd                	addi	a3,a3,-1
2001b12e:	8f75                	and	a4,a4,a3
2001b130:	8f5d                	or	a4,a4,a5
2001b132:	00171793          	slli	a5,a4,0x1
2001b136:	4742                	lw	a4,16(sp)
2001b138:	097e                	slli	s2,s2,0x1f
2001b13a:	50b2                	lw	ra,44(sp)
2001b13c:	c098                	sw	a4,0(s1)
2001b13e:	4752                	lw	a4,20(sp)
2001b140:	5422                	lw	s0,40(sp)
2001b142:	8385                	srli	a5,a5,0x1
2001b144:	c0d8                	sw	a4,4(s1)
2001b146:	4762                	lw	a4,24(sp)
2001b148:	0127e7b3          	or	a5,a5,s2
2001b14c:	c4dc                	sw	a5,12(s1)
2001b14e:	c498                	sw	a4,8(s1)
2001b150:	8526                	mv	a0,s1
2001b152:	5902                	lw	s2,32(sp)
2001b154:	5492                	lw	s1,36(sp)
2001b156:	6145                	addi	sp,sp,48
2001b158:	8082                	ret
2001b15a:	ce02                	sw	zero,28(sp)
2001b15c:	cc02                	sw	zero,24(sp)
2001b15e:	ca02                	sw	zero,20(sp)
2001b160:	c802                	sw	zero,16(sp)
2001b162:	4701                	li	a4,0
2001b164:	4901                	li	s2,0
2001b166:	bf4d                	j	2001b118 <__floatsitf+0xa8>

2001b168 <__extenddftf2>:
2001b168:	01465793          	srli	a5,a2,0x14
2001b16c:	00c61713          	slli	a4,a2,0xc
2001b170:	7ff7f793          	andi	a5,a5,2047
2001b174:	7179                	addi	sp,sp,-48
2001b176:	8331                	srli	a4,a4,0xc
2001b178:	00178693          	addi	a3,a5,1
2001b17c:	d422                	sw	s0,40(sp)
2001b17e:	d226                	sw	s1,36(sp)
2001b180:	d606                	sw	ra,44(sp)
2001b182:	c82e                	sw	a1,16(sp)
2001b184:	ca3a                	sw	a4,20(sp)
2001b186:	ce02                	sw	zero,28(sp)
2001b188:	cc02                	sw	zero,24(sp)
2001b18a:	7fe6f693          	andi	a3,a3,2046
2001b18e:	84aa                	mv	s1,a0
2001b190:	01f65413          	srli	s0,a2,0x1f
2001b194:	cea9                	beqz	a3,2001b1ee <__extenddftf2+0x86>
2001b196:	6691                	lui	a3,0x4
2001b198:	c0068693          	addi	a3,a3,-1024 # 3c00 <__heap_size+0x3800>
2001b19c:	0045d513          	srli	a0,a1,0x4
2001b1a0:	97b6                	add	a5,a5,a3
2001b1a2:	00475693          	srli	a3,a4,0x4
2001b1a6:	0772                	slli	a4,a4,0x1c
2001b1a8:	8f49                	or	a4,a4,a0
2001b1aa:	05f2                	slli	a1,a1,0x1c
2001b1ac:	ce36                	sw	a3,28(sp)
2001b1ae:	cc3a                	sw	a4,24(sp)
2001b1b0:	ca2e                	sw	a1,20(sp)
2001b1b2:	c802                	sw	zero,16(sp)
2001b1b4:	4772                	lw	a4,28(sp)
2001b1b6:	07c6                	slli	a5,a5,0x11
2001b1b8:	800106b7          	lui	a3,0x80010
2001b1bc:	00e11623          	sh	a4,12(sp)
2001b1c0:	4732                	lw	a4,12(sp)
2001b1c2:	83c5                	srli	a5,a5,0x11
2001b1c4:	16fd                	addi	a3,a3,-1
2001b1c6:	8f75                	and	a4,a4,a3
2001b1c8:	07c2                	slli	a5,a5,0x10
2001b1ca:	8fd9                	or	a5,a5,a4
2001b1cc:	4742                	lw	a4,16(sp)
2001b1ce:	0786                	slli	a5,a5,0x1
2001b1d0:	047e                	slli	s0,s0,0x1f
2001b1d2:	c098                	sw	a4,0(s1)
2001b1d4:	4752                	lw	a4,20(sp)
2001b1d6:	8385                	srli	a5,a5,0x1
2001b1d8:	8fc1                	or	a5,a5,s0
2001b1da:	c0d8                	sw	a4,4(s1)
2001b1dc:	4762                	lw	a4,24(sp)
2001b1de:	50b2                	lw	ra,44(sp)
2001b1e0:	5422                	lw	s0,40(sp)
2001b1e2:	c498                	sw	a4,8(s1)
2001b1e4:	c4dc                	sw	a5,12(s1)
2001b1e6:	8526                	mv	a0,s1
2001b1e8:	5492                	lw	s1,36(sp)
2001b1ea:	6145                	addi	sp,sp,48
2001b1ec:	8082                	ret
2001b1ee:	00b76533          	or	a0,a4,a1
2001b1f2:	e3dd                	bnez	a5,2001b298 <__extenddftf2+0x130>
2001b1f4:	d161                	beqz	a0,2001b1b4 <__extenddftf2+0x4c>
2001b1f6:	c321                	beqz	a4,2001b236 <__extenddftf2+0xce>
2001b1f8:	853a                	mv	a0,a4
2001b1fa:	2cc5                	jal	2001b4ea <__clzsi2>
2001b1fc:	03150613          	addi	a2,a0,49
2001b200:	40565713          	srai	a4,a2,0x5
2001b204:	8a7d                	andi	a2,a2,31
2001b206:	ce05                	beqz	a2,2001b23e <__extenddftf2+0xd6>
2001b208:	56f1                	li	a3,-4
2001b20a:	02d706b3          	mul	a3,a4,a3
2001b20e:	01010313          	addi	t1,sp,16
2001b212:	02000793          	li	a5,32
2001b216:	00271813          	slli	a6,a4,0x2
2001b21a:	8f91                	sub	a5,a5,a2
2001b21c:	06b1                	addi	a3,a3,12
2001b21e:	969a                	add	a3,a3,t1
2001b220:	04d31c63          	bne	t1,a3,2001b278 <__extenddftf2+0x110>
2001b224:	101c                	addi	a5,sp,32
2001b226:	983e                	add	a6,a6,a5
2001b228:	47c2                	lw	a5,16(sp)
2001b22a:	177d                	addi	a4,a4,-1
2001b22c:	00c79633          	sll	a2,a5,a2
2001b230:	fec82823          	sw	a2,-16(a6)
2001b234:	a01d                	j	2001b25a <__extenddftf2+0xf2>
2001b236:	2c55                	jal	2001b4ea <__clzsi2>
2001b238:	02050513          	addi	a0,a0,32
2001b23c:	b7c1                	j	2001b1fc <__extenddftf2+0x94>
2001b23e:	5671                	li	a2,-4
2001b240:	02c70633          	mul	a2,a4,a2
2001b244:	0874                	addi	a3,sp,28
2001b246:	478d                	li	a5,3
2001b248:	00c685b3          	add	a1,a3,a2
2001b24c:	418c                	lw	a1,0(a1)
2001b24e:	17fd                	addi	a5,a5,-1
2001b250:	16f1                	addi	a3,a3,-4
2001b252:	c2cc                	sw	a1,4(a3)
2001b254:	fee7dae3          	bge	a5,a4,2001b248 <__extenddftf2+0xe0>
2001b258:	177d                	addi	a4,a4,-1
2001b25a:	56fd                	li	a3,-1
2001b25c:	00271793          	slli	a5,a4,0x2
2001b260:	0810                	addi	a2,sp,16
2001b262:	97b2                	add	a5,a5,a2
2001b264:	0007a023          	sw	zero,0(a5)
2001b268:	177d                	addi	a4,a4,-1
2001b26a:	fed719e3          	bne	a4,a3,2001b25c <__extenddftf2+0xf4>
2001b26e:	6791                	lui	a5,0x4
2001b270:	c0c78793          	addi	a5,a5,-1012 # 3c0c <__heap_size+0x380c>
2001b274:	8f89                	sub	a5,a5,a0
2001b276:	bf3d                	j	2001b1b4 <__extenddftf2+0x4c>
2001b278:	ffc6a583          	lw	a1,-4(a3) # 8000fffc <metal_segment_heap_target_end+0xbffc>
2001b27c:	0006a883          	lw	a7,0(a3)
2001b280:	01068e33          	add	t3,a3,a6
2001b284:	00f5d5b3          	srl	a1,a1,a5
2001b288:	00c898b3          	sll	a7,a7,a2
2001b28c:	0115e5b3          	or	a1,a1,a7
2001b290:	00be2023          	sw	a1,0(t3)
2001b294:	16f1                	addi	a3,a3,-4
2001b296:	b769                	j	2001b220 <__extenddftf2+0xb8>
2001b298:	67a1                	lui	a5,0x8
2001b29a:	cd11                	beqz	a0,2001b2b6 <__extenddftf2+0x14e>
2001b29c:	01c71793          	slli	a5,a4,0x1c
2001b2a0:	0045d693          	srli	a3,a1,0x4
2001b2a4:	8fd5                	or	a5,a5,a3
2001b2a6:	cc3e                	sw	a5,24(sp)
2001b2a8:	8311                	srli	a4,a4,0x4
2001b2aa:	67a1                	lui	a5,0x8
2001b2ac:	05f2                	slli	a1,a1,0x1c
2001b2ae:	8f5d                	or	a4,a4,a5
2001b2b0:	ca2e                	sw	a1,20(sp)
2001b2b2:	c802                	sw	zero,16(sp)
2001b2b4:	ce3a                	sw	a4,28(sp)
2001b2b6:	17fd                	addi	a5,a5,-1
2001b2b8:	bdf5                	j	2001b1b4 <__extenddftf2+0x4c>

2001b2ba <__trunctfdf2>:
2001b2ba:	454c                	lw	a1,12(a0)
2001b2bc:	451c                	lw	a5,8(a0)
2001b2be:	4158                	lw	a4,4(a0)
2001b2c0:	1101                	addi	sp,sp,-32
2001b2c2:	4114                	lw	a3,0(a0)
2001b2c4:	c43e                	sw	a5,8(sp)
2001b2c6:	cc3e                	sw	a5,24(sp)
2001b2c8:	01059793          	slli	a5,a1,0x10
2001b2cc:	c23a                	sw	a4,4(sp)
2001b2ce:	ca3a                	sw	a4,20(sp)
2001b2d0:	83c1                	srli	a5,a5,0x10
2001b2d2:	00159713          	slli	a4,a1,0x1
2001b2d6:	c62e                	sw	a1,12(sp)
2001b2d8:	c036                	sw	a3,0(sp)
2001b2da:	c836                	sw	a3,16(sp)
2001b2dc:	ce3e                	sw	a5,28(sp)
2001b2de:	8345                	srli	a4,a4,0x11
2001b2e0:	81fd                	srli	a1,a1,0x1f
2001b2e2:	01010313          	addi	t1,sp,16
2001b2e6:	0870                	addi	a2,sp,28
2001b2e8:	421c                	lw	a5,0(a2)
2001b2ea:	ffc62683          	lw	a3,-4(a2)
2001b2ee:	1671                	addi	a2,a2,-4
2001b2f0:	078e                	slli	a5,a5,0x3
2001b2f2:	82f5                	srli	a3,a3,0x1d
2001b2f4:	8fd5                	or	a5,a5,a3
2001b2f6:	c25c                	sw	a5,4(a2)
2001b2f8:	fec318e3          	bne	t1,a2,2001b2e8 <__trunctfdf2+0x2e>
2001b2fc:	46c2                	lw	a3,16(sp)
2001b2fe:	00170793          	addi	a5,a4,1 # 4001 <__heap_size+0x3c01>
2001b302:	00369513          	slli	a0,a3,0x3
2001b306:	66a1                	lui	a3,0x8
2001b308:	16f9                	addi	a3,a3,-2
2001b30a:	c82a                	sw	a0,16(sp)
2001b30c:	8ff5                	and	a5,a5,a3
2001b30e:	12078d63          	beqz	a5,2001b448 <__trunctfdf2+0x18e>
2001b312:	77f1                	lui	a5,0xffffc
2001b314:	40078793          	addi	a5,a5,1024 # ffffc400 <metal_segment_heap_target_end+0x7fff8400>
2001b318:	973e                	add	a4,a4,a5
2001b31a:	7fe00793          	li	a5,2046
2001b31e:	16e7c363          	blt	a5,a4,2001b484 <__trunctfdf2+0x1ca>
2001b322:	04e05763          	blez	a4,2001b370 <__trunctfdf2+0xb6>
2001b326:	4862                	lw	a6,24(sp)
2001b328:	4672                	lw	a2,28(sp)
2001b32a:	47d2                	lw	a5,20(sp)
2001b32c:	01c85693          	srli	a3,a6,0x1c
2001b330:	0612                	slli	a2,a2,0x4
2001b332:	8e55                	or	a2,a2,a3
2001b334:	00479693          	slli	a3,a5,0x4
2001b338:	8ec9                	or	a3,a3,a0
2001b33a:	83f1                	srli	a5,a5,0x1c
2001b33c:	0812                	slli	a6,a6,0x4
2001b33e:	00d036b3          	snez	a3,a3
2001b342:	0107e7b3          	or	a5,a5,a6
2001b346:	8edd                	or	a3,a3,a5
2001b348:	ca32                	sw	a2,20(sp)
2001b34a:	c836                	sw	a3,16(sp)
2001b34c:	46c2                	lw	a3,16(sp)
2001b34e:	47d2                	lw	a5,20(sp)
2001b350:	0076f613          	andi	a2,a3,7
2001b354:	12060c63          	beqz	a2,2001b48c <__trunctfdf2+0x1d2>
2001b358:	00f6f613          	andi	a2,a3,15
2001b35c:	4511                	li	a0,4
2001b35e:	12a60763          	beq	a2,a0,2001b48c <__trunctfdf2+0x1d2>
2001b362:	00468613          	addi	a2,a3,4 # 8004 <__heap_size+0x7c04>
2001b366:	00d636b3          	sltu	a3,a2,a3
2001b36a:	97b6                	add	a5,a5,a3
2001b36c:	86b2                	mv	a3,a2
2001b36e:	aa39                	j	2001b48c <__trunctfdf2+0x1d2>
2001b370:	fcc00793          	li	a5,-52
2001b374:	00f75763          	bge	a4,a5,2001b382 <__trunctfdf2+0xc8>
2001b378:	ca02                	sw	zero,20(sp)
2001b37a:	4785                	li	a5,1
2001b37c:	c83e                	sw	a5,16(sp)
2001b37e:	4701                	li	a4,0
2001b380:	b7f1                	j	2001b34c <__trunctfdf2+0x92>
2001b382:	47f2                	lw	a5,28(sp)
2001b384:	000806b7          	lui	a3,0x80
2001b388:	4e01                	li	t3,0
2001b38a:	8fd5                	or	a5,a5,a3
2001b38c:	ce3e                	sw	a5,28(sp)
2001b38e:	03d00793          	li	a5,61
2001b392:	40e78733          	sub	a4,a5,a4
2001b396:	40575513          	srai	a0,a4,0x5
2001b39a:	869a                	mv	a3,t1
2001b39c:	8b7d                	andi	a4,a4,31
2001b39e:	4781                	li	a5,0
2001b3a0:	0006a803          	lw	a6,0(a3) # 80000 <__heap_size+0x7fc00>
2001b3a4:	0785                	addi	a5,a5,1
2001b3a6:	0691                	addi	a3,a3,4
2001b3a8:	010e6e33          	or	t3,t3,a6
2001b3ac:	fef51ae3          	bne	a0,a5,2001b3a0 <__trunctfdf2+0xe6>
2001b3b0:	00251693          	slli	a3,a0,0x2
2001b3b4:	eb1d                	bnez	a4,2001b3ea <__trunctfdf2+0x130>
2001b3b6:	478d                	li	a5,3
2001b3b8:	40a78533          	sub	a0,a5,a0
2001b3bc:	00d607b3          	add	a5,a2,a3
2001b3c0:	439c                	lw	a5,0(a5)
2001b3c2:	0705                	addi	a4,a4,1
2001b3c4:	0611                	addi	a2,a2,4
2001b3c6:	fef62e23          	sw	a5,-4(a2)
2001b3ca:	fee559e3          	bge	a0,a4,2001b3bc <__trunctfdf2+0x102>
2001b3ce:	4691                	li	a3,4
2001b3d0:	00271793          	slli	a5,a4,0x2
2001b3d4:	979a                	add	a5,a5,t1
2001b3d6:	0007a023          	sw	zero,0(a5)
2001b3da:	0705                	addi	a4,a4,1
2001b3dc:	fed71ae3          	bne	a4,a3,2001b3d0 <__trunctfdf2+0x116>
2001b3e0:	4742                	lw	a4,16(sp)
2001b3e2:	01c037b3          	snez	a5,t3
2001b3e6:	8fd9                	or	a5,a5,a4
2001b3e8:	bf51                	j	2001b37c <__trunctfdf2+0xc2>
2001b3ea:	101c                	addi	a5,sp,32
2001b3ec:	97b6                	add	a5,a5,a3
2001b3ee:	ff07a783          	lw	a5,-16(a5)
2001b3f2:	02000893          	li	a7,32
2001b3f6:	40e888b3          	sub	a7,a7,a4
2001b3fa:	011797b3          	sll	a5,a5,a7
2001b3fe:	00fe6e33          	or	t3,t3,a5
2001b402:	478d                	li	a5,3
2001b404:	969a                	add	a3,a3,t1
2001b406:	4801                	li	a6,0
2001b408:	8f89                	sub	a5,a5,a0
2001b40a:	0691                	addi	a3,a3,4
2001b40c:	00f84d63          	blt	a6,a5,2001b426 <__trunctfdf2+0x16c>
2001b410:	1014                	addi	a3,sp,32
2001b412:	078a                	slli	a5,a5,0x2
2001b414:	97b6                	add	a5,a5,a3
2001b416:	46f2                	lw	a3,28(sp)
2001b418:	00e6d733          	srl	a4,a3,a4
2001b41c:	fee7a823          	sw	a4,-16(a5)
2001b420:	4711                	li	a4,4
2001b422:	8f09                	sub	a4,a4,a0
2001b424:	b76d                	j	2001b3ce <__trunctfdf2+0x114>
2001b426:	ffc6a603          	lw	a2,-4(a3)
2001b42a:	0006af03          	lw	t5,0(a3)
2001b42e:	00281e93          	slli	t4,a6,0x2
2001b432:	00e65633          	srl	a2,a2,a4
2001b436:	011f1f33          	sll	t5,t5,a7
2001b43a:	9e9a                	add	t4,t4,t1
2001b43c:	01e66633          	or	a2,a2,t5
2001b440:	00cea023          	sw	a2,0(t4)
2001b444:	0805                	addi	a6,a6,1
2001b446:	b7d1                	j	2001b40a <__trunctfdf2+0x150>
2001b448:	4652                	lw	a2,20(sp)
2001b44a:	47e2                	lw	a5,24(sp)
2001b44c:	4872                	lw	a6,28(sp)
2001b44e:	00f666b3          	or	a3,a2,a5
2001b452:	0106e6b3          	or	a3,a3,a6
2001b456:	8ec9                	or	a3,a3,a0
2001b458:	e709                	bnez	a4,2001b462 <__trunctfdf2+0x1a8>
2001b45a:	00d036b3          	snez	a3,a3
2001b45e:	4781                	li	a5,0
2001b460:	bdc5                	j	2001b350 <__trunctfdf2+0x96>
2001b462:	cebd                	beqz	a3,2001b4e0 <__trunctfdf2+0x226>
2001b464:	01c65693          	srli	a3,a2,0x1c
2001b468:	0812                	slli	a6,a6,0x4
2001b46a:	00479613          	slli	a2,a5,0x4
2001b46e:	83f1                	srli	a5,a5,0x1c
2001b470:	00400737          	lui	a4,0x400
2001b474:	8ed1                	or	a3,a3,a2
2001b476:	0107e7b3          	or	a5,a5,a6
2001b47a:	8fd9                	or	a5,a5,a4
2001b47c:	9ae1                	andi	a3,a3,-8
2001b47e:	7ff00713          	li	a4,2047
2001b482:	b5f9                	j	2001b350 <__trunctfdf2+0x96>
2001b484:	4781                	li	a5,0
2001b486:	4681                	li	a3,0
2001b488:	7ff00713          	li	a4,2047
2001b48c:	00879613          	slli	a2,a5,0x8
2001b490:	00065b63          	bgez	a2,2001b4a6 <__trunctfdf2+0x1ec>
2001b494:	0705                	addi	a4,a4,1
2001b496:	7ff00613          	li	a2,2047
2001b49a:	04c70563          	beq	a4,a2,2001b4e4 <__trunctfdf2+0x22a>
2001b49e:	ff800637          	lui	a2,0xff800
2001b4a2:	167d                	addi	a2,a2,-1
2001b4a4:	8ff1                	and	a5,a5,a2
2001b4a6:	01d79613          	slli	a2,a5,0x1d
2001b4aa:	828d                	srli	a3,a3,0x3
2001b4ac:	8ed1                	or	a3,a3,a2
2001b4ae:	7ff00613          	li	a2,2047
2001b4b2:	838d                	srli	a5,a5,0x3
2001b4b4:	00c71963          	bne	a4,a2,2001b4c6 <__trunctfdf2+0x20c>
2001b4b8:	8edd                	or	a3,a3,a5
2001b4ba:	4781                	li	a5,0
2001b4bc:	c689                	beqz	a3,2001b4c6 <__trunctfdf2+0x20c>
2001b4be:	000807b7          	lui	a5,0x80
2001b4c2:	4681                	li	a3,0
2001b4c4:	4581                	li	a1,0
2001b4c6:	07b2                	slli	a5,a5,0xc
2001b4c8:	7ff77713          	andi	a4,a4,2047
2001b4cc:	0752                	slli	a4,a4,0x14
2001b4ce:	83b1                	srli	a5,a5,0xc
2001b4d0:	05fe                	slli	a1,a1,0x1f
2001b4d2:	8fd9                	or	a5,a5,a4
2001b4d4:	00b7e733          	or	a4,a5,a1
2001b4d8:	8536                	mv	a0,a3
2001b4da:	85ba                	mv	a1,a4
2001b4dc:	6105                	addi	sp,sp,32
2001b4de:	8082                	ret
2001b4e0:	4781                	li	a5,0
2001b4e2:	b75d                	j	2001b488 <__trunctfdf2+0x1ce>
2001b4e4:	4781                	li	a5,0
2001b4e6:	4681                	li	a3,0
2001b4e8:	bf7d                	j	2001b4a6 <__trunctfdf2+0x1ec>

2001b4ea <__clzsi2>:
2001b4ea:	67c1                	lui	a5,0x10
2001b4ec:	02f57663          	bgeu	a0,a5,2001b518 <__clzsi2+0x2e>
2001b4f0:	0ff00793          	li	a5,255
2001b4f4:	00a7b7b3          	sltu	a5,a5,a0
2001b4f8:	078e                	slli	a5,a5,0x3
2001b4fa:	02000713          	li	a4,32
2001b4fe:	8f1d                	sub	a4,a4,a5
2001b500:	00f557b3          	srl	a5,a0,a5
2001b504:	00003517          	auipc	a0,0x3
2001b508:	2d850513          	addi	a0,a0,728 # 2001e7dc <__clz_tab>
2001b50c:	97aa                	add	a5,a5,a0
2001b50e:	0007c503          	lbu	a0,0(a5) # 10000 <__heap_size+0xfc00>
2001b512:	40a70533          	sub	a0,a4,a0
2001b516:	8082                	ret
2001b518:	01000737          	lui	a4,0x1000
2001b51c:	47c1                	li	a5,16
2001b51e:	fce56ee3          	bltu	a0,a4,2001b4fa <__clzsi2+0x10>
2001b522:	47e1                	li	a5,24
2001b524:	bfd9                	j	2001b4fa <__clzsi2+0x10>
	...

2001b528 <early_trap_vector>:
2001b528:	a001                	j	2001b528 <early_trap_vector>

2001b52a <_close>:
2001b52a:	1101                	addi	sp,sp,-32
2001b52c:	ce06                	sw	ra,28(sp)
2001b52e:	cc22                	sw	s0,24(sp)
2001b530:	1000                	addi	s0,sp,32
2001b532:	fea42623          	sw	a0,-20(s0)
2001b536:	2271                	jal	2001b6c2 <__errno>
2001b538:	872a                	mv	a4,a0
2001b53a:	05800793          	li	a5,88
2001b53e:	c31c                	sw	a5,0(a4)
2001b540:	57fd                	li	a5,-1
2001b542:	853e                	mv	a0,a5
2001b544:	40f2                	lw	ra,28(sp)
2001b546:	4462                	lw	s0,24(sp)
2001b548:	6105                	addi	sp,sp,32
2001b54a:	8082                	ret

2001b54c <_fstat>:
2001b54c:	1101                	addi	sp,sp,-32
2001b54e:	ce06                	sw	ra,28(sp)
2001b550:	cc22                	sw	s0,24(sp)
2001b552:	1000                	addi	s0,sp,32
2001b554:	fea42623          	sw	a0,-20(s0)
2001b558:	feb42423          	sw	a1,-24(s0)
2001b55c:	229d                	jal	2001b6c2 <__errno>
2001b55e:	872a                	mv	a4,a0
2001b560:	fa800793          	li	a5,-88
2001b564:	c31c                	sw	a5,0(a4)
2001b566:	57fd                	li	a5,-1
2001b568:	853e                	mv	a0,a5
2001b56a:	40f2                	lw	ra,28(sp)
2001b56c:	4462                	lw	s0,24(sp)
2001b56e:	6105                	addi	sp,sp,32
2001b570:	8082                	ret

2001b572 <_isatty>:
2001b572:	1101                	addi	sp,sp,-32
2001b574:	ce22                	sw	s0,28(sp)
2001b576:	1000                	addi	s0,sp,32
2001b578:	fea42623          	sw	a0,-20(s0)
2001b57c:	fec42783          	lw	a5,-20(s0)
2001b580:	17fd                	addi	a5,a5,-1
2001b582:	0017b793          	seqz	a5,a5
2001b586:	0ff7f793          	andi	a5,a5,255
2001b58a:	853e                	mv	a0,a5
2001b58c:	4472                	lw	s0,28(sp)
2001b58e:	6105                	addi	sp,sp,32
2001b590:	8082                	ret

2001b592 <_lseek>:
2001b592:	1101                	addi	sp,sp,-32
2001b594:	ce06                	sw	ra,28(sp)
2001b596:	cc22                	sw	s0,24(sp)
2001b598:	1000                	addi	s0,sp,32
2001b59a:	fea42623          	sw	a0,-20(s0)
2001b59e:	feb42423          	sw	a1,-24(s0)
2001b5a2:	fec42223          	sw	a2,-28(s0)
2001b5a6:	2a31                	jal	2001b6c2 <__errno>
2001b5a8:	872a                	mv	a4,a0
2001b5aa:	05800793          	li	a5,88
2001b5ae:	c31c                	sw	a5,0(a4)
2001b5b0:	57fd                	li	a5,-1
2001b5b2:	853e                	mv	a0,a5
2001b5b4:	40f2                	lw	ra,28(sp)
2001b5b6:	4462                	lw	s0,24(sp)
2001b5b8:	6105                	addi	sp,sp,32
2001b5ba:	8082                	ret

2001b5bc <_read>:
2001b5bc:	1101                	addi	sp,sp,-32
2001b5be:	ce06                	sw	ra,28(sp)
2001b5c0:	cc22                	sw	s0,24(sp)
2001b5c2:	1000                	addi	s0,sp,32
2001b5c4:	fea42623          	sw	a0,-20(s0)
2001b5c8:	feb42423          	sw	a1,-24(s0)
2001b5cc:	fec42223          	sw	a2,-28(s0)
2001b5d0:	28cd                	jal	2001b6c2 <__errno>
2001b5d2:	872a                	mv	a4,a0
2001b5d4:	05800793          	li	a5,88
2001b5d8:	c31c                	sw	a5,0(a4)
2001b5da:	57fd                	li	a5,-1
2001b5dc:	853e                	mv	a0,a5
2001b5de:	40f2                	lw	ra,28(sp)
2001b5e0:	4462                	lw	s0,24(sp)
2001b5e2:	6105                	addi	sp,sp,32
2001b5e4:	8082                	ret

2001b5e6 <_sbrk>:
2001b5e6:	7179                	addi	sp,sp,-48
2001b5e8:	d622                	sw	s0,44(sp)
2001b5ea:	1800                	addi	s0,sp,48
2001b5ec:	fca42e23          	sw	a0,-36(s0)
2001b5f0:	80c1a783          	lw	a5,-2036(gp) # 80001204 <brk>
2001b5f4:	fef42623          	sw	a5,-20(s0)
2001b5f8:	c8c18713          	addi	a4,gp,-884 # 80001684 <metal_segment_stack_end>
2001b5fc:	800047b7          	lui	a5,0x80004
2001b600:	00078793          	mv	a5,a5
2001b604:	00f71463          	bne	a4,a5,2001b60c <_sbrk+0x26>
2001b608:	4781                	li	a5,0
2001b60a:	a825                	j	2001b642 <_sbrk+0x5c>
2001b60c:	80c1a703          	lw	a4,-2036(gp) # 80001204 <brk>
2001b610:	fdc42783          	lw	a5,-36(s0)
2001b614:	973e                	add	a4,a4,a5
2001b616:	800047b7          	lui	a5,0x80004
2001b61a:	00078793          	mv	a5,a5
2001b61e:	00f77a63          	bgeu	a4,a5,2001b632 <_sbrk+0x4c>
2001b622:	80c1a703          	lw	a4,-2036(gp) # 80001204 <brk>
2001b626:	fdc42783          	lw	a5,-36(s0)
2001b62a:	973e                	add	a4,a4,a5
2001b62c:	80e1a623          	sw	a4,-2036(gp) # 80001204 <brk>
2001b630:	a039                	j	2001b63e <_sbrk+0x58>
2001b632:	80004737          	lui	a4,0x80004
2001b636:	00070713          	mv	a4,a4
2001b63a:	80e1a623          	sw	a4,-2036(gp) # 80001204 <brk>
2001b63e:	fec42783          	lw	a5,-20(s0)
2001b642:	853e                	mv	a0,a5
2001b644:	5432                	lw	s0,44(sp)
2001b646:	6145                	addi	sp,sp,48
2001b648:	8082                	ret

2001b64a <_write>:
2001b64a:	7179                	addi	sp,sp,-48
2001b64c:	d606                	sw	ra,44(sp)
2001b64e:	d422                	sw	s0,40(sp)
2001b650:	1800                	addi	s0,sp,48
2001b652:	fca42e23          	sw	a0,-36(s0)
2001b656:	fcb42c23          	sw	a1,-40(s0)
2001b65a:	fcc42a23          	sw	a2,-44(s0)
2001b65e:	fdc42703          	lw	a4,-36(s0)
2001b662:	4785                	li	a5,1
2001b664:	00f70963          	beq	a4,a5,2001b676 <_write+0x2c>
2001b668:	28a9                	jal	2001b6c2 <__errno>
2001b66a:	872a                	mv	a4,a0
2001b66c:	05800793          	li	a5,88
2001b670:	c31c                	sw	a5,0(a4)
2001b672:	57fd                	li	a5,-1
2001b674:	a82d                	j	2001b6ae <_write+0x64>
2001b676:	fd842783          	lw	a5,-40(s0)
2001b67a:	fef42423          	sw	a5,-24(s0)
2001b67e:	fe042623          	sw	zero,-20(s0)
2001b682:	a839                	j	2001b6a0 <_write+0x56>
2001b684:	fe842703          	lw	a4,-24(s0)
2001b688:	fec42783          	lw	a5,-20(s0)
2001b68c:	97ba                	add	a5,a5,a4
2001b68e:	0007c783          	lbu	a5,0(a5) # 80004000 <metal_segment_heap_target_end+0x0>
2001b692:	853e                	mv	a0,a5
2001b694:	2c01                	jal	2001b8a4 <metal_tty_putc>
2001b696:	fec42783          	lw	a5,-20(s0)
2001b69a:	0785                	addi	a5,a5,1
2001b69c:	fef42623          	sw	a5,-20(s0)
2001b6a0:	fec42703          	lw	a4,-20(s0)
2001b6a4:	fd442783          	lw	a5,-44(s0)
2001b6a8:	fcf76ee3          	bltu	a4,a5,2001b684 <_write+0x3a>
2001b6ac:	4781                	li	a5,0
2001b6ae:	853e                	mv	a0,a5
2001b6b0:	50b2                	lw	ra,44(sp)
2001b6b2:	5422                	lw	s0,40(sp)
2001b6b4:	6145                	addi	sp,sp,48
2001b6b6:	8082                	ret

2001b6b8 <atexit>:
2001b6b8:	85aa                	mv	a1,a0
2001b6ba:	4681                	li	a3,0
2001b6bc:	4601                	li	a2,0
2001b6be:	4501                	li	a0,0
2001b6c0:	a8d1                	j	2001b794 <__register_exitproc>

2001b6c2 <__errno>:
2001b6c2:	5ffe6797          	auipc	a5,0x5ffe6
2001b6c6:	b3678793          	addi	a5,a5,-1226 # 800011f8 <_impure_ptr>
2001b6ca:	4388                	lw	a0,0(a5)
2001b6cc:	8082                	ret

2001b6ce <exit>:
2001b6ce:	1141                	addi	sp,sp,-16
2001b6d0:	4581                	li	a1,0
2001b6d2:	c422                	sw	s0,8(sp)
2001b6d4:	c606                	sw	ra,12(sp)
2001b6d6:	842a                	mv	s0,a0
2001b6d8:	2a39                	jal	2001b7f6 <__call_exitprocs>
2001b6da:	85018793          	addi	a5,gp,-1968 # 80001248 <_global_impure_ptr>
2001b6de:	4388                	lw	a0,0(a5)
2001b6e0:	5d5c                	lw	a5,60(a0)
2001b6e2:	c391                	beqz	a5,2001b6e6 <exit+0x18>
2001b6e4:	9782                	jalr	a5
2001b6e6:	8522                	mv	a0,s0
2001b6e8:	4c6020ef          	jal	ra,2001dbae <_exit>

2001b6ec <__libc_fini_array>:
2001b6ec:	1141                	addi	sp,sp,-16
2001b6ee:	dffe5797          	auipc	a5,0xdffe5
2001b6f2:	91278793          	addi	a5,a5,-1774 # 0 <__heap_size-0x400>
2001b6f6:	c422                	sw	s0,8(sp)
2001b6f8:	dffe5417          	auipc	s0,0xdffe5
2001b6fc:	90840413          	addi	s0,s0,-1784 # 0 <__heap_size-0x400>
2001b700:	8c1d                	sub	s0,s0,a5
2001b702:	c226                	sw	s1,4(sp)
2001b704:	c606                	sw	ra,12(sp)
2001b706:	8409                	srai	s0,s0,0x2
2001b708:	84be                	mv	s1,a5
2001b70a:	e419                	bnez	s0,2001b718 <__libc_fini_array+0x2c>
2001b70c:	4422                	lw	s0,8(sp)
2001b70e:	40b2                	lw	ra,12(sp)
2001b710:	4492                	lw	s1,4(sp)
2001b712:	0141                	addi	sp,sp,16
2001b714:	a1bf406f          	j	2001012e <_fini>
2001b718:	147d                	addi	s0,s0,-1
2001b71a:	00241793          	slli	a5,s0,0x2
2001b71e:	97a6                	add	a5,a5,s1
2001b720:	439c                	lw	a5,0(a5)
2001b722:	9782                	jalr	a5
2001b724:	b7dd                	j	2001b70a <__libc_fini_array+0x1e>

2001b726 <__libc_init_array>:
2001b726:	1141                	addi	sp,sp,-16
2001b728:	00004797          	auipc	a5,0x4
2001b72c:	ca078793          	addi	a5,a5,-864 # 2001f3c8 <__init_array_start>
2001b730:	c422                	sw	s0,8(sp)
2001b732:	00004417          	auipc	s0,0x4
2001b736:	c9640413          	addi	s0,s0,-874 # 2001f3c8 <__init_array_start>
2001b73a:	8c1d                	sub	s0,s0,a5
2001b73c:	c226                	sw	s1,4(sp)
2001b73e:	c04a                	sw	s2,0(sp)
2001b740:	c606                	sw	ra,12(sp)
2001b742:	8409                	srai	s0,s0,0x2
2001b744:	4481                	li	s1,0
2001b746:	893e                	mv	s2,a5
2001b748:	02849863          	bne	s1,s0,2001b778 <__libc_init_array+0x52>
2001b74c:	9e3f40ef          	jal	ra,2001012e <_fini>
2001b750:	00004797          	auipc	a5,0x4
2001b754:	c7878793          	addi	a5,a5,-904 # 2001f3c8 <__init_array_start>
2001b758:	00004417          	auipc	s0,0x4
2001b75c:	c7c40413          	addi	s0,s0,-900 # 2001f3d4 <__init_array_end>
2001b760:	8c1d                	sub	s0,s0,a5
2001b762:	8409                	srai	s0,s0,0x2
2001b764:	4481                	li	s1,0
2001b766:	893e                	mv	s2,a5
2001b768:	00849f63          	bne	s1,s0,2001b786 <__libc_init_array+0x60>
2001b76c:	40b2                	lw	ra,12(sp)
2001b76e:	4422                	lw	s0,8(sp)
2001b770:	4492                	lw	s1,4(sp)
2001b772:	4902                	lw	s2,0(sp)
2001b774:	0141                	addi	sp,sp,16
2001b776:	8082                	ret
2001b778:	00249793          	slli	a5,s1,0x2
2001b77c:	97ca                	add	a5,a5,s2
2001b77e:	439c                	lw	a5,0(a5)
2001b780:	0485                	addi	s1,s1,1
2001b782:	9782                	jalr	a5
2001b784:	b7d1                	j	2001b748 <__libc_init_array+0x22>
2001b786:	00249793          	slli	a5,s1,0x2
2001b78a:	97ca                	add	a5,a5,s2
2001b78c:	439c                	lw	a5,0(a5)
2001b78e:	0485                	addi	s1,s1,1
2001b790:	9782                	jalr	a5
2001b792:	bfd9                	j	2001b768 <__libc_init_array+0x42>

2001b794 <__register_exitproc>:
2001b794:	85018793          	addi	a5,gp,-1968 # 80001248 <_global_impure_ptr>
2001b798:	4398                	lw	a4,0(a5)
2001b79a:	832a                	mv	t1,a0
2001b79c:	14872783          	lw	a5,328(a4) # 80004148 <metal_segment_heap_target_end+0x148>
2001b7a0:	e789                	bnez	a5,2001b7aa <__register_exitproc+0x16>
2001b7a2:	14c70793          	addi	a5,a4,332
2001b7a6:	14f72423          	sw	a5,328(a4)
2001b7aa:	43d8                	lw	a4,4(a5)
2001b7ac:	487d                	li	a6,31
2001b7ae:	557d                	li	a0,-1
2001b7b0:	04e84263          	blt	a6,a4,2001b7f4 <__register_exitproc+0x60>
2001b7b4:	00271893          	slli	a7,a4,0x2
2001b7b8:	02030963          	beqz	t1,2001b7ea <__register_exitproc+0x56>
2001b7bc:	01178533          	add	a0,a5,a7
2001b7c0:	08c52423          	sw	a2,136(a0)
2001b7c4:	1887a803          	lw	a6,392(a5)
2001b7c8:	4605                	li	a2,1
2001b7ca:	00e61633          	sll	a2,a2,a4
2001b7ce:	00c86833          	or	a6,a6,a2
2001b7d2:	1907a423          	sw	a6,392(a5)
2001b7d6:	10d52423          	sw	a3,264(a0)
2001b7da:	4689                	li	a3,2
2001b7dc:	00d31763          	bne	t1,a3,2001b7ea <__register_exitproc+0x56>
2001b7e0:	18c7a683          	lw	a3,396(a5)
2001b7e4:	8e55                	or	a2,a2,a3
2001b7e6:	18c7a623          	sw	a2,396(a5)
2001b7ea:	0705                	addi	a4,a4,1
2001b7ec:	c3d8                	sw	a4,4(a5)
2001b7ee:	97c6                	add	a5,a5,a7
2001b7f0:	c78c                	sw	a1,8(a5)
2001b7f2:	4501                	li	a0,0
2001b7f4:	8082                	ret

2001b7f6 <__call_exitprocs>:
2001b7f6:	7179                	addi	sp,sp,-48
2001b7f8:	85018793          	addi	a5,gp,-1968 # 80001248 <_global_impure_ptr>
2001b7fc:	ce4e                	sw	s3,28(sp)
2001b7fe:	0007a983          	lw	s3,0(a5)
2001b802:	cc52                	sw	s4,24(sp)
2001b804:	ca56                	sw	s5,20(sp)
2001b806:	c85a                	sw	s6,16(sp)
2001b808:	d606                	sw	ra,44(sp)
2001b80a:	d422                	sw	s0,40(sp)
2001b80c:	d226                	sw	s1,36(sp)
2001b80e:	d04a                	sw	s2,32(sp)
2001b810:	c65e                	sw	s7,12(sp)
2001b812:	8aaa                	mv	s5,a0
2001b814:	8a2e                	mv	s4,a1
2001b816:	4b05                	li	s6,1
2001b818:	1489a483          	lw	s1,328(s3)
2001b81c:	c881                	beqz	s1,2001b82c <__call_exitprocs+0x36>
2001b81e:	40c0                	lw	s0,4(s1)
2001b820:	fff40913          	addi	s2,s0,-1
2001b824:	040a                	slli	s0,s0,0x2
2001b826:	9426                	add	s0,s0,s1
2001b828:	00095d63          	bgez	s2,2001b842 <__call_exitprocs+0x4c>
2001b82c:	50b2                	lw	ra,44(sp)
2001b82e:	5422                	lw	s0,40(sp)
2001b830:	5492                	lw	s1,36(sp)
2001b832:	5902                	lw	s2,32(sp)
2001b834:	49f2                	lw	s3,28(sp)
2001b836:	4a62                	lw	s4,24(sp)
2001b838:	4ad2                	lw	s5,20(sp)
2001b83a:	4b42                	lw	s6,16(sp)
2001b83c:	4bb2                	lw	s7,12(sp)
2001b83e:	6145                	addi	sp,sp,48
2001b840:	8082                	ret
2001b842:	000a0963          	beqz	s4,2001b854 <__call_exitprocs+0x5e>
2001b846:	10442783          	lw	a5,260(s0)
2001b84a:	01478563          	beq	a5,s4,2001b854 <__call_exitprocs+0x5e>
2001b84e:	197d                	addi	s2,s2,-1
2001b850:	1471                	addi	s0,s0,-4
2001b852:	bfd9                	j	2001b828 <__call_exitprocs+0x32>
2001b854:	40d8                	lw	a4,4(s1)
2001b856:	405c                	lw	a5,4(s0)
2001b858:	177d                	addi	a4,a4,-1
2001b85a:	03271663          	bne	a4,s2,2001b886 <__call_exitprocs+0x90>
2001b85e:	0124a223          	sw	s2,4(s1) # ffffc004 <metal_segment_heap_target_end+0x7fff8004>
2001b862:	d7f5                	beqz	a5,2001b84e <__call_exitprocs+0x58>
2001b864:	1884a683          	lw	a3,392(s1)
2001b868:	012b1733          	sll	a4,s6,s2
2001b86c:	0044ab83          	lw	s7,4(s1)
2001b870:	8ef9                	and	a3,a3,a4
2001b872:	ee89                	bnez	a3,2001b88c <__call_exitprocs+0x96>
2001b874:	9782                	jalr	a5
2001b876:	40dc                	lw	a5,4(s1)
2001b878:	fb7790e3          	bne	a5,s7,2001b818 <__call_exitprocs+0x22>
2001b87c:	1489a783          	lw	a5,328(s3)
2001b880:	fc9787e3          	beq	a5,s1,2001b84e <__call_exitprocs+0x58>
2001b884:	bf51                	j	2001b818 <__call_exitprocs+0x22>
2001b886:	00042223          	sw	zero,4(s0)
2001b88a:	bfe1                	j	2001b862 <__call_exitprocs+0x6c>
2001b88c:	18c4a683          	lw	a3,396(s1)
2001b890:	08442583          	lw	a1,132(s0)
2001b894:	8f75                	and	a4,a4,a3
2001b896:	e701                	bnez	a4,2001b89e <__call_exitprocs+0xa8>
2001b898:	8556                	mv	a0,s5
2001b89a:	9782                	jalr	a5
2001b89c:	bfe9                	j	2001b876 <__call_exitprocs+0x80>
2001b89e:	852e                	mv	a0,a1
2001b8a0:	9782                	jalr	a5
2001b8a2:	bfd1                	j	2001b876 <__call_exitprocs+0x80>

2001b8a4 <metal_tty_putc>:
2001b8a4:	7179                	addi	sp,sp,-48
2001b8a6:	d606                	sw	ra,44(sp)
2001b8a8:	d422                	sw	s0,40(sp)
2001b8aa:	1800                	addi	s0,sp,48
2001b8ac:	87aa                	mv	a5,a0
2001b8ae:	fcf40fa3          	sb	a5,-33(s0)
2001b8b2:	fdf44703          	lbu	a4,-33(s0)
2001b8b6:	47a9                	li	a5,10
2001b8b8:	02f71063          	bne	a4,a5,2001b8d8 <metal_tty_putc+0x34>
2001b8bc:	45b5                	li	a1,13
2001b8be:	800017b7          	lui	a5,0x80001
2001b8c2:	14078513          	addi	a0,a5,320 # 80001140 <metal_segment_heap_target_end+0xffffd140>
2001b8c6:	28ad                	jal	2001b940 <metal_uart_putc>
2001b8c8:	fea42623          	sw	a0,-20(s0)
2001b8cc:	fec42783          	lw	a5,-20(s0)
2001b8d0:	c781                	beqz	a5,2001b8d8 <metal_tty_putc+0x34>
2001b8d2:	fec42783          	lw	a5,-20(s0)
2001b8d6:	a811                	j	2001b8ea <metal_tty_putc+0x46>
2001b8d8:	fdf44783          	lbu	a5,-33(s0)
2001b8dc:	85be                	mv	a1,a5
2001b8de:	800017b7          	lui	a5,0x80001
2001b8e2:	14078513          	addi	a0,a5,320 # 80001140 <metal_segment_heap_target_end+0xffffd140>
2001b8e6:	28a9                	jal	2001b940 <metal_uart_putc>
2001b8e8:	87aa                	mv	a5,a0
2001b8ea:	853e                	mv	a0,a5
2001b8ec:	50b2                	lw	ra,44(sp)
2001b8ee:	5422                	lw	s0,40(sp)
2001b8f0:	6145                	addi	sp,sp,48
2001b8f2:	8082                	ret

2001b8f4 <metal_tty_init>:
2001b8f4:	1141                	addi	sp,sp,-16
2001b8f6:	c606                	sw	ra,12(sp)
2001b8f8:	c422                	sw	s0,8(sp)
2001b8fa:	0800                	addi	s0,sp,16
2001b8fc:	67f1                	lui	a5,0x1c
2001b8fe:	20078593          	addi	a1,a5,512 # 1c200 <__heap_size+0x1be00>
2001b902:	800017b7          	lui	a5,0x80001
2001b906:	14078513          	addi	a0,a5,320 # 80001140 <metal_segment_heap_target_end+0xffffd140>
2001b90a:	2031                	jal	2001b916 <metal_uart_init>
2001b90c:	0001                	nop
2001b90e:	40b2                	lw	ra,12(sp)
2001b910:	4422                	lw	s0,8(sp)
2001b912:	0141                	addi	sp,sp,16
2001b914:	8082                	ret

2001b916 <metal_uart_init>:
2001b916:	1101                	addi	sp,sp,-32
2001b918:	ce06                	sw	ra,28(sp)
2001b91a:	cc22                	sw	s0,24(sp)
2001b91c:	1000                	addi	s0,sp,32
2001b91e:	fea42623          	sw	a0,-20(s0)
2001b922:	feb42423          	sw	a1,-24(s0)
2001b926:	fec42783          	lw	a5,-20(s0)
2001b92a:	439c                	lw	a5,0(a5)
2001b92c:	439c                	lw	a5,0(a5)
2001b92e:	fe842583          	lw	a1,-24(s0)
2001b932:	fec42503          	lw	a0,-20(s0)
2001b936:	9782                	jalr	a5
2001b938:	40f2                	lw	ra,28(sp)
2001b93a:	4462                	lw	s0,24(sp)
2001b93c:	6105                	addi	sp,sp,32
2001b93e:	8082                	ret

2001b940 <metal_uart_putc>:
2001b940:	1101                	addi	sp,sp,-32
2001b942:	ce06                	sw	ra,28(sp)
2001b944:	cc22                	sw	s0,24(sp)
2001b946:	1000                	addi	s0,sp,32
2001b948:	fea42623          	sw	a0,-20(s0)
2001b94c:	87ae                	mv	a5,a1
2001b94e:	fef405a3          	sb	a5,-21(s0)
2001b952:	fec42783          	lw	a5,-20(s0)
2001b956:	439c                	lw	a5,0(a5)
2001b958:	43d8                	lw	a4,4(a5)
2001b95a:	feb44783          	lbu	a5,-21(s0)
2001b95e:	85be                	mv	a1,a5
2001b960:	fec42503          	lw	a0,-20(s0)
2001b964:	9702                	jalr	a4
2001b966:	87aa                	mv	a5,a0
2001b968:	853e                	mv	a0,a5
2001b96a:	40f2                	lw	ra,28(sp)
2001b96c:	4462                	lw	s0,24(sp)
2001b96e:	6105                	addi	sp,sp,32
2001b970:	8082                	ret

2001b972 <metal_uart_set_baud_rate>:
2001b972:	1101                	addi	sp,sp,-32
2001b974:	ce06                	sw	ra,28(sp)
2001b976:	cc22                	sw	s0,24(sp)
2001b978:	1000                	addi	s0,sp,32
2001b97a:	fea42623          	sw	a0,-20(s0)
2001b97e:	feb42423          	sw	a1,-24(s0)
2001b982:	fec42783          	lw	a5,-20(s0)
2001b986:	439c                	lw	a5,0(a5)
2001b988:	4b9c                	lw	a5,16(a5)
2001b98a:	fe842583          	lw	a1,-24(s0)
2001b98e:	fec42503          	lw	a0,-20(s0)
2001b992:	9782                	jalr	a5
2001b994:	87aa                	mv	a5,a0
2001b996:	853e                	mv	a0,a5
2001b998:	40f2                	lw	ra,28(sp)
2001b99a:	4462                	lw	s0,24(sp)
2001b99c:	6105                	addi	sp,sp,32
2001b99e:	8082                	ret

2001b9a0 <__metal_driver_fixed_clock_get_rate_hz>:
2001b9a0:	7179                	addi	sp,sp,-48
2001b9a2:	d622                	sw	s0,44(sp)
2001b9a4:	1800                	addi	s0,sp,48
2001b9a6:	fca42e23          	sw	a0,-36(s0)
2001b9aa:	fdc42783          	lw	a5,-36(s0)
2001b9ae:	fef42623          	sw	a5,-20(s0)
2001b9b2:	fec42783          	lw	a5,-20(s0)
2001b9b6:	4f9c                	lw	a5,24(a5)
2001b9b8:	853e                	mv	a0,a5
2001b9ba:	5432                	lw	s0,44(sp)
2001b9bc:	6145                	addi	sp,sp,48
2001b9be:	8082                	ret

2001b9c0 <__metal_driver_fixed_clock_set_rate_hz>:
2001b9c0:	1101                	addi	sp,sp,-32
2001b9c2:	ce06                	sw	ra,28(sp)
2001b9c4:	cc22                	sw	s0,24(sp)
2001b9c6:	1000                	addi	s0,sp,32
2001b9c8:	fea42623          	sw	a0,-20(s0)
2001b9cc:	feb42423          	sw	a1,-24(s0)
2001b9d0:	fec42503          	lw	a0,-20(s0)
2001b9d4:	fcdff0ef          	jal	ra,2001b9a0 <__metal_driver_fixed_clock_get_rate_hz>
2001b9d8:	87aa                	mv	a5,a0
2001b9da:	853e                	mv	a0,a5
2001b9dc:	40f2                	lw	ra,28(sp)
2001b9de:	4462                	lw	s0,24(sp)
2001b9e0:	6105                	addi	sp,sp,32
2001b9e2:	8082                	ret

2001b9e4 <__metal_clint0_mtime_get>:
2001b9e4:	7179                	addi	sp,sp,-48
2001b9e6:	d622                	sw	s0,44(sp)
2001b9e8:	1800                	addi	s0,sp,48
2001b9ea:	fca42e23          	sw	a0,-36(s0)
2001b9ee:	fdc42503          	lw	a0,-36(s0)
2001b9f2:	00852883          	lw	a7,8(a0)
2001b9f6:	6531                	lui	a0,0xc
2001b9f8:	1571                	addi	a0,a0,-4
2001b9fa:	9546                	add	a0,a0,a7
2001b9fc:	4108                	lw	a0,0(a0)
2001b9fe:	fea42623          	sw	a0,-20(s0)
2001ba02:	fdc42503          	lw	a0,-36(s0)
2001ba06:	00852883          	lw	a7,8(a0) # c008 <__heap_size+0xbc08>
2001ba0a:	6531                	lui	a0,0xc
2001ba0c:	1561                	addi	a0,a0,-8
2001ba0e:	9546                	add	a0,a0,a7
2001ba10:	4108                	lw	a0,0(a0)
2001ba12:	fea42423          	sw	a0,-24(s0)
2001ba16:	fdc42503          	lw	a0,-36(s0)
2001ba1a:	00852883          	lw	a7,8(a0) # c008 <__heap_size+0xbc08>
2001ba1e:	6531                	lui	a0,0xc
2001ba20:	1571                	addi	a0,a0,-4
2001ba22:	9546                	add	a0,a0,a7
2001ba24:	4108                	lw	a0,0(a0)
2001ba26:	fec42883          	lw	a7,-20(s0)
2001ba2a:	fca892e3          	bne	a7,a0,2001b9ee <__metal_clint0_mtime_get+0xa>
2001ba2e:	fec42503          	lw	a0,-20(s0)
2001ba32:	832a                	mv	t1,a0
2001ba34:	4381                	li	t2,0
2001ba36:	00031813          	slli	a6,t1,0x0
2001ba3a:	4781                	li	a5,0
2001ba3c:	fe842503          	lw	a0,-24(s0)
2001ba40:	86aa                	mv	a3,a0
2001ba42:	4701                	li	a4,0
2001ba44:	00d7e5b3          	or	a1,a5,a3
2001ba48:	00e86633          	or	a2,a6,a4
2001ba4c:	87ae                	mv	a5,a1
2001ba4e:	8832                	mv	a6,a2
2001ba50:	853e                	mv	a0,a5
2001ba52:	85c2                	mv	a1,a6
2001ba54:	5432                	lw	s0,44(sp)
2001ba56:	6145                	addi	sp,sp,48
2001ba58:	8082                	ret

2001ba5a <__metal_clint0_mtime_set>:
2001ba5a:	1101                	addi	sp,sp,-32
2001ba5c:	ce22                	sw	s0,28(sp)
2001ba5e:	1000                	addi	s0,sp,32
2001ba60:	fea42623          	sw	a0,-20(s0)
2001ba64:	feb42023          	sw	a1,-32(s0)
2001ba68:	fec42223          	sw	a2,-28(s0)
2001ba6c:	fec42703          	lw	a4,-20(s0)
2001ba70:	4714                	lw	a3,8(a4)
2001ba72:	6711                	lui	a4,0x4
2001ba74:	0711                	addi	a4,a4,4
2001ba76:	9736                	add	a4,a4,a3
2001ba78:	86ba                	mv	a3,a4
2001ba7a:	577d                	li	a4,-1
2001ba7c:	c298                	sw	a4,0(a3)
2001ba7e:	fec42703          	lw	a4,-20(s0)
2001ba82:	4714                	lw	a3,8(a4)
2001ba84:	6711                	lui	a4,0x4
2001ba86:	9736                	add	a4,a4,a3
2001ba88:	86ba                	mv	a3,a4
2001ba8a:	fe042703          	lw	a4,-32(s0)
2001ba8e:	c298                	sw	a4,0(a3)
2001ba90:	fe442703          	lw	a4,-28(s0)
2001ba94:	00075793          	srli	a5,a4,0x0
2001ba98:	4801                	li	a6,0
2001ba9a:	fec42703          	lw	a4,-20(s0)
2001ba9e:	4714                	lw	a3,8(a4)
2001baa0:	6711                	lui	a4,0x4
2001baa2:	0711                	addi	a4,a4,4
2001baa4:	9736                	add	a4,a4,a3
2001baa6:	c31c                	sw	a5,0(a4)
2001baa8:	4781                	li	a5,0
2001baaa:	853e                	mv	a0,a5
2001baac:	4472                	lw	s0,28(sp)
2001baae:	6105                	addi	sp,sp,32
2001bab0:	8082                	ret

2001bab2 <__metal_driver_riscv_clint0_init>:
2001bab2:	7179                	addi	sp,sp,-48
2001bab4:	d606                	sw	ra,44(sp)
2001bab6:	d422                	sw	s0,40(sp)
2001bab8:	1800                	addi	s0,sp,48
2001baba:	fca42e23          	sw	a0,-36(s0)
2001babe:	fdc42783          	lw	a5,-36(s0)
2001bac2:	fef42423          	sw	a5,-24(s0)
2001bac6:	fe842783          	lw	a5,-24(s0)
2001baca:	4b9c                	lw	a5,16(a5)
2001bacc:	efa9                	bnez	a5,2001bb26 <__metal_driver_riscv_clint0_init+0x74>
2001bace:	fe842783          	lw	a5,-24(s0)
2001bad2:	4bdc                	lw	a5,20(a5)
2001bad4:	fef42223          	sw	a5,-28(s0)
2001bad8:	fe042623          	sw	zero,-20(s0)
2001badc:	a815                	j	2001bb10 <__metal_driver_riscv_clint0_init+0x5e>
2001bade:	fe442783          	lw	a5,-28(s0)
2001bae2:	439c                	lw	a5,0(a5)
2001bae4:	0047a803          	lw	a6,4(a5)
2001bae8:	fe842703          	lw	a4,-24(s0)
2001baec:	fec42783          	lw	a5,-20(s0)
2001baf0:	0791                	addi	a5,a5,4
2001baf2:	078a                	slli	a5,a5,0x2
2001baf4:	97ba                	add	a5,a5,a4
2001baf6:	47dc                	lw	a5,12(a5)
2001baf8:	fe842683          	lw	a3,-24(s0)
2001bafc:	4601                	li	a2,0
2001bafe:	85be                	mv	a1,a5
2001bb00:	fe442503          	lw	a0,-28(s0)
2001bb04:	9802                	jalr	a6
2001bb06:	fec42783          	lw	a5,-20(s0)
2001bb0a:	0785                	addi	a5,a5,1
2001bb0c:	fef42623          	sw	a5,-20(s0)
2001bb10:	fe842783          	lw	a5,-24(s0)
2001bb14:	4f9c                	lw	a5,24(a5)
2001bb16:	fec42703          	lw	a4,-20(s0)
2001bb1a:	fcf742e3          	blt	a4,a5,2001bade <__metal_driver_riscv_clint0_init+0x2c>
2001bb1e:	fe842783          	lw	a5,-24(s0)
2001bb22:	4705                	li	a4,1
2001bb24:	cb98                	sw	a4,16(a5)
2001bb26:	0001                	nop
2001bb28:	50b2                	lw	ra,44(sp)
2001bb2a:	5422                	lw	s0,40(sp)
2001bb2c:	6145                	addi	sp,sp,48
2001bb2e:	8082                	ret

2001bb30 <__metal_driver_riscv_clint0_register>:
2001bb30:	7179                	addi	sp,sp,-48
2001bb32:	d606                	sw	ra,44(sp)
2001bb34:	d422                	sw	s0,40(sp)
2001bb36:	1800                	addi	s0,sp,48
2001bb38:	fca42e23          	sw	a0,-36(s0)
2001bb3c:	fcb42c23          	sw	a1,-40(s0)
2001bb40:	fcc42a23          	sw	a2,-44(s0)
2001bb44:	fcd42823          	sw	a3,-48(s0)
2001bb48:	57fd                	li	a5,-1
2001bb4a:	fef42623          	sw	a5,-20(s0)
2001bb4e:	fdc42783          	lw	a5,-36(s0)
2001bb52:	fef42423          	sw	a5,-24(s0)
2001bb56:	fe842783          	lw	a5,-24(s0)
2001bb5a:	4bdc                	lw	a5,20(a5)
2001bb5c:	fef42223          	sw	a5,-28(s0)
2001bb60:	fe442783          	lw	a5,-28(s0)
2001bb64:	c385                	beqz	a5,2001bb84 <__metal_driver_riscv_clint0_register+0x54>
2001bb66:	fe442783          	lw	a5,-28(s0)
2001bb6a:	439c                	lw	a5,0(a5)
2001bb6c:	43dc                	lw	a5,4(a5)
2001bb6e:	fd042683          	lw	a3,-48(s0)
2001bb72:	fd442603          	lw	a2,-44(s0)
2001bb76:	fd842583          	lw	a1,-40(s0)
2001bb7a:	fe442503          	lw	a0,-28(s0)
2001bb7e:	9782                	jalr	a5
2001bb80:	fea42623          	sw	a0,-20(s0)
2001bb84:	fec42783          	lw	a5,-20(s0)
2001bb88:	853e                	mv	a0,a5
2001bb8a:	50b2                	lw	ra,44(sp)
2001bb8c:	5422                	lw	s0,40(sp)
2001bb8e:	6145                	addi	sp,sp,48
2001bb90:	8082                	ret

2001bb92 <__metal_driver_riscv_clint0_enable>:
2001bb92:	7179                	addi	sp,sp,-48
2001bb94:	d606                	sw	ra,44(sp)
2001bb96:	d422                	sw	s0,40(sp)
2001bb98:	1800                	addi	s0,sp,48
2001bb9a:	fca42e23          	sw	a0,-36(s0)
2001bb9e:	fcb42c23          	sw	a1,-40(s0)
2001bba2:	57fd                	li	a5,-1
2001bba4:	fef42623          	sw	a5,-20(s0)
2001bba8:	fdc42783          	lw	a5,-36(s0)
2001bbac:	fef42423          	sw	a5,-24(s0)
2001bbb0:	fd842783          	lw	a5,-40(s0)
2001bbb4:	c785                	beqz	a5,2001bbdc <__metal_driver_riscv_clint0_enable+0x4a>
2001bbb6:	fe842783          	lw	a5,-24(s0)
2001bbba:	4bdc                	lw	a5,20(a5)
2001bbbc:	fef42223          	sw	a5,-28(s0)
2001bbc0:	fe442783          	lw	a5,-28(s0)
2001bbc4:	cf81                	beqz	a5,2001bbdc <__metal_driver_riscv_clint0_enable+0x4a>
2001bbc6:	fe442783          	lw	a5,-28(s0)
2001bbca:	439c                	lw	a5,0(a5)
2001bbcc:	479c                	lw	a5,8(a5)
2001bbce:	fd842583          	lw	a1,-40(s0)
2001bbd2:	fe442503          	lw	a0,-28(s0)
2001bbd6:	9782                	jalr	a5
2001bbd8:	fea42623          	sw	a0,-20(s0)
2001bbdc:	0001                	nop
2001bbde:	853e                	mv	a0,a5
2001bbe0:	50b2                	lw	ra,44(sp)
2001bbe2:	5422                	lw	s0,40(sp)
2001bbe4:	6145                	addi	sp,sp,48
2001bbe6:	8082                	ret

2001bbe8 <__metal_driver_riscv_clint0_disable>:
2001bbe8:	7179                	addi	sp,sp,-48
2001bbea:	d606                	sw	ra,44(sp)
2001bbec:	d422                	sw	s0,40(sp)
2001bbee:	1800                	addi	s0,sp,48
2001bbf0:	fca42e23          	sw	a0,-36(s0)
2001bbf4:	fcb42c23          	sw	a1,-40(s0)
2001bbf8:	57fd                	li	a5,-1
2001bbfa:	fef42623          	sw	a5,-20(s0)
2001bbfe:	fdc42783          	lw	a5,-36(s0)
2001bc02:	fef42423          	sw	a5,-24(s0)
2001bc06:	fd842783          	lw	a5,-40(s0)
2001bc0a:	c785                	beqz	a5,2001bc32 <__metal_driver_riscv_clint0_disable+0x4a>
2001bc0c:	fe842783          	lw	a5,-24(s0)
2001bc10:	4bdc                	lw	a5,20(a5)
2001bc12:	fef42223          	sw	a5,-28(s0)
2001bc16:	fe442783          	lw	a5,-28(s0)
2001bc1a:	cf81                	beqz	a5,2001bc32 <__metal_driver_riscv_clint0_disable+0x4a>
2001bc1c:	fe442783          	lw	a5,-28(s0)
2001bc20:	439c                	lw	a5,0(a5)
2001bc22:	47dc                	lw	a5,12(a5)
2001bc24:	fd842583          	lw	a1,-40(s0)
2001bc28:	fe442503          	lw	a0,-28(s0)
2001bc2c:	9782                	jalr	a5
2001bc2e:	fea42623          	sw	a0,-20(s0)
2001bc32:	0001                	nop
2001bc34:	853e                	mv	a0,a5
2001bc36:	50b2                	lw	ra,44(sp)
2001bc38:	5422                	lw	s0,40(sp)
2001bc3a:	6145                	addi	sp,sp,48
2001bc3c:	8082                	ret

2001bc3e <__metal_driver_riscv_clint0_command_request>:
2001bc3e:	7179                	addi	sp,sp,-48
2001bc40:	d606                	sw	ra,44(sp)
2001bc42:	d422                	sw	s0,40(sp)
2001bc44:	1800                	addi	s0,sp,48
2001bc46:	fca42e23          	sw	a0,-36(s0)
2001bc4a:	fcb42c23          	sw	a1,-40(s0)
2001bc4e:	fcc42a23          	sw	a2,-44(s0)
2001bc52:	57fd                	li	a5,-1
2001bc54:	fef42623          	sw	a5,-20(s0)
2001bc58:	fdc42783          	lw	a5,-36(s0)
2001bc5c:	fef42423          	sw	a5,-24(s0)
2001bc60:	fd842703          	lw	a4,-40(s0)
2001bc64:	4795                	li	a5,5
2001bc66:	0ce7ed63          	bltu	a5,a4,2001bd40 <__metal_driver_riscv_clint0_command_request+0x102>
2001bc6a:	fd842783          	lw	a5,-40(s0)
2001bc6e:	00279713          	slli	a4,a5,0x2
2001bc72:	2001f7b7          	lui	a5,0x2001f
2001bc76:	9c878793          	addi	a5,a5,-1592 # 2001e9c8 <__metal_driver_vtable_sifive_fe310_g000_pll+0xc>
2001bc7a:	97ba                	add	a5,a5,a4
2001bc7c:	439c                	lw	a5,0(a5)
2001bc7e:	8782                	jr	a5
2001bc80:	fd442783          	lw	a5,-44(s0)
2001bc84:	c3e1                	beqz	a5,2001bd44 <__metal_driver_riscv_clint0_command_request+0x106>
2001bc86:	fe842503          	lw	a0,-24(s0)
2001bc8a:	d5bff0ef          	jal	ra,2001b9e4 <__metal_clint0_mtime_get>
2001bc8e:	87aa                	mv	a5,a0
2001bc90:	882e                	mv	a6,a1
2001bc92:	fd442703          	lw	a4,-44(s0)
2001bc96:	c31c                	sw	a5,0(a4)
2001bc98:	01072223          	sw	a6,4(a4) # 4004 <__heap_size+0x3c04>
2001bc9c:	fe042623          	sw	zero,-20(s0)
2001bca0:	a055                	j	2001bd44 <__metal_driver_riscv_clint0_command_request+0x106>
2001bca2:	fd442783          	lw	a5,-44(s0)
2001bca6:	c3cd                	beqz	a5,2001bd48 <__metal_driver_riscv_clint0_command_request+0x10a>
2001bca8:	fd442783          	lw	a5,-44(s0)
2001bcac:	0047a803          	lw	a6,4(a5)
2001bcb0:	439c                	lw	a5,0(a5)
2001bcb2:	85be                	mv	a1,a5
2001bcb4:	8642                	mv	a2,a6
2001bcb6:	fe842503          	lw	a0,-24(s0)
2001bcba:	da1ff0ef          	jal	ra,2001ba5a <__metal_clint0_mtime_set>
2001bcbe:	fe042623          	sw	zero,-20(s0)
2001bcc2:	a059                	j	2001bd48 <__metal_driver_riscv_clint0_command_request+0x10a>
2001bcc4:	fd442783          	lw	a5,-44(s0)
2001bcc8:	c3d1                	beqz	a5,2001bd4c <__metal_driver_riscv_clint0_command_request+0x10e>
2001bcca:	fd442783          	lw	a5,-44(s0)
2001bcce:	439c                	lw	a5,0(a5)
2001bcd0:	fef42223          	sw	a5,-28(s0)
2001bcd4:	fe842783          	lw	a5,-24(s0)
2001bcd8:	479c                	lw	a5,8(a5)
2001bcda:	fe442703          	lw	a4,-28(s0)
2001bcde:	070a                	slli	a4,a4,0x2
2001bce0:	97ba                	add	a5,a5,a4
2001bce2:	0007a023          	sw	zero,0(a5)
2001bce6:	fe042623          	sw	zero,-20(s0)
2001bcea:	a08d                	j	2001bd4c <__metal_driver_riscv_clint0_command_request+0x10e>
2001bcec:	fd442783          	lw	a5,-44(s0)
2001bcf0:	c3a5                	beqz	a5,2001bd50 <__metal_driver_riscv_clint0_command_request+0x112>
2001bcf2:	fd442783          	lw	a5,-44(s0)
2001bcf6:	439c                	lw	a5,0(a5)
2001bcf8:	fef42223          	sw	a5,-28(s0)
2001bcfc:	fe842783          	lw	a5,-24(s0)
2001bd00:	479c                	lw	a5,8(a5)
2001bd02:	fe442703          	lw	a4,-28(s0)
2001bd06:	070a                	slli	a4,a4,0x2
2001bd08:	97ba                	add	a5,a5,a4
2001bd0a:	873e                	mv	a4,a5
2001bd0c:	4785                	li	a5,1
2001bd0e:	c31c                	sw	a5,0(a4)
2001bd10:	fe042623          	sw	zero,-20(s0)
2001bd14:	a835                	j	2001bd50 <__metal_driver_riscv_clint0_command_request+0x112>
2001bd16:	fe042623          	sw	zero,-20(s0)
2001bd1a:	fd442783          	lw	a5,-44(s0)
2001bd1e:	cb9d                	beqz	a5,2001bd54 <__metal_driver_riscv_clint0_command_request+0x116>
2001bd20:	fd442783          	lw	a5,-44(s0)
2001bd24:	439c                	lw	a5,0(a5)
2001bd26:	fef42223          	sw	a5,-28(s0)
2001bd2a:	fe842783          	lw	a5,-24(s0)
2001bd2e:	479c                	lw	a5,8(a5)
2001bd30:	fe442703          	lw	a4,-28(s0)
2001bd34:	070a                	slli	a4,a4,0x2
2001bd36:	97ba                	add	a5,a5,a4
2001bd38:	439c                	lw	a5,0(a5)
2001bd3a:	fef42623          	sw	a5,-20(s0)
2001bd3e:	a819                	j	2001bd54 <__metal_driver_riscv_clint0_command_request+0x116>
2001bd40:	0001                	nop
2001bd42:	a811                	j	2001bd56 <__metal_driver_riscv_clint0_command_request+0x118>
2001bd44:	0001                	nop
2001bd46:	a801                	j	2001bd56 <__metal_driver_riscv_clint0_command_request+0x118>
2001bd48:	0001                	nop
2001bd4a:	a031                	j	2001bd56 <__metal_driver_riscv_clint0_command_request+0x118>
2001bd4c:	0001                	nop
2001bd4e:	a021                	j	2001bd56 <__metal_driver_riscv_clint0_command_request+0x118>
2001bd50:	0001                	nop
2001bd52:	a011                	j	2001bd56 <__metal_driver_riscv_clint0_command_request+0x118>
2001bd54:	0001                	nop
2001bd56:	fec42783          	lw	a5,-20(s0)
2001bd5a:	853e                	mv	a0,a5
2001bd5c:	50b2                	lw	ra,44(sp)
2001bd5e:	5422                	lw	s0,40(sp)
2001bd60:	6145                	addi	sp,sp,48
2001bd62:	8082                	ret

2001bd64 <__metal_driver_cpu_get>:
2001bd64:	1101                	addi	sp,sp,-32
2001bd66:	ce22                	sw	s0,28(sp)
2001bd68:	1000                	addi	s0,sp,32
2001bd6a:	fea42623          	sw	a0,-20(s0)
2001bd6e:	fec42783          	lw	a5,-20(s0)
2001bd72:	00f04a63          	bgtz	a5,2001bd86 <__metal_driver_cpu_get+0x22>
2001bd76:	fec42703          	lw	a4,-20(s0)
2001bd7a:	070a                	slli	a4,a4,0x2
2001bd7c:	83018793          	addi	a5,gp,-2000 # 80001228 <__metal_cpu_table>
2001bd80:	97ba                	add	a5,a5,a4
2001bd82:	439c                	lw	a5,0(a5)
2001bd84:	a011                	j	2001bd88 <__metal_driver_cpu_get+0x24>
2001bd86:	4781                	li	a5,0
2001bd88:	853e                	mv	a0,a5
2001bd8a:	4472                	lw	s0,28(sp)
2001bd8c:	6105                	addi	sp,sp,32
2001bd8e:	8082                	ret

2001bd90 <__metal_myhart_id>:
2001bd90:	1101                	addi	sp,sp,-32
2001bd92:	ce22                	sw	s0,28(sp)
2001bd94:	1000                	addi	s0,sp,32
2001bd96:	f14027f3          	csrr	a5,mhartid
2001bd9a:	fef42623          	sw	a5,-20(s0)
2001bd9e:	fec42783          	lw	a5,-20(s0)
2001bda2:	853e                	mv	a0,a5
2001bda4:	4472                	lw	s0,28(sp)
2001bda6:	6105                	addi	sp,sp,32
2001bda8:	8082                	ret

2001bdaa <__metal_interrupt_global_enable>:
2001bdaa:	1101                	addi	sp,sp,-32
2001bdac:	ce22                	sw	s0,28(sp)
2001bdae:	1000                	addi	s0,sp,32
2001bdb0:	47a1                	li	a5,8
2001bdb2:	3007a7f3          	csrrs	a5,mstatus,a5
2001bdb6:	fef42623          	sw	a5,-20(s0)
2001bdba:	0001                	nop
2001bdbc:	4472                	lw	s0,28(sp)
2001bdbe:	6105                	addi	sp,sp,32
2001bdc0:	8082                	ret

2001bdc2 <__metal_interrupt_global_disable>:
2001bdc2:	1101                	addi	sp,sp,-32
2001bdc4:	ce22                	sw	s0,28(sp)
2001bdc6:	1000                	addi	s0,sp,32
2001bdc8:	47a1                	li	a5,8
2001bdca:	3007b7f3          	csrrc	a5,mstatus,a5
2001bdce:	fef42623          	sw	a5,-20(s0)
2001bdd2:	0001                	nop
2001bdd4:	4472                	lw	s0,28(sp)
2001bdd6:	6105                	addi	sp,sp,32
2001bdd8:	8082                	ret

2001bdda <__metal_interrupt_software_enable>:
2001bdda:	1101                	addi	sp,sp,-32
2001bddc:	ce22                	sw	s0,28(sp)
2001bdde:	1000                	addi	s0,sp,32
2001bde0:	47a1                	li	a5,8
2001bde2:	3047a7f3          	csrrs	a5,mie,a5
2001bde6:	fef42623          	sw	a5,-20(s0)
2001bdea:	0001                	nop
2001bdec:	4472                	lw	s0,28(sp)
2001bdee:	6105                	addi	sp,sp,32
2001bdf0:	8082                	ret

2001bdf2 <__metal_interrupt_software_disable>:
2001bdf2:	1101                	addi	sp,sp,-32
2001bdf4:	ce22                	sw	s0,28(sp)
2001bdf6:	1000                	addi	s0,sp,32
2001bdf8:	47a1                	li	a5,8
2001bdfa:	3047b7f3          	csrrc	a5,mie,a5
2001bdfe:	fef42623          	sw	a5,-20(s0)
2001be02:	0001                	nop
2001be04:	4472                	lw	s0,28(sp)
2001be06:	6105                	addi	sp,sp,32
2001be08:	8082                	ret

2001be0a <__metal_interrupt_timer_enable>:
2001be0a:	1101                	addi	sp,sp,-32
2001be0c:	ce22                	sw	s0,28(sp)
2001be0e:	1000                	addi	s0,sp,32
2001be10:	08000793          	li	a5,128
2001be14:	3047a7f3          	csrrs	a5,mie,a5
2001be18:	fef42623          	sw	a5,-20(s0)
2001be1c:	0001                	nop
2001be1e:	4472                	lw	s0,28(sp)
2001be20:	6105                	addi	sp,sp,32
2001be22:	8082                	ret

2001be24 <__metal_interrupt_timer_disable>:
2001be24:	1101                	addi	sp,sp,-32
2001be26:	ce22                	sw	s0,28(sp)
2001be28:	1000                	addi	s0,sp,32
2001be2a:	08000793          	li	a5,128
2001be2e:	3047b7f3          	csrrc	a5,mie,a5
2001be32:	fef42623          	sw	a5,-20(s0)
2001be36:	0001                	nop
2001be38:	4472                	lw	s0,28(sp)
2001be3a:	6105                	addi	sp,sp,32
2001be3c:	8082                	ret

2001be3e <__metal_interrupt_external_enable>:
2001be3e:	1101                	addi	sp,sp,-32
2001be40:	ce22                	sw	s0,28(sp)
2001be42:	1000                	addi	s0,sp,32
2001be44:	6785                	lui	a5,0x1
2001be46:	80078793          	addi	a5,a5,-2048 # 800 <__heap_size+0x400>
2001be4a:	3047a7f3          	csrrs	a5,mie,a5
2001be4e:	fef42623          	sw	a5,-20(s0)
2001be52:	0001                	nop
2001be54:	4472                	lw	s0,28(sp)
2001be56:	6105                	addi	sp,sp,32
2001be58:	8082                	ret

2001be5a <__metal_interrupt_external_disable>:
2001be5a:	1101                	addi	sp,sp,-32
2001be5c:	ce22                	sw	s0,28(sp)
2001be5e:	1000                	addi	s0,sp,32
2001be60:	6785                	lui	a5,0x1
2001be62:	80078793          	addi	a5,a5,-2048 # 800 <__heap_size+0x400>
2001be66:	3047b7f3          	csrrc	a5,mie,a5
2001be6a:	fef42623          	sw	a5,-20(s0)
2001be6e:	0001                	nop
2001be70:	4472                	lw	s0,28(sp)
2001be72:	6105                	addi	sp,sp,32
2001be74:	8082                	ret

2001be76 <__metal_interrupt_local_enable>:
2001be76:	7179                	addi	sp,sp,-48
2001be78:	d622                	sw	s0,44(sp)
2001be7a:	1800                	addi	s0,sp,48
2001be7c:	fca42e23          	sw	a0,-36(s0)
2001be80:	fdc42783          	lw	a5,-36(s0)
2001be84:	4705                	li	a4,1
2001be86:	00f717b3          	sll	a5,a4,a5
2001be8a:	fef42623          	sw	a5,-20(s0)
2001be8e:	fec42783          	lw	a5,-20(s0)
2001be92:	3047a7f3          	csrrs	a5,mie,a5
2001be96:	fef42423          	sw	a5,-24(s0)
2001be9a:	0001                	nop
2001be9c:	5432                	lw	s0,44(sp)
2001be9e:	6145                	addi	sp,sp,48
2001bea0:	8082                	ret

2001bea2 <__metal_interrupt_local_disable>:
2001bea2:	7179                	addi	sp,sp,-48
2001bea4:	d622                	sw	s0,44(sp)
2001bea6:	1800                	addi	s0,sp,48
2001bea8:	fca42e23          	sw	a0,-36(s0)
2001beac:	fdc42783          	lw	a5,-36(s0)
2001beb0:	4705                	li	a4,1
2001beb2:	00f717b3          	sll	a5,a4,a5
2001beb6:	fef42623          	sw	a5,-20(s0)
2001beba:	fec42783          	lw	a5,-20(s0)
2001bebe:	3047b7f3          	csrrc	a5,mie,a5
2001bec2:	fef42423          	sw	a5,-24(s0)
2001bec6:	0001                	nop
2001bec8:	5432                	lw	s0,44(sp)
2001beca:	6145                	addi	sp,sp,48
2001becc:	8082                	ret

2001bece <__metal_default_exception_handler>:
2001bece:	1101                	addi	sp,sp,-32
2001bed0:	ce06                	sw	ra,28(sp)
2001bed2:	cc22                	sw	s0,24(sp)
2001bed4:	1000                	addi	s0,sp,32
2001bed6:	fea42623          	sw	a0,-20(s0)
2001beda:	feb42423          	sw	a1,-24(s0)
2001bede:	06400513          	li	a0,100
2001bee2:	4bf010ef          	jal	ra,2001dba0 <metal_shutdown>

2001bee6 <__metal_default_interrupt_handler>:
2001bee6:	1101                	addi	sp,sp,-32
2001bee8:	ce06                	sw	ra,28(sp)
2001beea:	cc22                	sw	s0,24(sp)
2001beec:	1000                	addi	s0,sp,32
2001beee:	fea42623          	sw	a0,-20(s0)
2001bef2:	feb42423          	sw	a1,-24(s0)
2001bef6:	0c800513          	li	a0,200
2001befa:	4a7010ef          	jal	ra,2001dba0 <metal_shutdown>

2001befe <__metal_default_sw_handler>:
2001befe:	7179                	addi	sp,sp,-48
2001bf00:	d606                	sw	ra,44(sp)
2001bf02:	d422                	sw	s0,40(sp)
2001bf04:	1800                	addi	s0,sp,48
2001bf06:	fca42e23          	sw	a0,-36(s0)
2001bf0a:	fcb42c23          	sw	a1,-40(s0)
2001bf0e:	e83ff0ef          	jal	ra,2001bd90 <__metal_myhart_id>
2001bf12:	872a                	mv	a4,a0
2001bf14:	070a                	slli	a4,a4,0x2
2001bf16:	83018793          	addi	a5,gp,-2000 # 80001228 <__metal_cpu_table>
2001bf1a:	97ba                	add	a5,a5,a4
2001bf1c:	439c                	lw	a5,0(a5)
2001bf1e:	fef42623          	sw	a5,-20(s0)
2001bf22:	342027f3          	csrr	a5,mcause
2001bf26:	fef42423          	sw	a5,-24(s0)
2001bf2a:	fec42783          	lw	a5,-20(s0)
2001bf2e:	c795                	beqz	a5,2001bf5a <__metal_default_sw_handler+0x5c>
2001bf30:	fec42783          	lw	a5,-20(s0)
2001bf34:	47dc                	lw	a5,12(a5)
2001bf36:	fef42223          	sw	a5,-28(s0)
2001bf3a:	fe842783          	lw	a5,-24(s0)
2001bf3e:	3ff7f793          	andi	a5,a5,1023
2001bf42:	fe442703          	lw	a4,-28(s0)
2001bf46:	0e478793          	addi	a5,a5,228
2001bf4a:	078a                	slli	a5,a5,0x2
2001bf4c:	97ba                	add	a5,a5,a4
2001bf4e:	439c                	lw	a5,0(a5)
2001bf50:	fdc42583          	lw	a1,-36(s0)
2001bf54:	fec42503          	lw	a0,-20(s0)
2001bf58:	9782                	jalr	a5
2001bf5a:	0001                	nop
2001bf5c:	50b2                	lw	ra,44(sp)
2001bf5e:	5422                	lw	s0,40(sp)
2001bf60:	6145                	addi	sp,sp,48
2001bf62:	8082                	ret

2001bf64 <__metal_default_timer_handler>:
2001bf64:	7179                	addi	sp,sp,-48
2001bf66:	d606                	sw	ra,44(sp)
2001bf68:	d422                	sw	s0,40(sp)
2001bf6a:	1800                	addi	s0,sp,48
2001bf6c:	fca42e23          	sw	a0,-36(s0)
2001bf70:	fcb42c23          	sw	a1,-40(s0)
2001bf74:	e1dff0ef          	jal	ra,2001bd90 <__metal_myhart_id>
2001bf78:	87aa                	mv	a5,a0
2001bf7a:	853e                	mv	a0,a5
2001bf7c:	de9ff0ef          	jal	ra,2001bd64 <__metal_driver_cpu_get>
2001bf80:	fea42623          	sw	a0,-20(s0)
2001bf84:	fec42503          	lw	a0,-20(s0)
2001bf88:	7d0000ef          	jal	ra,2001c758 <__metal_driver_cpu_mtime_get>
2001bf8c:	fea42023          	sw	a0,-32(s0)
2001bf90:	feb42223          	sw	a1,-28(s0)
2001bf94:	fe042783          	lw	a5,-32(s0)
2001bf98:	fe442803          	lw	a6,-28(s0)
2001bf9c:	45a9                	li	a1,10
2001bf9e:	4601                	li	a2,0
2001bfa0:	00b786b3          	add	a3,a5,a1
2001bfa4:	8536                	mv	a0,a3
2001bfa6:	00f53533          	sltu	a0,a0,a5
2001bfaa:	00c80733          	add	a4,a6,a2
2001bfae:	00e507b3          	add	a5,a0,a4
2001bfb2:	873e                	mv	a4,a5
2001bfb4:	87b6                	mv	a5,a3
2001bfb6:	883a                	mv	a6,a4
2001bfb8:	85be                	mv	a1,a5
2001bfba:	8642                	mv	a2,a6
2001bfbc:	fec42503          	lw	a0,-20(s0)
2001bfc0:	007000ef          	jal	ra,2001c7c6 <__metal_driver_cpu_mtimecmp_set>
2001bfc4:	0001                	nop
2001bfc6:	50b2                	lw	ra,44(sp)
2001bfc8:	5422                	lw	s0,40(sp)
2001bfca:	6145                	addi	sp,sp,48
2001bfcc:	8082                	ret
	...

2001c000 <__metal_exception_handler>:
2001c000:	7119                	addi	sp,sp,-128
2001c002:	de86                	sw	ra,124(sp)
2001c004:	dc96                	sw	t0,120(sp)
2001c006:	da9a                	sw	t1,116(sp)
2001c008:	d89e                	sw	t2,112(sp)
2001c00a:	d6a2                	sw	s0,108(sp)
2001c00c:	d4aa                	sw	a0,104(sp)
2001c00e:	d2ae                	sw	a1,100(sp)
2001c010:	d0b2                	sw	a2,96(sp)
2001c012:	ceb6                	sw	a3,92(sp)
2001c014:	ccba                	sw	a4,88(sp)
2001c016:	cabe                	sw	a5,84(sp)
2001c018:	c8c2                	sw	a6,80(sp)
2001c01a:	c6c6                	sw	a7,76(sp)
2001c01c:	c4f2                	sw	t3,72(sp)
2001c01e:	c2f6                	sw	t4,68(sp)
2001c020:	c0fa                	sw	t5,64(sp)
2001c022:	de7e                	sw	t6,60(sp)
2001c024:	0100                	addi	s0,sp,128
2001c026:	d6bff0ef          	jal	ra,2001bd90 <__metal_myhart_id>
2001c02a:	872a                	mv	a4,a0
2001c02c:	070a                	slli	a4,a4,0x2
2001c02e:	83018793          	addi	a5,gp,-2000 # 80001228 <__metal_cpu_table>
2001c032:	97ba                	add	a5,a5,a4
2001c034:	439c                	lw	a5,0(a5)
2001c036:	faf42623          	sw	a5,-84(s0)
2001c03a:	342027f3          	csrr	a5,mcause
2001c03e:	faf42423          	sw	a5,-88(s0)
2001c042:	341027f3          	csrr	a5,mepc
2001c046:	faf42223          	sw	a5,-92(s0)
2001c04a:	343027f3          	csrr	a5,mtval
2001c04e:	faf42023          	sw	a5,-96(s0)
2001c052:	305027f3          	csrr	a5,mtvec
2001c056:	f8f42e23          	sw	a5,-100(s0)
2001c05a:	fac42783          	lw	a5,-84(s0)
2001c05e:	c3f9                	beqz	a5,2001c124 <__metal_exception_handler+0x124>
2001c060:	fac42783          	lw	a5,-84(s0)
2001c064:	47dc                	lw	a5,12(a5)
2001c066:	f8f42c23          	sw	a5,-104(s0)
2001c06a:	fa842783          	lw	a5,-88(s0)
2001c06e:	3ff7f793          	andi	a5,a5,1023
2001c072:	f8f42a23          	sw	a5,-108(s0)
2001c076:	fa842783          	lw	a5,-88(s0)
2001c07a:	0807d763          	bgez	a5,2001c108 <__metal_exception_handler+0x108>
2001c07e:	f9442703          	lw	a4,-108(s0)
2001c082:	47bd                	li	a5,15
2001c084:	00e7d763          	bge	a5,a4,2001c092 <__metal_exception_handler+0x92>
2001c088:	f9c42783          	lw	a5,-100(s0)
2001c08c:	03f7f793          	andi	a5,a5,63
2001c090:	ef9d                	bnez	a5,2001c0ce <__metal_exception_handler+0xce>
2001c092:	f9842683          	lw	a3,-104(s0)
2001c096:	f9442703          	lw	a4,-108(s0)
2001c09a:	87ba                	mv	a5,a4
2001c09c:	0786                	slli	a5,a5,0x1
2001c09e:	97ba                	add	a5,a5,a4
2001c0a0:	078e                	slli	a5,a5,0x3
2001c0a2:	97b6                	add	a5,a5,a3
2001c0a4:	0a07a783          	lw	a5,160(a5)
2001c0a8:	f8f42623          	sw	a5,-116(s0)
2001c0ac:	f9842683          	lw	a3,-104(s0)
2001c0b0:	f9442703          	lw	a4,-108(s0)
2001c0b4:	87ba                	mv	a5,a4
2001c0b6:	0786                	slli	a5,a5,0x1
2001c0b8:	97ba                	add	a5,a5,a4
2001c0ba:	078e                	slli	a5,a5,0x3
2001c0bc:	97b6                	add	a5,a5,a3
2001c0be:	0987a783          	lw	a5,152(a5)
2001c0c2:	f8c42583          	lw	a1,-116(s0)
2001c0c6:	f9442503          	lw	a0,-108(s0)
2001c0ca:	9782                	jalr	a5
2001c0cc:	a8a1                	j	2001c124 <__metal_exception_handler+0x124>
2001c0ce:	f9c42783          	lw	a5,-100(s0)
2001c0d2:	03f7f713          	andi	a4,a5,63
2001c0d6:	4789                	li	a5,2
2001c0d8:	04f71663          	bne	a4,a5,2001c124 <__metal_exception_handler+0x124>
2001c0dc:	307027f3          	csrr	a5,0x307
2001c0e0:	f8f42823          	sw	a5,-112(s0)
2001c0e4:	f9842783          	lw	a5,-104(s0)
2001c0e8:	0e47a783          	lw	a5,228(a5)
2001c0ec:	f8f42623          	sw	a5,-116(s0)
2001c0f0:	f9042783          	lw	a5,-112(s0)
2001c0f4:	f8f42423          	sw	a5,-120(s0)
2001c0f8:	f8842783          	lw	a5,-120(s0)
2001c0fc:	f8c42583          	lw	a1,-116(s0)
2001c100:	f9442503          	lw	a0,-108(s0)
2001c104:	9782                	jalr	a5
2001c106:	a839                	j	2001c124 <__metal_exception_handler+0x124>
2001c108:	f9842703          	lw	a4,-104(s0)
2001c10c:	f9442783          	lw	a5,-108(s0)
2001c110:	0e478793          	addi	a5,a5,228
2001c114:	078a                	slli	a5,a5,0x2
2001c116:	97ba                	add	a5,a5,a4
2001c118:	439c                	lw	a5,0(a5)
2001c11a:	f9442583          	lw	a1,-108(s0)
2001c11e:	fac42503          	lw	a0,-84(s0)
2001c122:	9782                	jalr	a5
2001c124:	50f6                	lw	ra,124(sp)
2001c126:	52e6                	lw	t0,120(sp)
2001c128:	5356                	lw	t1,116(sp)
2001c12a:	53c6                	lw	t2,112(sp)
2001c12c:	5436                	lw	s0,108(sp)
2001c12e:	5526                	lw	a0,104(sp)
2001c130:	5596                	lw	a1,100(sp)
2001c132:	5606                	lw	a2,96(sp)
2001c134:	46f6                	lw	a3,92(sp)
2001c136:	4766                	lw	a4,88(sp)
2001c138:	47d6                	lw	a5,84(sp)
2001c13a:	4846                	lw	a6,80(sp)
2001c13c:	48b6                	lw	a7,76(sp)
2001c13e:	4e26                	lw	t3,72(sp)
2001c140:	4e96                	lw	t4,68(sp)
2001c142:	4f06                	lw	t5,64(sp)
2001c144:	5ff2                	lw	t6,60(sp)
2001c146:	6109                	addi	sp,sp,128
2001c148:	30200073          	mret
	...

2001c17a <__metal_controller_interrupt_vector>:
2001c17a:	7179                	addi	sp,sp,-48
2001c17c:	d622                	sw	s0,44(sp)
2001c17e:	1800                	addi	s0,sp,48
2001c180:	fca42e23          	sw	a0,-36(s0)
2001c184:	fcb42c23          	sw	a1,-40(s0)
2001c188:	305027f3          	csrr	a5,mtvec
2001c18c:	fef42623          	sw	a5,-20(s0)
2001c190:	fec42783          	lw	a5,-20(s0)
2001c194:	fc07f793          	andi	a5,a5,-64
2001c198:	fef42623          	sw	a5,-20(s0)
2001c19c:	fd842783          	lw	a5,-40(s0)
2001c1a0:	fef42423          	sw	a5,-24(s0)
2001c1a4:	fdc42703          	lw	a4,-36(s0)
2001c1a8:	4785                	li	a5,1
2001c1aa:	04f70a63          	beq	a4,a5,2001c1fe <__metal_controller_interrupt_vector+0x84>
2001c1ae:	fdc42783          	lw	a5,-36(s0)
2001c1b2:	cfa9                	beqz	a5,2001c20c <__metal_controller_interrupt_vector+0x92>
2001c1b4:	fdc42703          	lw	a4,-36(s0)
2001c1b8:	4789                	li	a5,2
2001c1ba:	00f70863          	beq	a4,a5,2001c1ca <__metal_controller_interrupt_vector+0x50>
2001c1be:	fdc42703          	lw	a4,-36(s0)
2001c1c2:	478d                	li	a5,3
2001c1c4:	02f70063          	beq	a4,a5,2001c1e4 <__metal_controller_interrupt_vector+0x6a>
2001c1c8:	a881                	j	2001c218 <__metal_controller_interrupt_vector+0x9e>
2001c1ca:	fe842783          	lw	a5,-24(s0)
2001c1ce:	0027e793          	ori	a5,a5,2
2001c1d2:	30779073          	csrw	0x307,a5
2001c1d6:	fec42783          	lw	a5,-20(s0)
2001c1da:	0027e793          	ori	a5,a5,2
2001c1de:	30579073          	csrw	mtvec,a5
2001c1e2:	a81d                	j	2001c218 <__metal_controller_interrupt_vector+0x9e>
2001c1e4:	fe842783          	lw	a5,-24(s0)
2001c1e8:	0037e793          	ori	a5,a5,3
2001c1ec:	30779073          	csrw	0x307,a5
2001c1f0:	fec42783          	lw	a5,-20(s0)
2001c1f4:	0037e793          	ori	a5,a5,3
2001c1f8:	30579073          	csrw	mtvec,a5
2001c1fc:	a831                	j	2001c218 <__metal_controller_interrupt_vector+0x9e>
2001c1fe:	fe842783          	lw	a5,-24(s0)
2001c202:	0017e793          	ori	a5,a5,1
2001c206:	30579073          	csrw	mtvec,a5
2001c20a:	a039                	j	2001c218 <__metal_controller_interrupt_vector+0x9e>
2001c20c:	fe842783          	lw	a5,-24(s0)
2001c210:	9bf1                	andi	a5,a5,-4
2001c212:	30579073          	csrw	mtvec,a5
2001c216:	0001                	nop
2001c218:	0001                	nop
2001c21a:	5432                	lw	s0,44(sp)
2001c21c:	6145                	addi	sp,sp,48
2001c21e:	8082                	ret

2001c220 <__metal_valid_interrupt_id>:
2001c220:	1101                	addi	sp,sp,-32
2001c222:	ce22                	sw	s0,28(sp)
2001c224:	1000                	addi	s0,sp,32
2001c226:	fea42623          	sw	a0,-20(s0)
2001c22a:	fec42783          	lw	a5,-20(s0)
2001c22e:	17f5                	addi	a5,a5,-3
2001c230:	4771                	li	a4,28
2001c232:	00f76d63          	bltu	a4,a5,2001c24c <__metal_valid_interrupt_id+0x2c>
2001c236:	00279713          	slli	a4,a5,0x2
2001c23a:	2001f7b7          	lui	a5,0x2001f
2001c23e:	9e078793          	addi	a5,a5,-1568 # 2001e9e0 <__metal_driver_vtable_sifive_fe310_g000_pll+0x24>
2001c242:	97ba                	add	a5,a5,a4
2001c244:	439c                	lw	a5,0(a5)
2001c246:	8782                	jr	a5
2001c248:	4785                	li	a5,1
2001c24a:	a019                	j	2001c250 <__metal_valid_interrupt_id+0x30>
2001c24c:	0001                	nop
2001c24e:	4781                	li	a5,0
2001c250:	853e                	mv	a0,a5
2001c252:	4472                	lw	s0,28(sp)
2001c254:	6105                	addi	sp,sp,32
2001c256:	8082                	ret

2001c258 <__metal_local_interrupt_enable>:
2001c258:	7179                	addi	sp,sp,-48
2001c25a:	d606                	sw	ra,44(sp)
2001c25c:	d422                	sw	s0,40(sp)
2001c25e:	1800                	addi	s0,sp,48
2001c260:	fca42e23          	sw	a0,-36(s0)
2001c264:	fcb42c23          	sw	a1,-40(s0)
2001c268:	fcc42a23          	sw	a2,-44(s0)
2001c26c:	fe042623          	sw	zero,-20(s0)
2001c270:	fdc42783          	lw	a5,-36(s0)
2001c274:	e399                	bnez	a5,2001c27a <__metal_local_interrupt_enable+0x22>
2001c276:	57fd                	li	a5,-1
2001c278:	a071                	j	2001c304 <__metal_local_interrupt_enable+0xac>
2001c27a:	fd842703          	lw	a4,-40(s0)
2001c27e:	47fd                	li	a5,31
2001c280:	08e7e063          	bltu	a5,a4,2001c300 <__metal_local_interrupt_enable+0xa8>
2001c284:	fd842783          	lw	a5,-40(s0)
2001c288:	00279713          	slli	a4,a5,0x2
2001c28c:	2001f7b7          	lui	a5,0x2001f
2001c290:	a5478793          	addi	a5,a5,-1452 # 2001ea54 <__metal_driver_vtable_sifive_fe310_g000_pll+0x98>
2001c294:	97ba                	add	a5,a5,a4
2001c296:	439c                	lw	a5,0(a5)
2001c298:	8782                	jr	a5
2001c29a:	fd442783          	lw	a5,-44(s0)
2001c29e:	c781                	beqz	a5,2001c2a6 <__metal_local_interrupt_enable+0x4e>
2001c2a0:	b0bff0ef          	jal	ra,2001bdaa <__metal_interrupt_global_enable>
2001c2a4:	a8b1                	j	2001c300 <__metal_local_interrupt_enable+0xa8>
2001c2a6:	b1dff0ef          	jal	ra,2001bdc2 <__metal_interrupt_global_disable>
2001c2aa:	a899                	j	2001c300 <__metal_local_interrupt_enable+0xa8>
2001c2ac:	fd442783          	lw	a5,-44(s0)
2001c2b0:	c781                	beqz	a5,2001c2b8 <__metal_local_interrupt_enable+0x60>
2001c2b2:	b29ff0ef          	jal	ra,2001bdda <__metal_interrupt_software_enable>
2001c2b6:	a0a9                	j	2001c300 <__metal_local_interrupt_enable+0xa8>
2001c2b8:	b3bff0ef          	jal	ra,2001bdf2 <__metal_interrupt_software_disable>
2001c2bc:	a091                	j	2001c300 <__metal_local_interrupt_enable+0xa8>
2001c2be:	fd442783          	lw	a5,-44(s0)
2001c2c2:	c781                	beqz	a5,2001c2ca <__metal_local_interrupt_enable+0x72>
2001c2c4:	b47ff0ef          	jal	ra,2001be0a <__metal_interrupt_timer_enable>
2001c2c8:	a825                	j	2001c300 <__metal_local_interrupt_enable+0xa8>
2001c2ca:	b5bff0ef          	jal	ra,2001be24 <__metal_interrupt_timer_disable>
2001c2ce:	a80d                	j	2001c300 <__metal_local_interrupt_enable+0xa8>
2001c2d0:	fd442783          	lw	a5,-44(s0)
2001c2d4:	c781                	beqz	a5,2001c2dc <__metal_local_interrupt_enable+0x84>
2001c2d6:	b69ff0ef          	jal	ra,2001be3e <__metal_interrupt_external_enable>
2001c2da:	a01d                	j	2001c300 <__metal_local_interrupt_enable+0xa8>
2001c2dc:	b7fff0ef          	jal	ra,2001be5a <__metal_interrupt_external_disable>
2001c2e0:	a005                	j	2001c300 <__metal_local_interrupt_enable+0xa8>
2001c2e2:	fd442783          	lw	a5,-44(s0)
2001c2e6:	c799                	beqz	a5,2001c2f4 <__metal_local_interrupt_enable+0x9c>
2001c2e8:	fd842783          	lw	a5,-40(s0)
2001c2ec:	853e                	mv	a0,a5
2001c2ee:	b89ff0ef          	jal	ra,2001be76 <__metal_interrupt_local_enable>
2001c2f2:	a031                	j	2001c2fe <__metal_local_interrupt_enable+0xa6>
2001c2f4:	fd842783          	lw	a5,-40(s0)
2001c2f8:	853e                	mv	a0,a5
2001c2fa:	ba9ff0ef          	jal	ra,2001bea2 <__metal_interrupt_local_disable>
2001c2fe:	0001                	nop
2001c300:	fec42783          	lw	a5,-20(s0)
2001c304:	853e                	mv	a0,a5
2001c306:	50b2                	lw	ra,44(sp)
2001c308:	5422                	lw	s0,40(sp)
2001c30a:	6145                	addi	sp,sp,48
2001c30c:	8082                	ret

2001c30e <__metal_exception_register>:
2001c30e:	7179                	addi	sp,sp,-48
2001c310:	d622                	sw	s0,44(sp)
2001c312:	1800                	addi	s0,sp,48
2001c314:	fca42e23          	sw	a0,-36(s0)
2001c318:	fcb42c23          	sw	a1,-40(s0)
2001c31c:	fcc42a23          	sw	a2,-44(s0)
2001c320:	fdc42783          	lw	a5,-36(s0)
2001c324:	fef42623          	sw	a5,-20(s0)
2001c328:	fd842703          	lw	a4,-40(s0)
2001c32c:	47ad                	li	a5,11
2001c32e:	02e7c263          	blt	a5,a4,2001c352 <__metal_exception_register+0x44>
2001c332:	fd442783          	lw	a5,-44(s0)
2001c336:	cf91                	beqz	a5,2001c352 <__metal_exception_register+0x44>
2001c338:	fec42703          	lw	a4,-20(s0)
2001c33c:	fd842783          	lw	a5,-40(s0)
2001c340:	0e478793          	addi	a5,a5,228
2001c344:	078a                	slli	a5,a5,0x2
2001c346:	97ba                	add	a5,a5,a4
2001c348:	fd442703          	lw	a4,-44(s0)
2001c34c:	c398                	sw	a4,0(a5)
2001c34e:	4781                	li	a5,0
2001c350:	a011                	j	2001c354 <__metal_exception_register+0x46>
2001c352:	57fd                	li	a5,-1
2001c354:	853e                	mv	a0,a5
2001c356:	5432                	lw	s0,44(sp)
2001c358:	6145                	addi	sp,sp,48
2001c35a:	8082                	ret

2001c35c <__metal_driver_riscv_cpu_controller_interrupt_init>:
2001c35c:	7179                	addi	sp,sp,-48
2001c35e:	d606                	sw	ra,44(sp)
2001c360:	d422                	sw	s0,40(sp)
2001c362:	1800                	addi	s0,sp,48
2001c364:	fca42e23          	sw	a0,-36(s0)
2001c368:	fdc42783          	lw	a5,-36(s0)
2001c36c:	fef42223          	sw	a5,-28(s0)
2001c370:	fe442783          	lw	a5,-28(s0)
2001c374:	479c                	lw	a5,8(a5)
2001c376:	ebe9                	bnez	a5,2001c448 <__metal_driver_riscv_cpu_controller_interrupt_init+0xec>
2001c378:	fe042623          	sw	zero,-20(s0)
2001c37c:	a0b9                	j	2001c3ca <__metal_driver_riscv_cpu_controller_interrupt_init+0x6e>
2001c37e:	fe442683          	lw	a3,-28(s0)
2001c382:	fec42703          	lw	a4,-20(s0)
2001c386:	87ba                	mv	a5,a4
2001c388:	0786                	slli	a5,a5,0x1
2001c38a:	97ba                	add	a5,a5,a4
2001c38c:	078e                	slli	a5,a5,0x3
2001c38e:	97b6                	add	a5,a5,a3
2001c390:	0807ac23          	sw	zero,152(a5)
2001c394:	fe442683          	lw	a3,-28(s0)
2001c398:	fec42703          	lw	a4,-20(s0)
2001c39c:	87ba                	mv	a5,a4
2001c39e:	0786                	slli	a5,a5,0x1
2001c3a0:	97ba                	add	a5,a5,a4
2001c3a2:	078e                	slli	a5,a5,0x3
2001c3a4:	97b6                	add	a5,a5,a3
2001c3a6:	0807ae23          	sw	zero,156(a5)
2001c3aa:	fe442683          	lw	a3,-28(s0)
2001c3ae:	fec42703          	lw	a4,-20(s0)
2001c3b2:	87ba                	mv	a5,a4
2001c3b4:	0786                	slli	a5,a5,0x1
2001c3b6:	97ba                	add	a5,a5,a4
2001c3b8:	078e                	slli	a5,a5,0x3
2001c3ba:	97b6                	add	a5,a5,a3
2001c3bc:	0a07a023          	sw	zero,160(a5)
2001c3c0:	fec42783          	lw	a5,-20(s0)
2001c3c4:	0785                	addi	a5,a5,1
2001c3c6:	fef42623          	sw	a5,-20(s0)
2001c3ca:	fec42703          	lw	a4,-20(s0)
2001c3ce:	47fd                	li	a5,31
2001c3d0:	fae7d7e3          	bge	a5,a4,2001c37e <__metal_driver_riscv_cpu_controller_interrupt_init+0x22>
2001c3d4:	fe042423          	sw	zero,-24(s0)
2001c3d8:	a01d                	j	2001c3fe <__metal_driver_riscv_cpu_controller_interrupt_init+0xa2>
2001c3da:	fe442703          	lw	a4,-28(s0)
2001c3de:	fe842783          	lw	a5,-24(s0)
2001c3e2:	0e478793          	addi	a5,a5,228
2001c3e6:	078a                	slli	a5,a5,0x2
2001c3e8:	97ba                	add	a5,a5,a4
2001c3ea:	2001c737          	lui	a4,0x2001c
2001c3ee:	ece70713          	addi	a4,a4,-306 # 2001bece <__metal_default_exception_handler>
2001c3f2:	c398                	sw	a4,0(a5)
2001c3f4:	fe842783          	lw	a5,-24(s0)
2001c3f8:	0785                	addi	a5,a5,1
2001c3fa:	fef42423          	sw	a5,-24(s0)
2001c3fe:	fe842703          	lw	a4,-24(s0)
2001c402:	47ad                	li	a5,11
2001c404:	fce7dbe3          	bge	a5,a4,2001c3da <__metal_driver_riscv_cpu_controller_interrupt_init+0x7e>
2001c408:	2001c7b7          	lui	a5,0x2001c
2001c40c:	00078593          	mv	a1,a5
2001c410:	4501                	li	a0,0
2001c412:	d69ff0ef          	jal	ra,2001c17a <__metal_controller_interrupt_vector>
2001c416:	301027f3          	csrr	a5,misa
2001c41a:	fef42023          	sw	a5,-32(s0)
2001c41e:	fe042703          	lw	a4,-32(s0)
2001c422:	67c1                	lui	a5,0x10
2001c424:	02878793          	addi	a5,a5,40 # 10028 <__heap_size+0xfc28>
2001c428:	8ff9                	and	a5,a5,a4
2001c42a:	cb99                	beqz	a5,2001c440 <__metal_driver_riscv_cpu_controller_interrupt_init+0xe4>
2001c42c:	300027f3          	csrr	a5,mstatus
2001c430:	fef42023          	sw	a5,-32(s0)
2001c434:	fe042703          	lw	a4,-32(s0)
2001c438:	6789                	lui	a5,0x2
2001c43a:	8fd9                	or	a5,a5,a4
2001c43c:	30079073          	csrw	mstatus,a5
2001c440:	fe442783          	lw	a5,-28(s0)
2001c444:	4705                	li	a4,1
2001c446:	c798                	sw	a4,8(a5)
2001c448:	0001                	nop
2001c44a:	50b2                	lw	ra,44(sp)
2001c44c:	5422                	lw	s0,40(sp)
2001c44e:	6145                	addi	sp,sp,48
2001c450:	8082                	ret

2001c452 <__metal_driver_riscv_cpu_controller_interrupt_register>:
2001c452:	7179                	addi	sp,sp,-48
2001c454:	d606                	sw	ra,44(sp)
2001c456:	d422                	sw	s0,40(sp)
2001c458:	1800                	addi	s0,sp,48
2001c45a:	fca42e23          	sw	a0,-36(s0)
2001c45e:	fcb42c23          	sw	a1,-40(s0)
2001c462:	fcc42a23          	sw	a2,-44(s0)
2001c466:	fcd42823          	sw	a3,-48(s0)
2001c46a:	fe042623          	sw	zero,-20(s0)
2001c46e:	fdc42783          	lw	a5,-36(s0)
2001c472:	fef42423          	sw	a5,-24(s0)
2001c476:	fd842503          	lw	a0,-40(s0)
2001c47a:	da7ff0ef          	jal	ra,2001c220 <__metal_valid_interrupt_id>
2001c47e:	87aa                	mv	a5,a0
2001c480:	e399                	bnez	a5,2001c486 <__metal_driver_riscv_cpu_controller_interrupt_register+0x34>
2001c482:	57d5                	li	a5,-11
2001c484:	a239                	j	2001c592 <__metal_driver_riscv_cpu_controller_interrupt_register+0x140>
2001c486:	fd442783          	lw	a5,-44(s0)
2001c48a:	cf85                	beqz	a5,2001c4c2 <__metal_driver_riscv_cpu_controller_interrupt_register+0x70>
2001c48c:	fe842683          	lw	a3,-24(s0)
2001c490:	fd842703          	lw	a4,-40(s0)
2001c494:	87ba                	mv	a5,a4
2001c496:	0786                	slli	a5,a5,0x1
2001c498:	97ba                	add	a5,a5,a4
2001c49a:	078e                	slli	a5,a5,0x3
2001c49c:	97b6                	add	a5,a5,a3
2001c49e:	fd442703          	lw	a4,-44(s0)
2001c4a2:	08e7ac23          	sw	a4,152(a5) # 2098 <__heap_size+0x1c98>
2001c4a6:	fe842683          	lw	a3,-24(s0)
2001c4aa:	fd842703          	lw	a4,-40(s0)
2001c4ae:	87ba                	mv	a5,a4
2001c4b0:	0786                	slli	a5,a5,0x1
2001c4b2:	97ba                	add	a5,a5,a4
2001c4b4:	078e                	slli	a5,a5,0x3
2001c4b6:	97b6                	add	a5,a5,a3
2001c4b8:	fd042703          	lw	a4,-48(s0)
2001c4bc:	0ae7a023          	sw	a4,160(a5)
2001c4c0:	a0f9                	j	2001c58e <__metal_driver_riscv_cpu_controller_interrupt_register+0x13c>
2001c4c2:	fd842783          	lw	a5,-40(s0)
2001c4c6:	17f5                	addi	a5,a5,-3
2001c4c8:	4771                	li	a4,28
2001c4ca:	0cf76263          	bltu	a4,a5,2001c58e <__metal_driver_riscv_cpu_controller_interrupt_register+0x13c>
2001c4ce:	00279713          	slli	a4,a5,0x2
2001c4d2:	2001f7b7          	lui	a5,0x2001f
2001c4d6:	ad478793          	addi	a5,a5,-1324 # 2001ead4 <__metal_driver_vtable_sifive_fe310_g000_pll+0x118>
2001c4da:	97ba                	add	a5,a5,a4
2001c4dc:	439c                	lw	a5,0(a5)
2001c4de:	8782                	jr	a5
2001c4e0:	fe842683          	lw	a3,-24(s0)
2001c4e4:	fd842703          	lw	a4,-40(s0)
2001c4e8:	87ba                	mv	a5,a4
2001c4ea:	0786                	slli	a5,a5,0x1
2001c4ec:	97ba                	add	a5,a5,a4
2001c4ee:	078e                	slli	a5,a5,0x3
2001c4f0:	97b6                	add	a5,a5,a3
2001c4f2:	2001c737          	lui	a4,0x2001c
2001c4f6:	efe70713          	addi	a4,a4,-258 # 2001befe <__metal_default_sw_handler>
2001c4fa:	08e7ac23          	sw	a4,152(a5)
2001c4fe:	fe842683          	lw	a3,-24(s0)
2001c502:	fd842703          	lw	a4,-40(s0)
2001c506:	87ba                	mv	a5,a4
2001c508:	0786                	slli	a5,a5,0x1
2001c50a:	97ba                	add	a5,a5,a4
2001c50c:	078e                	slli	a5,a5,0x3
2001c50e:	97b6                	add	a5,a5,a3
2001c510:	fd042703          	lw	a4,-48(s0)
2001c514:	08e7ae23          	sw	a4,156(a5)
2001c518:	a89d                	j	2001c58e <__metal_driver_riscv_cpu_controller_interrupt_register+0x13c>
2001c51a:	fe842683          	lw	a3,-24(s0)
2001c51e:	fd842703          	lw	a4,-40(s0)
2001c522:	87ba                	mv	a5,a4
2001c524:	0786                	slli	a5,a5,0x1
2001c526:	97ba                	add	a5,a5,a4
2001c528:	078e                	slli	a5,a5,0x3
2001c52a:	97b6                	add	a5,a5,a3
2001c52c:	2001c737          	lui	a4,0x2001c
2001c530:	f6470713          	addi	a4,a4,-156 # 2001bf64 <__metal_default_timer_handler>
2001c534:	08e7ac23          	sw	a4,152(a5)
2001c538:	fe842683          	lw	a3,-24(s0)
2001c53c:	fd842703          	lw	a4,-40(s0)
2001c540:	87ba                	mv	a5,a4
2001c542:	0786                	slli	a5,a5,0x1
2001c544:	97ba                	add	a5,a5,a4
2001c546:	078e                	slli	a5,a5,0x3
2001c548:	97b6                	add	a5,a5,a3
2001c54a:	fd042703          	lw	a4,-48(s0)
2001c54e:	08e7ae23          	sw	a4,156(a5)
2001c552:	a835                	j	2001c58e <__metal_driver_riscv_cpu_controller_interrupt_register+0x13c>
2001c554:	fe842683          	lw	a3,-24(s0)
2001c558:	fd842703          	lw	a4,-40(s0)
2001c55c:	87ba                	mv	a5,a4
2001c55e:	0786                	slli	a5,a5,0x1
2001c560:	97ba                	add	a5,a5,a4
2001c562:	078e                	slli	a5,a5,0x3
2001c564:	97b6                	add	a5,a5,a3
2001c566:	2001c737          	lui	a4,0x2001c
2001c56a:	ee670713          	addi	a4,a4,-282 # 2001bee6 <__metal_default_interrupt_handler>
2001c56e:	08e7ac23          	sw	a4,152(a5)
2001c572:	fe842683          	lw	a3,-24(s0)
2001c576:	fd842703          	lw	a4,-40(s0)
2001c57a:	87ba                	mv	a5,a4
2001c57c:	0786                	slli	a5,a5,0x1
2001c57e:	97ba                	add	a5,a5,a4
2001c580:	078e                	slli	a5,a5,0x3
2001c582:	97b6                	add	a5,a5,a3
2001c584:	fd042703          	lw	a4,-48(s0)
2001c588:	08e7ae23          	sw	a4,156(a5)
2001c58c:	0001                	nop
2001c58e:	fec42783          	lw	a5,-20(s0)
2001c592:	853e                	mv	a0,a5
2001c594:	50b2                	lw	ra,44(sp)
2001c596:	5422                	lw	s0,40(sp)
2001c598:	6145                	addi	sp,sp,48
2001c59a:	8082                	ret

2001c59c <__metal_driver_riscv_cpu_controller_interrupt_enable>:
2001c59c:	1101                	addi	sp,sp,-32
2001c59e:	ce06                	sw	ra,28(sp)
2001c5a0:	cc22                	sw	s0,24(sp)
2001c5a2:	1000                	addi	s0,sp,32
2001c5a4:	fea42623          	sw	a0,-20(s0)
2001c5a8:	feb42423          	sw	a1,-24(s0)
2001c5ac:	fe842783          	lw	a5,-24(s0)
2001c5b0:	4605                	li	a2,1
2001c5b2:	85be                	mv	a1,a5
2001c5b4:	fec42503          	lw	a0,-20(s0)
2001c5b8:	ca1ff0ef          	jal	ra,2001c258 <__metal_local_interrupt_enable>
2001c5bc:	87aa                	mv	a5,a0
2001c5be:	853e                	mv	a0,a5
2001c5c0:	40f2                	lw	ra,28(sp)
2001c5c2:	4462                	lw	s0,24(sp)
2001c5c4:	6105                	addi	sp,sp,32
2001c5c6:	8082                	ret

2001c5c8 <__metal_driver_riscv_cpu_controller_interrupt_disable>:
2001c5c8:	1101                	addi	sp,sp,-32
2001c5ca:	ce06                	sw	ra,28(sp)
2001c5cc:	cc22                	sw	s0,24(sp)
2001c5ce:	1000                	addi	s0,sp,32
2001c5d0:	fea42623          	sw	a0,-20(s0)
2001c5d4:	feb42423          	sw	a1,-24(s0)
2001c5d8:	fe842783          	lw	a5,-24(s0)
2001c5dc:	4601                	li	a2,0
2001c5de:	85be                	mv	a1,a5
2001c5e0:	fec42503          	lw	a0,-20(s0)
2001c5e4:	c75ff0ef          	jal	ra,2001c258 <__metal_local_interrupt_enable>
2001c5e8:	87aa                	mv	a5,a0
2001c5ea:	853e                	mv	a0,a5
2001c5ec:	40f2                	lw	ra,28(sp)
2001c5ee:	4462                	lw	s0,24(sp)
2001c5f0:	6105                	addi	sp,sp,32
2001c5f2:	8082                	ret

2001c5f4 <__metal_driver_riscv_cpu_controller_interrupt_enable_vector>:
2001c5f4:	7179                	addi	sp,sp,-48
2001c5f6:	d606                	sw	ra,44(sp)
2001c5f8:	d422                	sw	s0,40(sp)
2001c5fa:	1800                	addi	s0,sp,48
2001c5fc:	fca42e23          	sw	a0,-36(s0)
2001c600:	fcb42c23          	sw	a1,-40(s0)
2001c604:	fcc42a23          	sw	a2,-44(s0)
2001c608:	fdc42783          	lw	a5,-36(s0)
2001c60c:	fef42623          	sw	a5,-20(s0)
2001c610:	fd842783          	lw	a5,-40(s0)
2001c614:	ef8d                	bnez	a5,2001c64e <__metal_driver_riscv_cpu_controller_interrupt_enable_vector+0x5a>
2001c616:	fd442783          	lw	a5,-44(s0)
2001c61a:	eb99                	bnez	a5,2001c630 <__metal_driver_riscv_cpu_controller_interrupt_enable_vector+0x3c>
2001c61c:	2001c7b7          	lui	a5,0x2001c
2001c620:	00078593          	mv	a1,a5
2001c624:	fd442503          	lw	a0,-44(s0)
2001c628:	b53ff0ef          	jal	ra,2001c17a <__metal_controller_interrupt_vector>
2001c62c:	4781                	li	a5,0
2001c62e:	a00d                	j	2001c650 <__metal_driver_riscv_cpu_controller_interrupt_enable_vector+0x5c>
2001c630:	fd442703          	lw	a4,-44(s0)
2001c634:	4785                	li	a5,1
2001c636:	00f71c63          	bne	a4,a5,2001c64e <__metal_driver_riscv_cpu_controller_interrupt_enable_vector+0x5a>
2001c63a:	fec42783          	lw	a5,-20(s0)
2001c63e:	07c1                	addi	a5,a5,16
2001c640:	85be                	mv	a1,a5
2001c642:	fd442503          	lw	a0,-44(s0)
2001c646:	b35ff0ef          	jal	ra,2001c17a <__metal_controller_interrupt_vector>
2001c64a:	4781                	li	a5,0
2001c64c:	a011                	j	2001c650 <__metal_driver_riscv_cpu_controller_interrupt_enable_vector+0x5c>
2001c64e:	57fd                	li	a5,-1
2001c650:	853e                	mv	a0,a5
2001c652:	50b2                	lw	ra,44(sp)
2001c654:	5422                	lw	s0,40(sp)
2001c656:	6145                	addi	sp,sp,48
2001c658:	8082                	ret

2001c65a <__metal_driver_riscv_cpu_controller_interrupt_disable_vector>:
2001c65a:	7179                	addi	sp,sp,-48
2001c65c:	d606                	sw	ra,44(sp)
2001c65e:	d422                	sw	s0,40(sp)
2001c660:	1800                	addi	s0,sp,48
2001c662:	fca42e23          	sw	a0,-36(s0)
2001c666:	fcb42c23          	sw	a1,-40(s0)
2001c66a:	fdc42783          	lw	a5,-36(s0)
2001c66e:	fef42623          	sw	a5,-20(s0)
2001c672:	fd842783          	lw	a5,-40(s0)
2001c676:	eb91                	bnez	a5,2001c68a <__metal_driver_riscv_cpu_controller_interrupt_disable_vector+0x30>
2001c678:	2001c7b7          	lui	a5,0x2001c
2001c67c:	00078593          	mv	a1,a5
2001c680:	4501                	li	a0,0
2001c682:	af9ff0ef          	jal	ra,2001c17a <__metal_controller_interrupt_vector>
2001c686:	4781                	li	a5,0
2001c688:	a011                	j	2001c68c <__metal_driver_riscv_cpu_controller_interrupt_disable_vector+0x32>
2001c68a:	57fd                	li	a5,-1
2001c68c:	853e                	mv	a0,a5
2001c68e:	50b2                	lw	ra,44(sp)
2001c690:	5422                	lw	s0,40(sp)
2001c692:	6145                	addi	sp,sp,48
2001c694:	8082                	ret

2001c696 <__metal_driver_riscv_cpu_controller_command_request>:
2001c696:	1101                	addi	sp,sp,-32
2001c698:	ce22                	sw	s0,28(sp)
2001c69a:	1000                	addi	s0,sp,32
2001c69c:	fea42623          	sw	a0,-20(s0)
2001c6a0:	feb42423          	sw	a1,-24(s0)
2001c6a4:	fec42223          	sw	a2,-28(s0)
2001c6a8:	4781                	li	a5,0
2001c6aa:	853e                	mv	a0,a5
2001c6ac:	4472                	lw	s0,28(sp)
2001c6ae:	6105                	addi	sp,sp,32
2001c6b0:	8082                	ret

2001c6b2 <__metal_driver_cpu_timer_get>:
2001c6b2:	7139                	addi	sp,sp,-64
2001c6b4:	de22                	sw	s0,60(sp)
2001c6b6:	0080                	addi	s0,sp,64
2001c6b8:	fca42623          	sw	a0,-52(s0)
2001c6bc:	4301                	li	t1,0
2001c6be:	4381                	li	t2,0
2001c6c0:	fe642423          	sw	t1,-24(s0)
2001c6c4:	fe742623          	sw	t2,-20(s0)
2001c6c8:	b8002573          	csrr	a0,mcycleh
2001c6cc:	fea42223          	sw	a0,-28(s0)
2001c6d0:	b0002573          	csrr	a0,mcycle
2001c6d4:	fea42023          	sw	a0,-32(s0)
2001c6d8:	b8002573          	csrr	a0,mcycleh
2001c6dc:	fca42e23          	sw	a0,-36(s0)
2001c6e0:	fe442883          	lw	a7,-28(s0)
2001c6e4:	fdc42503          	lw	a0,-36(s0)
2001c6e8:	02a89563          	bne	a7,a0,2001c712 <__metal_driver_cpu_timer_get+0x60>
2001c6ec:	fe442503          	lw	a0,-28(s0)
2001c6f0:	85aa                	mv	a1,a0
2001c6f2:	4601                	li	a2,0
2001c6f4:	00059813          	slli	a6,a1,0x0
2001c6f8:	4781                	li	a5,0
2001c6fa:	fe042603          	lw	a2,-32(s0)
2001c6fe:	86b2                	mv	a3,a2
2001c700:	4701                	li	a4,0
2001c702:	00d7e633          	or	a2,a5,a3
2001c706:	fec42423          	sw	a2,-24(s0)
2001c70a:	00e867b3          	or	a5,a6,a4
2001c70e:	fef42623          	sw	a5,-20(s0)
2001c712:	fe842783          	lw	a5,-24(s0)
2001c716:	fec42803          	lw	a6,-20(s0)
2001c71a:	853e                	mv	a0,a5
2001c71c:	85c2                	mv	a1,a6
2001c71e:	5472                	lw	s0,60(sp)
2001c720:	6121                	addi	sp,sp,64
2001c722:	8082                	ret

2001c724 <__metal_driver_cpu_timebase_get>:
2001c724:	7179                	addi	sp,sp,-48
2001c726:	d622                	sw	s0,44(sp)
2001c728:	1800                	addi	s0,sp,48
2001c72a:	fca42e23          	sw	a0,-36(s0)
2001c72e:	fdc42703          	lw	a4,-36(s0)
2001c732:	fee42623          	sw	a4,-20(s0)
2001c736:	fec42703          	lw	a4,-20(s0)
2001c73a:	e701                	bnez	a4,2001c742 <__metal_driver_cpu_timebase_get+0x1e>
2001c73c:	4781                	li	a5,0
2001c73e:	4801                	li	a6,0
2001c740:	a039                	j	2001c74e <__metal_driver_cpu_timebase_get+0x2a>
2001c742:	fec42703          	lw	a4,-20(s0)
2001c746:	4718                	lw	a4,8(a4)
2001c748:	87ba                	mv	a5,a4
2001c74a:	877d                	srai	a4,a4,0x1f
2001c74c:	883a                	mv	a6,a4
2001c74e:	853e                	mv	a0,a5
2001c750:	85c2                	mv	a1,a6
2001c752:	5432                	lw	s0,44(sp)
2001c754:	6145                	addi	sp,sp,48
2001c756:	8082                	ret

2001c758 <__metal_driver_cpu_mtime_get>:
2001c758:	7139                	addi	sp,sp,-64
2001c75a:	de06                	sw	ra,60(sp)
2001c75c:	dc22                	sw	s0,56(sp)
2001c75e:	0080                	addi	s0,sp,64
2001c760:	fca42623          	sw	a0,-52(s0)
2001c764:	4781                	li	a5,0
2001c766:	4801                	li	a6,0
2001c768:	fcf42c23          	sw	a5,-40(s0)
2001c76c:	fd042e23          	sw	a6,-36(s0)
2001c770:	fcc42783          	lw	a5,-52(s0)
2001c774:	fef42623          	sw	a5,-20(s0)
2001c778:	fec42783          	lw	a5,-20(s0)
2001c77c:	47dc                	lw	a5,12(a5)
2001c77e:	cb95                	beqz	a5,2001c7b2 <__metal_driver_cpu_mtime_get+0x5a>
2001c780:	fec42783          	lw	a5,-20(s0)
2001c784:	47dc                	lw	a5,12(a5)
2001c786:	fef42423          	sw	a5,-24(s0)
2001c78a:	fe842783          	lw	a5,-24(s0)
2001c78e:	1447a783          	lw	a5,324(a5) # 2001c144 <__metal_exception_handler+0x144>
2001c792:	fef42223          	sw	a5,-28(s0)
2001c796:	fe442783          	lw	a5,-28(s0)
2001c79a:	cf81                	beqz	a5,2001c7b2 <__metal_driver_cpu_mtime_get+0x5a>
2001c79c:	fe442783          	lw	a5,-28(s0)
2001c7a0:	439c                	lw	a5,0(a5)
2001c7a2:	4f98                	lw	a4,24(a5)
2001c7a4:	fd840793          	addi	a5,s0,-40
2001c7a8:	863e                	mv	a2,a5
2001c7aa:	4585                	li	a1,1
2001c7ac:	fe442503          	lw	a0,-28(s0)
2001c7b0:	9702                	jalr	a4
2001c7b2:	fd842783          	lw	a5,-40(s0)
2001c7b6:	fdc42803          	lw	a6,-36(s0)
2001c7ba:	853e                	mv	a0,a5
2001c7bc:	85c2                	mv	a1,a6
2001c7be:	50f2                	lw	ra,60(sp)
2001c7c0:	5462                	lw	s0,56(sp)
2001c7c2:	6121                	addi	sp,sp,64
2001c7c4:	8082                	ret

2001c7c6 <__metal_driver_cpu_mtimecmp_set>:
2001c7c6:	7179                	addi	sp,sp,-48
2001c7c8:	d606                	sw	ra,44(sp)
2001c7ca:	d422                	sw	s0,40(sp)
2001c7cc:	1800                	addi	s0,sp,48
2001c7ce:	fca42e23          	sw	a0,-36(s0)
2001c7d2:	fcb42823          	sw	a1,-48(s0)
2001c7d6:	fcc42a23          	sw	a2,-44(s0)
2001c7da:	57fd                	li	a5,-1
2001c7dc:	fef42623          	sw	a5,-20(s0)
2001c7e0:	fdc42783          	lw	a5,-36(s0)
2001c7e4:	fef42423          	sw	a5,-24(s0)
2001c7e8:	fe842783          	lw	a5,-24(s0)
2001c7ec:	47dc                	lw	a5,12(a5)
2001c7ee:	cf85                	beqz	a5,2001c826 <__metal_driver_cpu_mtimecmp_set+0x60>
2001c7f0:	fe842783          	lw	a5,-24(s0)
2001c7f4:	47dc                	lw	a5,12(a5)
2001c7f6:	fef42223          	sw	a5,-28(s0)
2001c7fa:	fe442783          	lw	a5,-28(s0)
2001c7fe:	1447a783          	lw	a5,324(a5)
2001c802:	fef42023          	sw	a5,-32(s0)
2001c806:	fe042783          	lw	a5,-32(s0)
2001c80a:	cf91                	beqz	a5,2001c826 <__metal_driver_cpu_mtimecmp_set+0x60>
2001c80c:	fe042783          	lw	a5,-32(s0)
2001c810:	439c                	lw	a5,0(a5)
2001c812:	4f98                	lw	a4,24(a5)
2001c814:	fd040793          	addi	a5,s0,-48
2001c818:	863e                	mv	a2,a5
2001c81a:	4589                	li	a1,2
2001c81c:	fe042503          	lw	a0,-32(s0)
2001c820:	9702                	jalr	a4
2001c822:	fea42623          	sw	a0,-20(s0)
2001c826:	fec42783          	lw	a5,-20(s0)
2001c82a:	853e                	mv	a0,a5
2001c82c:	50b2                	lw	ra,44(sp)
2001c82e:	5422                	lw	s0,40(sp)
2001c830:	6145                	addi	sp,sp,48
2001c832:	8082                	ret

2001c834 <__metal_driver_cpu_timer_controller_interrupt>:
2001c834:	1101                	addi	sp,sp,-32
2001c836:	ce22                	sw	s0,28(sp)
2001c838:	1000                	addi	s0,sp,32
2001c83a:	fea42623          	sw	a0,-20(s0)
2001c83e:	800017b7          	lui	a5,0x80001
2001c842:	9d478793          	addi	a5,a5,-1580 # 800009d4 <metal_segment_heap_target_end+0xffffc9d4>
2001c846:	853e                	mv	a0,a5
2001c848:	4472                	lw	s0,28(sp)
2001c84a:	6105                	addi	sp,sp,32
2001c84c:	8082                	ret

2001c84e <__metal_driver_cpu_get_timer_interrupt_id>:
2001c84e:	1101                	addi	sp,sp,-32
2001c850:	ce22                	sw	s0,28(sp)
2001c852:	1000                	addi	s0,sp,32
2001c854:	fea42623          	sw	a0,-20(s0)
2001c858:	479d                	li	a5,7
2001c85a:	853e                	mv	a0,a5
2001c85c:	4472                	lw	s0,28(sp)
2001c85e:	6105                	addi	sp,sp,32
2001c860:	8082                	ret

2001c862 <__metal_driver_cpu_sw_controller_interrupt>:
2001c862:	1101                	addi	sp,sp,-32
2001c864:	ce22                	sw	s0,28(sp)
2001c866:	1000                	addi	s0,sp,32
2001c868:	fea42623          	sw	a0,-20(s0)
2001c86c:	800017b7          	lui	a5,0x80001
2001c870:	9d478793          	addi	a5,a5,-1580 # 800009d4 <metal_segment_heap_target_end+0xffffc9d4>
2001c874:	853e                	mv	a0,a5
2001c876:	4472                	lw	s0,28(sp)
2001c878:	6105                	addi	sp,sp,32
2001c87a:	8082                	ret

2001c87c <__metal_driver_cpu_get_sw_interrupt_id>:
2001c87c:	1101                	addi	sp,sp,-32
2001c87e:	ce22                	sw	s0,28(sp)
2001c880:	1000                	addi	s0,sp,32
2001c882:	fea42623          	sw	a0,-20(s0)
2001c886:	478d                	li	a5,3
2001c888:	853e                	mv	a0,a5
2001c88a:	4472                	lw	s0,28(sp)
2001c88c:	6105                	addi	sp,sp,32
2001c88e:	8082                	ret

2001c890 <__metal_driver_cpu_set_sw_ipi>:
2001c890:	7179                	addi	sp,sp,-48
2001c892:	d606                	sw	ra,44(sp)
2001c894:	d422                	sw	s0,40(sp)
2001c896:	1800                	addi	s0,sp,48
2001c898:	fca42e23          	sw	a0,-36(s0)
2001c89c:	fcb42c23          	sw	a1,-40(s0)
2001c8a0:	57fd                	li	a5,-1
2001c8a2:	fef42623          	sw	a5,-20(s0)
2001c8a6:	fdc42783          	lw	a5,-36(s0)
2001c8aa:	fef42423          	sw	a5,-24(s0)
2001c8ae:	fe842783          	lw	a5,-24(s0)
2001c8b2:	47dc                	lw	a5,12(a5)
2001c8b4:	cf85                	beqz	a5,2001c8ec <__metal_driver_cpu_set_sw_ipi+0x5c>
2001c8b6:	fe842783          	lw	a5,-24(s0)
2001c8ba:	47dc                	lw	a5,12(a5)
2001c8bc:	fef42223          	sw	a5,-28(s0)
2001c8c0:	fe442783          	lw	a5,-28(s0)
2001c8c4:	0e47a783          	lw	a5,228(a5)
2001c8c8:	fef42023          	sw	a5,-32(s0)
2001c8cc:	fe042783          	lw	a5,-32(s0)
2001c8d0:	cf91                	beqz	a5,2001c8ec <__metal_driver_cpu_set_sw_ipi+0x5c>
2001c8d2:	fe042783          	lw	a5,-32(s0)
2001c8d6:	439c                	lw	a5,0(a5)
2001c8d8:	4f98                	lw	a4,24(a5)
2001c8da:	fd840793          	addi	a5,s0,-40
2001c8de:	863e                	mv	a2,a5
2001c8e0:	4591                	li	a1,4
2001c8e2:	fe042503          	lw	a0,-32(s0)
2001c8e6:	9702                	jalr	a4
2001c8e8:	fea42623          	sw	a0,-20(s0)
2001c8ec:	fec42783          	lw	a5,-20(s0)
2001c8f0:	853e                	mv	a0,a5
2001c8f2:	50b2                	lw	ra,44(sp)
2001c8f4:	5422                	lw	s0,40(sp)
2001c8f6:	6145                	addi	sp,sp,48
2001c8f8:	8082                	ret

2001c8fa <__metal_driver_cpu_clear_sw_ipi>:
2001c8fa:	7179                	addi	sp,sp,-48
2001c8fc:	d606                	sw	ra,44(sp)
2001c8fe:	d422                	sw	s0,40(sp)
2001c900:	1800                	addi	s0,sp,48
2001c902:	fca42e23          	sw	a0,-36(s0)
2001c906:	fcb42c23          	sw	a1,-40(s0)
2001c90a:	57fd                	li	a5,-1
2001c90c:	fef42623          	sw	a5,-20(s0)
2001c910:	fdc42783          	lw	a5,-36(s0)
2001c914:	fef42423          	sw	a5,-24(s0)
2001c918:	fe842783          	lw	a5,-24(s0)
2001c91c:	47dc                	lw	a5,12(a5)
2001c91e:	cf85                	beqz	a5,2001c956 <__metal_driver_cpu_clear_sw_ipi+0x5c>
2001c920:	fe842783          	lw	a5,-24(s0)
2001c924:	47dc                	lw	a5,12(a5)
2001c926:	fef42223          	sw	a5,-28(s0)
2001c92a:	fe442783          	lw	a5,-28(s0)
2001c92e:	0e47a783          	lw	a5,228(a5)
2001c932:	fef42023          	sw	a5,-32(s0)
2001c936:	fe042783          	lw	a5,-32(s0)
2001c93a:	cf91                	beqz	a5,2001c956 <__metal_driver_cpu_clear_sw_ipi+0x5c>
2001c93c:	fe042783          	lw	a5,-32(s0)
2001c940:	439c                	lw	a5,0(a5)
2001c942:	4f98                	lw	a4,24(a5)
2001c944:	fd840793          	addi	a5,s0,-40
2001c948:	863e                	mv	a2,a5
2001c94a:	458d                	li	a1,3
2001c94c:	fe042503          	lw	a0,-32(s0)
2001c950:	9702                	jalr	a4
2001c952:	fea42623          	sw	a0,-20(s0)
2001c956:	fec42783          	lw	a5,-20(s0)
2001c95a:	853e                	mv	a0,a5
2001c95c:	50b2                	lw	ra,44(sp)
2001c95e:	5422                	lw	s0,40(sp)
2001c960:	6145                	addi	sp,sp,48
2001c962:	8082                	ret

2001c964 <__metal_driver_cpu_get_msip>:
2001c964:	7179                	addi	sp,sp,-48
2001c966:	d606                	sw	ra,44(sp)
2001c968:	d422                	sw	s0,40(sp)
2001c96a:	1800                	addi	s0,sp,48
2001c96c:	fca42e23          	sw	a0,-36(s0)
2001c970:	fcb42c23          	sw	a1,-40(s0)
2001c974:	fe042623          	sw	zero,-20(s0)
2001c978:	fdc42783          	lw	a5,-36(s0)
2001c97c:	fef42423          	sw	a5,-24(s0)
2001c980:	fe842783          	lw	a5,-24(s0)
2001c984:	47dc                	lw	a5,12(a5)
2001c986:	cf85                	beqz	a5,2001c9be <__metal_driver_cpu_get_msip+0x5a>
2001c988:	fe842783          	lw	a5,-24(s0)
2001c98c:	47dc                	lw	a5,12(a5)
2001c98e:	fef42223          	sw	a5,-28(s0)
2001c992:	fe442783          	lw	a5,-28(s0)
2001c996:	0e47a783          	lw	a5,228(a5)
2001c99a:	fef42023          	sw	a5,-32(s0)
2001c99e:	fe042783          	lw	a5,-32(s0)
2001c9a2:	cf91                	beqz	a5,2001c9be <__metal_driver_cpu_get_msip+0x5a>
2001c9a4:	fe042783          	lw	a5,-32(s0)
2001c9a8:	439c                	lw	a5,0(a5)
2001c9aa:	4f98                	lw	a4,24(a5)
2001c9ac:	fd840793          	addi	a5,s0,-40
2001c9b0:	863e                	mv	a2,a5
2001c9b2:	4595                	li	a1,5
2001c9b4:	fe042503          	lw	a0,-32(s0)
2001c9b8:	9702                	jalr	a4
2001c9ba:	fea42623          	sw	a0,-20(s0)
2001c9be:	fec42783          	lw	a5,-20(s0)
2001c9c2:	853e                	mv	a0,a5
2001c9c4:	50b2                	lw	ra,44(sp)
2001c9c6:	5422                	lw	s0,40(sp)
2001c9c8:	6145                	addi	sp,sp,48
2001c9ca:	8082                	ret

2001c9cc <__metal_driver_cpu_controller_interrupt>:
2001c9cc:	7179                	addi	sp,sp,-48
2001c9ce:	d622                	sw	s0,44(sp)
2001c9d0:	1800                	addi	s0,sp,48
2001c9d2:	fca42e23          	sw	a0,-36(s0)
2001c9d6:	fdc42783          	lw	a5,-36(s0)
2001c9da:	fef42623          	sw	a5,-20(s0)
2001c9de:	fec42783          	lw	a5,-20(s0)
2001c9e2:	47dc                	lw	a5,12(a5)
2001c9e4:	853e                	mv	a0,a5
2001c9e6:	5432                	lw	s0,44(sp)
2001c9e8:	6145                	addi	sp,sp,48
2001c9ea:	8082                	ret

2001c9ec <__metal_driver_cpu_exception_register>:
2001c9ec:	7179                	addi	sp,sp,-48
2001c9ee:	d606                	sw	ra,44(sp)
2001c9f0:	d422                	sw	s0,40(sp)
2001c9f2:	1800                	addi	s0,sp,48
2001c9f4:	fca42e23          	sw	a0,-36(s0)
2001c9f8:	fcb42c23          	sw	a1,-40(s0)
2001c9fc:	fcc42a23          	sw	a2,-44(s0)
2001ca00:	fdc42783          	lw	a5,-36(s0)
2001ca04:	fef42623          	sw	a5,-20(s0)
2001ca08:	fec42783          	lw	a5,-20(s0)
2001ca0c:	47dc                	lw	a5,12(a5)
2001ca0e:	cf89                	beqz	a5,2001ca28 <__metal_driver_cpu_exception_register+0x3c>
2001ca10:	fec42783          	lw	a5,-20(s0)
2001ca14:	47dc                	lw	a5,12(a5)
2001ca16:	fd442603          	lw	a2,-44(s0)
2001ca1a:	fd842583          	lw	a1,-40(s0)
2001ca1e:	853e                	mv	a0,a5
2001ca20:	8efff0ef          	jal	ra,2001c30e <__metal_exception_register>
2001ca24:	87aa                	mv	a5,a0
2001ca26:	a011                	j	2001ca2a <__metal_driver_cpu_exception_register+0x3e>
2001ca28:	57fd                	li	a5,-1
2001ca2a:	853e                	mv	a0,a5
2001ca2c:	50b2                	lw	ra,44(sp)
2001ca2e:	5422                	lw	s0,40(sp)
2001ca30:	6145                	addi	sp,sp,48
2001ca32:	8082                	ret

2001ca34 <__metal_driver_cpu_get_instruction_length>:
2001ca34:	1101                	addi	sp,sp,-32
2001ca36:	ce22                	sw	s0,28(sp)
2001ca38:	1000                	addi	s0,sp,32
2001ca3a:	fea42623          	sw	a0,-20(s0)
2001ca3e:	feb42423          	sw	a1,-24(s0)
2001ca42:	fe842783          	lw	a5,-24(s0)
2001ca46:	0007d783          	lhu	a5,0(a5)
2001ca4a:	8b8d                	andi	a5,a5,3
2001ca4c:	c399                	beqz	a5,2001ca52 <__metal_driver_cpu_get_instruction_length+0x1e>
2001ca4e:	4791                	li	a5,4
2001ca50:	a011                	j	2001ca54 <__metal_driver_cpu_get_instruction_length+0x20>
2001ca52:	4789                	li	a5,2
2001ca54:	853e                	mv	a0,a5
2001ca56:	4472                	lw	s0,28(sp)
2001ca58:	6105                	addi	sp,sp,32
2001ca5a:	8082                	ret

2001ca5c <__metal_driver_cpu_get_exception_pc>:
2001ca5c:	7179                	addi	sp,sp,-48
2001ca5e:	d622                	sw	s0,44(sp)
2001ca60:	1800                	addi	s0,sp,48
2001ca62:	fca42e23          	sw	a0,-36(s0)
2001ca66:	341027f3          	csrr	a5,mepc
2001ca6a:	fef42623          	sw	a5,-20(s0)
2001ca6e:	fec42783          	lw	a5,-20(s0)
2001ca72:	853e                	mv	a0,a5
2001ca74:	5432                	lw	s0,44(sp)
2001ca76:	6145                	addi	sp,sp,48
2001ca78:	8082                	ret

2001ca7a <__metal_driver_cpu_set_exception_pc>:
2001ca7a:	1101                	addi	sp,sp,-32
2001ca7c:	ce22                	sw	s0,28(sp)
2001ca7e:	1000                	addi	s0,sp,32
2001ca80:	fea42623          	sw	a0,-20(s0)
2001ca84:	feb42423          	sw	a1,-24(s0)
2001ca88:	fe842783          	lw	a5,-24(s0)
2001ca8c:	34179073          	csrw	mepc,a5
2001ca90:	4781                	li	a5,0
2001ca92:	853e                	mv	a0,a5
2001ca94:	4472                	lw	s0,28(sp)
2001ca96:	6105                	addi	sp,sp,32
2001ca98:	8082                	ret

2001ca9a <__metal_plic0_claim_interrupt>:
2001ca9a:	1101                	addi	sp,sp,-32
2001ca9c:	ce22                	sw	s0,28(sp)
2001ca9e:	1000                	addi	s0,sp,32
2001caa0:	fea42623          	sw	a0,-20(s0)
2001caa4:	fec42783          	lw	a5,-20(s0)
2001caa8:	4798                	lw	a4,8(a5)
2001caaa:	002007b7          	lui	a5,0x200
2001caae:	0791                	addi	a5,a5,4
2001cab0:	97ba                	add	a5,a5,a4
2001cab2:	439c                	lw	a5,0(a5)
2001cab4:	853e                	mv	a0,a5
2001cab6:	4472                	lw	s0,28(sp)
2001cab8:	6105                	addi	sp,sp,32
2001caba:	8082                	ret

2001cabc <__metal_plic0_complete_interrupt>:
2001cabc:	1101                	addi	sp,sp,-32
2001cabe:	ce22                	sw	s0,28(sp)
2001cac0:	1000                	addi	s0,sp,32
2001cac2:	fea42623          	sw	a0,-20(s0)
2001cac6:	feb42423          	sw	a1,-24(s0)
2001caca:	fec42783          	lw	a5,-20(s0)
2001cace:	4798                	lw	a4,8(a5)
2001cad0:	002007b7          	lui	a5,0x200
2001cad4:	0791                	addi	a5,a5,4
2001cad6:	97ba                	add	a5,a5,a4
2001cad8:	873e                	mv	a4,a5
2001cada:	fe842783          	lw	a5,-24(s0)
2001cade:	c31c                	sw	a5,0(a4)
2001cae0:	0001                	nop
2001cae2:	4472                	lw	s0,28(sp)
2001cae4:	6105                	addi	sp,sp,32
2001cae6:	8082                	ret

2001cae8 <__metal_plic0_set_threshold>:
2001cae8:	1101                	addi	sp,sp,-32
2001caea:	ce22                	sw	s0,28(sp)
2001caec:	1000                	addi	s0,sp,32
2001caee:	fea42623          	sw	a0,-20(s0)
2001caf2:	feb42423          	sw	a1,-24(s0)
2001caf6:	fec42783          	lw	a5,-20(s0)
2001cafa:	4798                	lw	a4,8(a5)
2001cafc:	002007b7          	lui	a5,0x200
2001cb00:	97ba                	add	a5,a5,a4
2001cb02:	873e                	mv	a4,a5
2001cb04:	fe842783          	lw	a5,-24(s0)
2001cb08:	c31c                	sw	a5,0(a4)
2001cb0a:	0001                	nop
2001cb0c:	4472                	lw	s0,28(sp)
2001cb0e:	6105                	addi	sp,sp,32
2001cb10:	8082                	ret

2001cb12 <__metal_plic0_set_priority>:
2001cb12:	1101                	addi	sp,sp,-32
2001cb14:	ce22                	sw	s0,28(sp)
2001cb16:	1000                	addi	s0,sp,32
2001cb18:	fea42623          	sw	a0,-20(s0)
2001cb1c:	feb42423          	sw	a1,-24(s0)
2001cb20:	fec42223          	sw	a2,-28(s0)
2001cb24:	fec42783          	lw	a5,-20(s0)
2001cb28:	4f9c                	lw	a5,24(a5)
2001cb2a:	c785                	beqz	a5,2001cb52 <__metal_plic0_set_priority+0x40>
2001cb2c:	fec42783          	lw	a5,-20(s0)
2001cb30:	4f9c                	lw	a5,24(a5)
2001cb32:	873e                	mv	a4,a5
2001cb34:	fe442783          	lw	a5,-28(s0)
2001cb38:	00e7fd63          	bgeu	a5,a4,2001cb52 <__metal_plic0_set_priority+0x40>
2001cb3c:	fec42783          	lw	a5,-20(s0)
2001cb40:	479c                	lw	a5,8(a5)
2001cb42:	fe842703          	lw	a4,-24(s0)
2001cb46:	070a                	slli	a4,a4,0x2
2001cb48:	97ba                	add	a5,a5,a4
2001cb4a:	873e                	mv	a4,a5
2001cb4c:	fe442783          	lw	a5,-28(s0)
2001cb50:	c31c                	sw	a5,0(a4)
2001cb52:	0001                	nop
2001cb54:	4472                	lw	s0,28(sp)
2001cb56:	6105                	addi	sp,sp,32
2001cb58:	8082                	ret

2001cb5a <__metal_plic0_enable>:
2001cb5a:	7179                	addi	sp,sp,-48
2001cb5c:	d606                	sw	ra,44(sp)
2001cb5e:	d422                	sw	s0,40(sp)
2001cb60:	1800                	addi	s0,sp,48
2001cb62:	fca42e23          	sw	a0,-36(s0)
2001cb66:	fcb42c23          	sw	a1,-40(s0)
2001cb6a:	fcc42a23          	sw	a2,-44(s0)
2001cb6e:	a22ff0ef          	jal	ra,2001bd90 <__metal_myhart_id>
2001cb72:	fea42623          	sw	a0,-20(s0)
2001cb76:	fdc42783          	lw	a5,-36(s0)
2001cb7a:	479c                	lw	a5,8(a5)
2001cb7c:	fd842703          	lw	a4,-40(s0)
2001cb80:	8715                	srai	a4,a4,0x5
2001cb82:	070a                	slli	a4,a4,0x2
2001cb84:	973e                	add	a4,a4,a5
2001cb86:	6789                	lui	a5,0x2
2001cb88:	97ba                	add	a5,a5,a4
2001cb8a:	439c                	lw	a5,0(a5)
2001cb8c:	fef42423          	sw	a5,-24(s0)
2001cb90:	fd442783          	lw	a5,-44(s0)
2001cb94:	cf81                	beqz	a5,2001cbac <__metal_plic0_enable+0x52>
2001cb96:	fd842783          	lw	a5,-40(s0)
2001cb9a:	8bfd                	andi	a5,a5,31
2001cb9c:	4705                	li	a4,1
2001cb9e:	00f717b3          	sll	a5,a4,a5
2001cba2:	873e                	mv	a4,a5
2001cba4:	fe842783          	lw	a5,-24(s0)
2001cba8:	8fd9                	or	a5,a5,a4
2001cbaa:	a829                	j	2001cbc4 <__metal_plic0_enable+0x6a>
2001cbac:	fd842783          	lw	a5,-40(s0)
2001cbb0:	8bfd                	andi	a5,a5,31
2001cbb2:	4705                	li	a4,1
2001cbb4:	00f717b3          	sll	a5,a4,a5
2001cbb8:	fff7c793          	not	a5,a5
2001cbbc:	873e                	mv	a4,a5
2001cbbe:	fe842783          	lw	a5,-24(s0)
2001cbc2:	8ff9                	and	a5,a5,a4
2001cbc4:	fdc42703          	lw	a4,-36(s0)
2001cbc8:	4718                	lw	a4,8(a4)
2001cbca:	fd842683          	lw	a3,-40(s0)
2001cbce:	8695                	srai	a3,a3,0x5
2001cbd0:	068a                	slli	a3,a3,0x2
2001cbd2:	96ba                	add	a3,a3,a4
2001cbd4:	6709                	lui	a4,0x2
2001cbd6:	9736                	add	a4,a4,a3
2001cbd8:	c31c                	sw	a5,0(a4)
2001cbda:	0001                	nop
2001cbdc:	50b2                	lw	ra,44(sp)
2001cbde:	5422                	lw	s0,40(sp)
2001cbe0:	6145                	addi	sp,sp,48
2001cbe2:	8082                	ret

2001cbe4 <__metal_plic0_default_handler>:
2001cbe4:	1101                	addi	sp,sp,-32
2001cbe6:	ce06                	sw	ra,28(sp)
2001cbe8:	cc22                	sw	s0,24(sp)
2001cbea:	1000                	addi	s0,sp,32
2001cbec:	fea42623          	sw	a0,-20(s0)
2001cbf0:	feb42423          	sw	a1,-24(s0)
2001cbf4:	12c00513          	li	a0,300
2001cbf8:	7a9000ef          	jal	ra,2001dba0 <metal_shutdown>

2001cbfc <__metal_plic0_handler>:
2001cbfc:	7179                	addi	sp,sp,-48
2001cbfe:	d606                	sw	ra,44(sp)
2001cc00:	d422                	sw	s0,40(sp)
2001cc02:	1800                	addi	s0,sp,48
2001cc04:	fca42e23          	sw	a0,-36(s0)
2001cc08:	fcb42c23          	sw	a1,-40(s0)
2001cc0c:	fd842783          	lw	a5,-40(s0)
2001cc10:	fef42623          	sw	a5,-20(s0)
2001cc14:	fec42503          	lw	a0,-20(s0)
2001cc18:	e83ff0ef          	jal	ra,2001ca9a <__metal_plic0_claim_interrupt>
2001cc1c:	fea42423          	sw	a0,-24(s0)
2001cc20:	fec42783          	lw	a5,-20(s0)
2001cc24:	4fdc                	lw	a5,28(a5)
2001cc26:	873e                	mv	a4,a5
2001cc28:	fe842783          	lw	a5,-24(s0)
2001cc2c:	04e7f463          	bgeu	a5,a4,2001cc74 <__metal_plic0_handler+0x78>
2001cc30:	fec42703          	lw	a4,-20(s0)
2001cc34:	fe842783          	lw	a5,-24(s0)
2001cc38:	07a1                	addi	a5,a5,8
2001cc3a:	078a                	slli	a5,a5,0x2
2001cc3c:	97ba                	add	a5,a5,a4
2001cc3e:	479c                	lw	a5,8(a5)
2001cc40:	cb95                	beqz	a5,2001cc74 <__metal_plic0_handler+0x78>
2001cc42:	fec42703          	lw	a4,-20(s0)
2001cc46:	fe842783          	lw	a5,-24(s0)
2001cc4a:	07a1                	addi	a5,a5,8
2001cc4c:	078a                	slli	a5,a5,0x2
2001cc4e:	97ba                	add	a5,a5,a4
2001cc50:	0087a803          	lw	a6,8(a5) # 2008 <__heap_size+0x1c08>
2001cc54:	fe842603          	lw	a2,-24(s0)
2001cc58:	fec42683          	lw	a3,-20(s0)
2001cc5c:	fe842703          	lw	a4,-24(s0)
2001cc60:	87ba                	mv	a5,a4
2001cc62:	0786                	slli	a5,a5,0x1
2001cc64:	97ba                	add	a5,a5,a4
2001cc66:	078e                	slli	a5,a5,0x3
2001cc68:	97b6                	add	a5,a5,a3
2001cc6a:	0a87a783          	lw	a5,168(a5)
2001cc6e:	85be                	mv	a1,a5
2001cc70:	8532                	mv	a0,a2
2001cc72:	9802                	jalr	a6
2001cc74:	fe842583          	lw	a1,-24(s0)
2001cc78:	fec42503          	lw	a0,-20(s0)
2001cc7c:	e41ff0ef          	jal	ra,2001cabc <__metal_plic0_complete_interrupt>
2001cc80:	0001                	nop
2001cc82:	50b2                	lw	ra,44(sp)
2001cc84:	5422                	lw	s0,40(sp)
2001cc86:	6145                	addi	sp,sp,48
2001cc88:	8082                	ret

2001cc8a <__metal_driver_riscv_plic0_init>:
2001cc8a:	7179                	addi	sp,sp,-48
2001cc8c:	d606                	sw	ra,44(sp)
2001cc8e:	d422                	sw	s0,40(sp)
2001cc90:	1800                	addi	s0,sp,48
2001cc92:	fca42e23          	sw	a0,-36(s0)
2001cc96:	fdc42783          	lw	a5,-36(s0)
2001cc9a:	fef42423          	sw	a5,-24(s0)
2001cc9e:	fe842783          	lw	a5,-24(s0)
2001cca2:	539c                	lw	a5,32(a5)
2001cca4:	0e079e63          	bnez	a5,2001cda0 <__metal_driver_riscv_plic0_init+0x116>
2001cca8:	fe842783          	lw	a5,-24(s0)
2001ccac:	4b9c                	lw	a5,16(a5)
2001ccae:	fef42223          	sw	a5,-28(s0)
2001ccb2:	fe442783          	lw	a5,-28(s0)
2001ccb6:	439c                	lw	a5,0(a5)
2001ccb8:	439c                	lw	a5,0(a5)
2001ccba:	fe442503          	lw	a0,-28(s0)
2001ccbe:	9782                	jalr	a5
2001ccc0:	fe042623          	sw	zero,-20(s0)
2001ccc4:	a09d                	j	2001cd2a <__metal_driver_riscv_plic0_init+0xa0>
2001ccc6:	4601                	li	a2,0
2001ccc8:	fec42583          	lw	a1,-20(s0)
2001cccc:	fe842503          	lw	a0,-24(s0)
2001ccd0:	e8bff0ef          	jal	ra,2001cb5a <__metal_plic0_enable>
2001ccd4:	4601                	li	a2,0
2001ccd6:	fec42583          	lw	a1,-20(s0)
2001ccda:	fe842503          	lw	a0,-24(s0)
2001ccde:	e35ff0ef          	jal	ra,2001cb12 <__metal_plic0_set_priority>
2001cce2:	fe842703          	lw	a4,-24(s0)
2001cce6:	fec42783          	lw	a5,-20(s0)
2001ccea:	07a1                	addi	a5,a5,8
2001ccec:	078a                	slli	a5,a5,0x2
2001ccee:	97ba                	add	a5,a5,a4
2001ccf0:	0007a423          	sw	zero,8(a5)
2001ccf4:	fe842683          	lw	a3,-24(s0)
2001ccf8:	fec42703          	lw	a4,-20(s0)
2001ccfc:	87ba                	mv	a5,a4
2001ccfe:	0786                	slli	a5,a5,0x1
2001cd00:	97ba                	add	a5,a5,a4
2001cd02:	078e                	slli	a5,a5,0x3
2001cd04:	97b6                	add	a5,a5,a3
2001cd06:	0a07a223          	sw	zero,164(a5)
2001cd0a:	fe842683          	lw	a3,-24(s0)
2001cd0e:	fec42703          	lw	a4,-20(s0)
2001cd12:	87ba                	mv	a5,a4
2001cd14:	0786                	slli	a5,a5,0x1
2001cd16:	97ba                	add	a5,a5,a4
2001cd18:	078e                	slli	a5,a5,0x3
2001cd1a:	97b6                	add	a5,a5,a3
2001cd1c:	0a07a423          	sw	zero,168(a5)
2001cd20:	fec42783          	lw	a5,-20(s0)
2001cd24:	0785                	addi	a5,a5,1
2001cd26:	fef42623          	sw	a5,-20(s0)
2001cd2a:	fe842783          	lw	a5,-24(s0)
2001cd2e:	4fdc                	lw	a5,28(a5)
2001cd30:	fec42703          	lw	a4,-20(s0)
2001cd34:	f8f749e3          	blt	a4,a5,2001ccc6 <__metal_driver_riscv_plic0_init+0x3c>
2001cd38:	4581                	li	a1,0
2001cd3a:	fe842503          	lw	a0,-24(s0)
2001cd3e:	dabff0ef          	jal	ra,2001cae8 <__metal_plic0_set_threshold>
2001cd42:	fe442783          	lw	a5,-28(s0)
2001cd46:	439c                	lw	a5,0(a5)
2001cd48:	43d8                	lw	a4,4(a5)
2001cd4a:	fe842783          	lw	a5,-24(s0)
2001cd4e:	4bdc                	lw	a5,20(a5)
2001cd50:	fe842683          	lw	a3,-24(s0)
2001cd54:	4601                	li	a2,0
2001cd56:	85be                	mv	a1,a5
2001cd58:	fe442503          	lw	a0,-28(s0)
2001cd5c:	9702                	jalr	a4
2001cd5e:	fe442783          	lw	a5,-28(s0)
2001cd62:	439c                	lw	a5,0(a5)
2001cd64:	0047a803          	lw	a6,4(a5)
2001cd68:	fe842783          	lw	a5,-24(s0)
2001cd6c:	4bd8                	lw	a4,20(a5)
2001cd6e:	fe842683          	lw	a3,-24(s0)
2001cd72:	2001d7b7          	lui	a5,0x2001d
2001cd76:	bfc78613          	addi	a2,a5,-1028 # 2001cbfc <__metal_plic0_handler>
2001cd7a:	85ba                	mv	a1,a4
2001cd7c:	fe442503          	lw	a0,-28(s0)
2001cd80:	9802                	jalr	a6
2001cd82:	fe442783          	lw	a5,-28(s0)
2001cd86:	439c                	lw	a5,0(a5)
2001cd88:	4798                	lw	a4,8(a5)
2001cd8a:	fe842783          	lw	a5,-24(s0)
2001cd8e:	4bdc                	lw	a5,20(a5)
2001cd90:	85be                	mv	a1,a5
2001cd92:	fe442503          	lw	a0,-28(s0)
2001cd96:	9702                	jalr	a4
2001cd98:	fe842783          	lw	a5,-24(s0)
2001cd9c:	4705                	li	a4,1
2001cd9e:	d398                	sw	a4,32(a5)
2001cda0:	0001                	nop
2001cda2:	50b2                	lw	ra,44(sp)
2001cda4:	5422                	lw	s0,40(sp)
2001cda6:	6145                	addi	sp,sp,48
2001cda8:	8082                	ret

2001cdaa <__metal_driver_riscv_plic0_register>:
2001cdaa:	7179                	addi	sp,sp,-48
2001cdac:	d606                	sw	ra,44(sp)
2001cdae:	d422                	sw	s0,40(sp)
2001cdb0:	1800                	addi	s0,sp,48
2001cdb2:	fca42e23          	sw	a0,-36(s0)
2001cdb6:	fcb42c23          	sw	a1,-40(s0)
2001cdba:	fcc42a23          	sw	a2,-44(s0)
2001cdbe:	fcd42823          	sw	a3,-48(s0)
2001cdc2:	fdc42783          	lw	a5,-36(s0)
2001cdc6:	fef42623          	sw	a5,-20(s0)
2001cdca:	fec42783          	lw	a5,-20(s0)
2001cdce:	4fdc                	lw	a5,28(a5)
2001cdd0:	fd842703          	lw	a4,-40(s0)
2001cdd4:	00f74463          	blt	a4,a5,2001cddc <__metal_driver_riscv_plic0_register+0x32>
2001cdd8:	57fd                	li	a5,-1
2001cdda:	a061                	j	2001ce62 <__metal_driver_riscv_plic0_register+0xb8>
2001cddc:	fd442783          	lw	a5,-44(s0)
2001cde0:	c3a1                	beqz	a5,2001ce20 <__metal_driver_riscv_plic0_register+0x76>
2001cde2:	4609                	li	a2,2
2001cde4:	fd842583          	lw	a1,-40(s0)
2001cde8:	fec42503          	lw	a0,-20(s0)
2001cdec:	d27ff0ef          	jal	ra,2001cb12 <__metal_plic0_set_priority>
2001cdf0:	fec42703          	lw	a4,-20(s0)
2001cdf4:	fd842783          	lw	a5,-40(s0)
2001cdf8:	07a1                	addi	a5,a5,8
2001cdfa:	078a                	slli	a5,a5,0x2
2001cdfc:	97ba                	add	a5,a5,a4
2001cdfe:	fd442703          	lw	a4,-44(s0)
2001ce02:	c798                	sw	a4,8(a5)
2001ce04:	fec42683          	lw	a3,-20(s0)
2001ce08:	fd842703          	lw	a4,-40(s0)
2001ce0c:	87ba                	mv	a5,a4
2001ce0e:	0786                	slli	a5,a5,0x1
2001ce10:	97ba                	add	a5,a5,a4
2001ce12:	078e                	slli	a5,a5,0x3
2001ce14:	97b6                	add	a5,a5,a3
2001ce16:	fd042703          	lw	a4,-48(s0)
2001ce1a:	0ae7a423          	sw	a4,168(a5)
2001ce1e:	a089                	j	2001ce60 <__metal_driver_riscv_plic0_register+0xb6>
2001ce20:	4605                	li	a2,1
2001ce22:	fd842583          	lw	a1,-40(s0)
2001ce26:	fec42503          	lw	a0,-20(s0)
2001ce2a:	ce9ff0ef          	jal	ra,2001cb12 <__metal_plic0_set_priority>
2001ce2e:	fec42703          	lw	a4,-20(s0)
2001ce32:	fd842783          	lw	a5,-40(s0)
2001ce36:	07a1                	addi	a5,a5,8
2001ce38:	078a                	slli	a5,a5,0x2
2001ce3a:	97ba                	add	a5,a5,a4
2001ce3c:	2001d737          	lui	a4,0x2001d
2001ce40:	be470713          	addi	a4,a4,-1052 # 2001cbe4 <__metal_plic0_default_handler>
2001ce44:	c798                	sw	a4,8(a5)
2001ce46:	fec42683          	lw	a3,-20(s0)
2001ce4a:	fd842703          	lw	a4,-40(s0)
2001ce4e:	87ba                	mv	a5,a4
2001ce50:	0786                	slli	a5,a5,0x1
2001ce52:	97ba                	add	a5,a5,a4
2001ce54:	078e                	slli	a5,a5,0x3
2001ce56:	97b6                	add	a5,a5,a3
2001ce58:	fd042703          	lw	a4,-48(s0)
2001ce5c:	0ae7a223          	sw	a4,164(a5)
2001ce60:	4781                	li	a5,0
2001ce62:	853e                	mv	a0,a5
2001ce64:	50b2                	lw	ra,44(sp)
2001ce66:	5422                	lw	s0,40(sp)
2001ce68:	6145                	addi	sp,sp,48
2001ce6a:	8082                	ret

2001ce6c <__metal_driver_riscv_plic0_enable>:
2001ce6c:	7179                	addi	sp,sp,-48
2001ce6e:	d606                	sw	ra,44(sp)
2001ce70:	d422                	sw	s0,40(sp)
2001ce72:	1800                	addi	s0,sp,48
2001ce74:	fca42e23          	sw	a0,-36(s0)
2001ce78:	fcb42c23          	sw	a1,-40(s0)
2001ce7c:	fdc42783          	lw	a5,-36(s0)
2001ce80:	fef42623          	sw	a5,-20(s0)
2001ce84:	fec42783          	lw	a5,-20(s0)
2001ce88:	4fdc                	lw	a5,28(a5)
2001ce8a:	fd842703          	lw	a4,-40(s0)
2001ce8e:	00f74463          	blt	a4,a5,2001ce96 <__metal_driver_riscv_plic0_enable+0x2a>
2001ce92:	57fd                	li	a5,-1
2001ce94:	a809                	j	2001cea6 <__metal_driver_riscv_plic0_enable+0x3a>
2001ce96:	4605                	li	a2,1
2001ce98:	fd842583          	lw	a1,-40(s0)
2001ce9c:	fec42503          	lw	a0,-20(s0)
2001cea0:	cbbff0ef          	jal	ra,2001cb5a <__metal_plic0_enable>
2001cea4:	4781                	li	a5,0
2001cea6:	853e                	mv	a0,a5
2001cea8:	50b2                	lw	ra,44(sp)
2001ceaa:	5422                	lw	s0,40(sp)
2001ceac:	6145                	addi	sp,sp,48
2001ceae:	8082                	ret

2001ceb0 <__metal_driver_riscv_plic0_disable>:
2001ceb0:	7179                	addi	sp,sp,-48
2001ceb2:	d606                	sw	ra,44(sp)
2001ceb4:	d422                	sw	s0,40(sp)
2001ceb6:	1800                	addi	s0,sp,48
2001ceb8:	fca42e23          	sw	a0,-36(s0)
2001cebc:	fcb42c23          	sw	a1,-40(s0)
2001cec0:	fdc42783          	lw	a5,-36(s0)
2001cec4:	fef42623          	sw	a5,-20(s0)
2001cec8:	fec42783          	lw	a5,-20(s0)
2001cecc:	4fdc                	lw	a5,28(a5)
2001cece:	fd842703          	lw	a4,-40(s0)
2001ced2:	00f74463          	blt	a4,a5,2001ceda <__metal_driver_riscv_plic0_disable+0x2a>
2001ced6:	57fd                	li	a5,-1
2001ced8:	a809                	j	2001ceea <__metal_driver_riscv_plic0_disable+0x3a>
2001ceda:	4601                	li	a2,0
2001cedc:	fd842583          	lw	a1,-40(s0)
2001cee0:	fec42503          	lw	a0,-20(s0)
2001cee4:	c77ff0ef          	jal	ra,2001cb5a <__metal_plic0_enable>
2001cee8:	4781                	li	a5,0
2001ceea:	853e                	mv	a0,a5
2001ceec:	50b2                	lw	ra,44(sp)
2001ceee:	5422                	lw	s0,40(sp)
2001cef0:	6145                	addi	sp,sp,48
2001cef2:	8082                	ret

2001cef4 <__metal_driver_sifive_fe310_g000_hfrosc_get_rate_hz>:
2001cef4:	7179                	addi	sp,sp,-48
2001cef6:	d606                	sw	ra,44(sp)
2001cef8:	d422                	sw	s0,40(sp)
2001cefa:	1800                	addi	s0,sp,48
2001cefc:	fca42e23          	sw	a0,-36(s0)
2001cf00:	fdc42783          	lw	a5,-36(s0)
2001cf04:	fef42623          	sw	a5,-20(s0)
2001cf08:	fec42783          	lw	a5,-20(s0)
2001cf0c:	4fdc                	lw	a5,28(a5)
2001cf0e:	439c                	lw	a5,0(a5)
2001cf10:	4394                	lw	a3,0(a5)
2001cf12:	fec42783          	lw	a5,-20(s0)
2001cf16:	4fd8                	lw	a4,28(a5)
2001cf18:	fec42783          	lw	a5,-20(s0)
2001cf1c:	539c                	lw	a5,32(a5)
2001cf1e:	85be                	mv	a1,a5
2001cf20:	853a                	mv	a0,a4
2001cf22:	9682                	jalr	a3
2001cf24:	fea42423          	sw	a0,-24(s0)
2001cf28:	fec42783          	lw	a5,-20(s0)
2001cf2c:	4f9c                	lw	a5,24(a5)
2001cf2e:	853e                	mv	a0,a5
2001cf30:	38b000ef          	jal	ra,2001daba <metal_clock_get_rate_hz>
2001cf34:	87aa                	mv	a5,a0
2001cf36:	873e                	mv	a4,a5
2001cf38:	fe842783          	lw	a5,-24(s0)
2001cf3c:	03f7f793          	andi	a5,a5,63
2001cf40:	0785                	addi	a5,a5,1
2001cf42:	02f757b3          	divu	a5,a4,a5
2001cf46:	853e                	mv	a0,a5
2001cf48:	50b2                	lw	ra,44(sp)
2001cf4a:	5422                	lw	s0,40(sp)
2001cf4c:	6145                	addi	sp,sp,48
2001cf4e:	8082                	ret

2001cf50 <__metal_driver_sifive_fe310_g000_hfrosc_set_rate_hz>:
2001cf50:	1101                	addi	sp,sp,-32
2001cf52:	ce06                	sw	ra,28(sp)
2001cf54:	cc22                	sw	s0,24(sp)
2001cf56:	1000                	addi	s0,sp,32
2001cf58:	fea42623          	sw	a0,-20(s0)
2001cf5c:	feb42423          	sw	a1,-24(s0)
2001cf60:	fec42503          	lw	a0,-20(s0)
2001cf64:	f91ff0ef          	jal	ra,2001cef4 <__metal_driver_sifive_fe310_g000_hfrosc_get_rate_hz>
2001cf68:	87aa                	mv	a5,a0
2001cf6a:	853e                	mv	a0,a5
2001cf6c:	40f2                	lw	ra,28(sp)
2001cf6e:	4462                	lw	s0,24(sp)
2001cf70:	6105                	addi	sp,sp,32
2001cf72:	8082                	ret

2001cf74 <__metal_driver_sifive_fe310_g000_hfxosc_get_rate_hz>:
2001cf74:	7179                	addi	sp,sp,-48
2001cf76:	d606                	sw	ra,44(sp)
2001cf78:	d422                	sw	s0,40(sp)
2001cf7a:	1800                	addi	s0,sp,48
2001cf7c:	fca42e23          	sw	a0,-36(s0)
2001cf80:	fdc42783          	lw	a5,-36(s0)
2001cf84:	fef42623          	sw	a5,-20(s0)
2001cf88:	fec42783          	lw	a5,-20(s0)
2001cf8c:	4fdc                	lw	a5,28(a5)
2001cf8e:	439c                	lw	a5,0(a5)
2001cf90:	4394                	lw	a3,0(a5)
2001cf92:	fec42783          	lw	a5,-20(s0)
2001cf96:	4fd8                	lw	a4,28(a5)
2001cf98:	fec42783          	lw	a5,-20(s0)
2001cf9c:	539c                	lw	a5,32(a5)
2001cf9e:	85be                	mv	a1,a5
2001cfa0:	853a                	mv	a0,a4
2001cfa2:	9682                	jalr	a3
2001cfa4:	fea42423          	sw	a0,-24(s0)
2001cfa8:	fec42783          	lw	a5,-20(s0)
2001cfac:	4f9c                	lw	a5,24(a5)
2001cfae:	853e                	mv	a0,a5
2001cfb0:	30b000ef          	jal	ra,2001daba <metal_clock_get_rate_hz>
2001cfb4:	87aa                	mv	a5,a0
2001cfb6:	853e                	mv	a0,a5
2001cfb8:	50b2                	lw	ra,44(sp)
2001cfba:	5422                	lw	s0,40(sp)
2001cfbc:	6145                	addi	sp,sp,48
2001cfbe:	8082                	ret

2001cfc0 <__metal_driver_sifive_fe310_g000_hfxosc_set_rate_hz>:
2001cfc0:	1101                	addi	sp,sp,-32
2001cfc2:	ce06                	sw	ra,28(sp)
2001cfc4:	cc22                	sw	s0,24(sp)
2001cfc6:	1000                	addi	s0,sp,32
2001cfc8:	fea42623          	sw	a0,-20(s0)
2001cfcc:	feb42423          	sw	a1,-24(s0)
2001cfd0:	fec42503          	lw	a0,-20(s0)
2001cfd4:	fa1ff0ef          	jal	ra,2001cf74 <__metal_driver_sifive_fe310_g000_hfxosc_get_rate_hz>
2001cfd8:	87aa                	mv	a5,a0
2001cfda:	853e                	mv	a0,a5
2001cfdc:	40f2                	lw	ra,28(sp)
2001cfde:	4462                	lw	s0,24(sp)
2001cfe0:	6105                	addi	sp,sp,32
2001cfe2:	8082                	ret

2001cfe4 <get_pll_config_freq>:
2001cfe4:	1101                	addi	sp,sp,-32
2001cfe6:	ce22                	sw	s0,28(sp)
2001cfe8:	1000                	addi	s0,sp,32
2001cfea:	fea42623          	sw	a0,-20(s0)
2001cfee:	feb42423          	sw	a1,-24(s0)
2001cff2:	fe842783          	lw	a5,-24(s0)
2001cff6:	4798                	lw	a4,8(a5)
2001cff8:	fec42783          	lw	a5,-20(s0)
2001cffc:	00e7e963          	bltu	a5,a4,2001d00e <get_pll_config_freq+0x2a>
2001d000:	fe842783          	lw	a5,-24(s0)
2001d004:	47d8                	lw	a4,12(a5)
2001d006:	fec42783          	lw	a5,-20(s0)
2001d00a:	00f77463          	bgeu	a4,a5,2001d012 <get_pll_config_freq+0x2e>
2001d00e:	57fd                	li	a5,-1
2001d010:	a829                	j	2001d02a <get_pll_config_freq+0x46>
2001d012:	fe842783          	lw	a5,-24(s0)
2001d016:	4398                	lw	a4,0(a5)
2001d018:	fec42783          	lw	a5,-20(s0)
2001d01c:	02f70733          	mul	a4,a4,a5
2001d020:	fe842783          	lw	a5,-24(s0)
2001d024:	43dc                	lw	a5,4(a5)
2001d026:	02f757b3          	divu	a5,a4,a5
2001d02a:	853e                	mv	a0,a5
2001d02c:	4472                	lw	s0,28(sp)
2001d02e:	6105                	addi	sp,sp,32
2001d030:	8082                	ret

2001d032 <metal_sifive_fe310_g000_pll_init>:
2001d032:	1141                	addi	sp,sp,-16
2001d034:	c606                	sw	ra,12(sp)
2001d036:	c422                	sw	s0,8(sp)
2001d038:	0800                	addi	s0,sp,16
2001d03a:	800017b7          	lui	a5,0x80001
2001d03e:	1b878793          	addi	a5,a5,440 # 800011b8 <metal_segment_heap_target_end+0xffffd1b8>
2001d042:	5b9c                	lw	a5,48(a5)
2001d044:	c791                	beqz	a5,2001d050 <metal_sifive_fe310_g000_pll_init+0x1e>
2001d046:	800017b7          	lui	a5,0x80001
2001d04a:	1b878513          	addi	a0,a5,440 # 800011b8 <metal_segment_heap_target_end+0xffffd1b8>
2001d04e:	2031                	jal	2001d05a <__metal_driver_sifive_fe310_g000_pll_init>
2001d050:	0001                	nop
2001d052:	40b2                	lw	ra,12(sp)
2001d054:	4422                	lw	s0,8(sp)
2001d056:	0141                	addi	sp,sp,16
2001d058:	8082                	ret

2001d05a <__metal_driver_sifive_fe310_g000_pll_init>:
2001d05a:	7179                	addi	sp,sp,-48
2001d05c:	d606                	sw	ra,44(sp)
2001d05e:	d422                	sw	s0,40(sp)
2001d060:	1800                	addi	s0,sp,48
2001d062:	fca42e23          	sw	a0,-36(s0)
2001d066:	fdc42783          	lw	a5,-36(s0)
2001d06a:	539c                	lw	a5,32(a5)
2001d06c:	43d8                	lw	a4,4(a5)
2001d06e:	fdc42783          	lw	a5,-36(s0)
2001d072:	53dc                	lw	a5,36(a5)
2001d074:	97ba                	add	a5,a5,a4
2001d076:	fef42623          	sw	a5,-20(s0)
2001d07a:	fdc42783          	lw	a5,-36(s0)
2001d07e:	43dc                	lw	a5,4(a5)
2001d080:	cb89                	beqz	a5,2001d092 <__metal_driver_sifive_fe310_g000_pll_init+0x38>
2001d082:	fdc42783          	lw	a5,-36(s0)
2001d086:	43d8                	lw	a4,4(a5)
2001d088:	fdc42783          	lw	a5,-36(s0)
2001d08c:	479c                	lw	a5,8(a5)
2001d08e:	853e                	mv	a0,a5
2001d090:	9702                	jalr	a4
2001d092:	fec42783          	lw	a5,-20(s0)
2001d096:	4398                	lw	a4,0(a5)
2001d098:	67c1                	lui	a5,0x10
2001d09a:	8ff9                	and	a5,a5,a4
2001d09c:	eb91                	bnez	a5,2001d0b0 <__metal_driver_sifive_fe310_g000_pll_init+0x56>
2001d09e:	fec42783          	lw	a5,-20(s0)
2001d0a2:	4398                	lw	a4,0(a5)
2001d0a4:	77c1                	lui	a5,0xffff0
2001d0a6:	17fd                	addi	a5,a5,-1
2001d0a8:	8f7d                	and	a4,a4,a5
2001d0aa:	fec42783          	lw	a5,-20(s0)
2001d0ae:	c398                	sw	a4,0(a5)
2001d0b0:	fdc42783          	lw	a5,-36(s0)
2001d0b4:	4fdc                	lw	a5,28(a5)
2001d0b6:	cb91                	beqz	a5,2001d0ca <__metal_driver_sifive_fe310_g000_pll_init+0x70>
2001d0b8:	fec42783          	lw	a5,-20(s0)
2001d0bc:	4398                	lw	a4,0(a5)
2001d0be:	000207b7          	lui	a5,0x20
2001d0c2:	8f5d                	or	a4,a4,a5
2001d0c4:	fec42783          	lw	a5,-20(s0)
2001d0c8:	c398                	sw	a4,0(a5)
2001d0ca:	fdc42783          	lw	a5,-36(s0)
2001d0ce:	4bdc                	lw	a5,20(a5)
2001d0d0:	4794                	lw	a3,8(a5)
2001d0d2:	fdc42703          	lw	a4,-36(s0)
2001d0d6:	fdc42783          	lw	a5,-36(s0)
2001d0da:	5b9c                	lw	a5,48(a5)
2001d0dc:	85be                	mv	a1,a5
2001d0de:	853a                	mv	a0,a4
2001d0e0:	9682                	jalr	a3
2001d0e2:	fdc42783          	lw	a5,-36(s0)
2001d0e6:	47dc                	lw	a5,12(a5)
2001d0e8:	cb89                	beqz	a5,2001d0fa <__metal_driver_sifive_fe310_g000_pll_init+0xa0>
2001d0ea:	fdc42783          	lw	a5,-36(s0)
2001d0ee:	47d8                	lw	a4,12(a5)
2001d0f0:	fdc42783          	lw	a5,-36(s0)
2001d0f4:	4b9c                	lw	a5,16(a5)
2001d0f6:	853e                	mv	a0,a5
2001d0f8:	9702                	jalr	a4
2001d0fa:	0001                	nop
2001d0fc:	50b2                	lw	ra,44(sp)
2001d0fe:	5422                	lw	s0,40(sp)
2001d100:	6145                	addi	sp,sp,48
2001d102:	8082                	ret

2001d104 <__metal_driver_sifive_fe310_g000_pll_get_rate_hz>:
2001d104:	7139                	addi	sp,sp,-64
2001d106:	de06                	sw	ra,60(sp)
2001d108:	dc22                	sw	s0,56(sp)
2001d10a:	0080                	addi	s0,sp,64
2001d10c:	fca42623          	sw	a0,-52(s0)
2001d110:	fcc42783          	lw	a5,-52(s0)
2001d114:	fef42623          	sw	a5,-20(s0)
2001d118:	fec42783          	lw	a5,-20(s0)
2001d11c:	539c                	lw	a5,32(a5)
2001d11e:	439c                	lw	a5,0(a5)
2001d120:	4394                	lw	a3,0(a5)
2001d122:	fec42783          	lw	a5,-20(s0)
2001d126:	5398                	lw	a4,32(a5)
2001d128:	fec42783          	lw	a5,-20(s0)
2001d12c:	53dc                	lw	a5,36(a5)
2001d12e:	85be                	mv	a1,a5
2001d130:	853a                	mv	a0,a4
2001d132:	9682                	jalr	a3
2001d134:	fea42423          	sw	a0,-24(s0)
2001d138:	fec42783          	lw	a5,-20(s0)
2001d13c:	539c                	lw	a5,32(a5)
2001d13e:	439c                	lw	a5,0(a5)
2001d140:	4394                	lw	a3,0(a5)
2001d142:	fec42783          	lw	a5,-20(s0)
2001d146:	5798                	lw	a4,40(a5)
2001d148:	fec42783          	lw	a5,-20(s0)
2001d14c:	57dc                	lw	a5,44(a5)
2001d14e:	85be                	mv	a1,a5
2001d150:	853a                	mv	a0,a4
2001d152:	9682                	jalr	a3
2001d154:	fea42223          	sw	a0,-28(s0)
2001d158:	fe842703          	lw	a4,-24(s0)
2001d15c:	67c1                	lui	a5,0x10
2001d15e:	8f7d                	and	a4,a4,a5
2001d160:	67c1                	lui	a5,0x10
2001d162:	00f77a63          	bgeu	a4,a5,2001d176 <__metal_driver_sifive_fe310_g000_pll_get_rate_hz+0x72>
2001d166:	fec42783          	lw	a5,-20(s0)
2001d16a:	4f9c                	lw	a5,24(a5)
2001d16c:	853e                	mv	a0,a5
2001d16e:	14d000ef          	jal	ra,2001daba <metal_clock_get_rate_hz>
2001d172:	87aa                	mv	a5,a0
2001d174:	a8f1                	j	2001d250 <__metal_driver_sifive_fe310_g000_pll_get_rate_hz+0x14c>
2001d176:	fe842703          	lw	a4,-24(s0)
2001d17a:	000207b7          	lui	a5,0x20
2001d17e:	8f7d                	and	a4,a4,a5
2001d180:	000207b7          	lui	a5,0x20
2001d184:	00f76663          	bltu	a4,a5,2001d190 <__metal_driver_sifive_fe310_g000_pll_get_rate_hz+0x8c>
2001d188:	fec42783          	lw	a5,-20(s0)
2001d18c:	4fdc                	lw	a5,28(a5)
2001d18e:	a021                	j	2001d196 <__metal_driver_sifive_fe310_g000_pll_get_rate_hz+0x92>
2001d190:	fec42783          	lw	a5,-20(s0)
2001d194:	4f9c                	lw	a5,24(a5)
2001d196:	853e                	mv	a0,a5
2001d198:	123000ef          	jal	ra,2001daba <metal_clock_get_rate_hz>
2001d19c:	fea42023          	sw	a0,-32(s0)
2001d1a0:	fe842703          	lw	a4,-24(s0)
2001d1a4:	000407b7          	lui	a5,0x40
2001d1a8:	8f7d                	and	a4,a4,a5
2001d1aa:	000407b7          	lui	a5,0x40
2001d1ae:	00f76563          	bltu	a4,a5,2001d1b8 <__metal_driver_sifive_fe310_g000_pll_get_rate_hz+0xb4>
2001d1b2:	fe042783          	lw	a5,-32(s0)
2001d1b6:	a869                	j	2001d250 <__metal_driver_sifive_fe310_g000_pll_get_rate_hz+0x14c>
2001d1b8:	fe842783          	lw	a5,-24(s0)
2001d1bc:	8b9d                	andi	a5,a5,7
2001d1be:	0785                	addi	a5,a5,1
2001d1c0:	fcf42e23          	sw	a5,-36(s0)
2001d1c4:	fe842783          	lw	a5,-24(s0)
2001d1c8:	3f07f793          	andi	a5,a5,1008
2001d1cc:	8391                	srli	a5,a5,0x4
2001d1ce:	0785                	addi	a5,a5,1
2001d1d0:	0786                	slli	a5,a5,0x1
2001d1d2:	fcf42c23          	sw	a5,-40(s0)
2001d1d6:	fe842703          	lw	a4,-24(s0)
2001d1da:	6785                	lui	a5,0x1
2001d1dc:	c0078793          	addi	a5,a5,-1024 # c00 <__heap_size+0x800>
2001d1e0:	8f7d                	and	a4,a4,a5
2001d1e2:	3ff00793          	li	a5,1023
2001d1e6:	00e7e463          	bltu	a5,a4,2001d1ee <__metal_driver_sifive_fe310_g000_pll_get_rate_hz+0xea>
2001d1ea:	57fd                	li	a5,-1
2001d1ec:	a095                	j	2001d250 <__metal_driver_sifive_fe310_g000_pll_get_rate_hz+0x14c>
2001d1ee:	fe842703          	lw	a4,-24(s0)
2001d1f2:	6785                	lui	a5,0x1
2001d1f4:	c0078793          	addi	a5,a5,-1024 # c00 <__heap_size+0x800>
2001d1f8:	8ff9                	and	a5,a5,a4
2001d1fa:	83a9                	srli	a5,a5,0xa
2001d1fc:	4705                	li	a4,1
2001d1fe:	00f717b3          	sll	a5,a4,a5
2001d202:	fcf42a23          	sw	a5,-44(s0)
2001d206:	fe042703          	lw	a4,-32(s0)
2001d20a:	fdc42783          	lw	a5,-36(s0)
2001d20e:	02f74733          	div	a4,a4,a5
2001d212:	fd842783          	lw	a5,-40(s0)
2001d216:	02f70733          	mul	a4,a4,a5
2001d21a:	fd442783          	lw	a5,-44(s0)
2001d21e:	02f747b3          	div	a5,a4,a5
2001d222:	fcf42823          	sw	a5,-48(s0)
2001d226:	fe442783          	lw	a5,-28(s0)
2001d22a:	1007f713          	andi	a4,a5,256
2001d22e:	0ff00793          	li	a5,255
2001d232:	00e7f563          	bgeu	a5,a4,2001d23c <__metal_driver_sifive_fe310_g000_pll_get_rate_hz+0x138>
2001d236:	fd042783          	lw	a5,-48(s0)
2001d23a:	a819                	j	2001d250 <__metal_driver_sifive_fe310_g000_pll_get_rate_hz+0x14c>
2001d23c:	fd042703          	lw	a4,-48(s0)
2001d240:	fe442783          	lw	a5,-28(s0)
2001d244:	03f7f793          	andi	a5,a5,63
2001d248:	0785                	addi	a5,a5,1
2001d24a:	0786                	slli	a5,a5,0x1
2001d24c:	02f757b3          	divu	a5,a4,a5
2001d250:	853e                	mv	a0,a5
2001d252:	50f2                	lw	ra,60(sp)
2001d254:	5462                	lw	s0,56(sp)
2001d256:	6121                	addi	sp,sp,64
2001d258:	8082                	ret

2001d25a <find_closest_config>:
2001d25a:	7139                	addi	sp,sp,-64
2001d25c:	de06                	sw	ra,60(sp)
2001d25e:	dc22                	sw	s0,56(sp)
2001d260:	0080                	addi	s0,sp,64
2001d262:	fca42623          	sw	a0,-52(s0)
2001d266:	fcb42423          	sw	a1,-56(s0)
2001d26a:	57fd                	li	a5,-1
2001d26c:	fef42623          	sw	a5,-20(s0)
2001d270:	800007b7          	lui	a5,0x80000
2001d274:	fff7c793          	not	a5,a5
2001d278:	fef42423          	sw	a5,-24(s0)
2001d27c:	04300793          	li	a5,67
2001d280:	fef42223          	sw	a5,-28(s0)
2001d284:	a0ad                	j	2001d2ee <find_closest_config+0x94>
2001d286:	fe442783          	lw	a5,-28(s0)
2001d28a:	00579713          	slli	a4,a5,0x5
2001d28e:	2001f7b7          	lui	a5,0x2001f
2001d292:	b4878793          	addi	a5,a5,-1208 # 2001eb48 <pll_configs>
2001d296:	97ba                	add	a5,a5,a4
2001d298:	85be                	mv	a1,a5
2001d29a:	fcc42503          	lw	a0,-52(s0)
2001d29e:	d47ff0ef          	jal	ra,2001cfe4 <get_pll_config_freq>
2001d2a2:	fea42023          	sw	a0,-32(s0)
2001d2a6:	fe042703          	lw	a4,-32(s0)
2001d2aa:	57fd                	li	a5,-1
2001d2ac:	02f70c63          	beq	a4,a5,2001d2e4 <find_closest_config+0x8a>
2001d2b0:	fe042703          	lw	a4,-32(s0)
2001d2b4:	fc842783          	lw	a5,-56(s0)
2001d2b8:	8f1d                	sub	a4,a4,a5
2001d2ba:	41f75793          	srai	a5,a4,0x1f
2001d2be:	8f3d                	xor	a4,a4,a5
2001d2c0:	40f707b3          	sub	a5,a4,a5
2001d2c4:	fcf42e23          	sw	a5,-36(s0)
2001d2c8:	fdc42703          	lw	a4,-36(s0)
2001d2cc:	fe842783          	lw	a5,-24(s0)
2001d2d0:	00f75a63          	bge	a4,a5,2001d2e4 <find_closest_config+0x8a>
2001d2d4:	fe442783          	lw	a5,-28(s0)
2001d2d8:	fef42623          	sw	a5,-20(s0)
2001d2dc:	fdc42783          	lw	a5,-36(s0)
2001d2e0:	fef42423          	sw	a5,-24(s0)
2001d2e4:	fe442783          	lw	a5,-28(s0)
2001d2e8:	17fd                	addi	a5,a5,-1
2001d2ea:	fef42223          	sw	a5,-28(s0)
2001d2ee:	fe442783          	lw	a5,-28(s0)
2001d2f2:	f807dae3          	bgez	a5,2001d286 <find_closest_config+0x2c>
2001d2f6:	fec42783          	lw	a5,-20(s0)
2001d2fa:	853e                	mv	a0,a5
2001d2fc:	50f2                	lw	ra,60(sp)
2001d2fe:	5462                	lw	s0,56(sp)
2001d300:	6121                	addi	sp,sp,64
2001d302:	8082                	ret

2001d304 <configure_pll>:
2001d304:	1101                	addi	sp,sp,-32
2001d306:	ce22                	sw	s0,28(sp)
2001d308:	1000                	addi	s0,sp,32
2001d30a:	fea42623          	sw	a0,-20(s0)
2001d30e:	feb42423          	sw	a1,-24(s0)
2001d312:	fec42223          	sw	a2,-28(s0)
2001d316:	fec42783          	lw	a5,-20(s0)
2001d31a:	439c                	lw	a5,0(a5)
2001d31c:	ff87f713          	andi	a4,a5,-8
2001d320:	fec42783          	lw	a5,-20(s0)
2001d324:	c398                	sw	a4,0(a5)
2001d326:	fec42783          	lw	a5,-20(s0)
2001d32a:	4398                	lw	a4,0(a5)
2001d32c:	fe442783          	lw	a5,-28(s0)
2001d330:	4b9c                	lw	a5,16(a5)
2001d332:	8b9d                	andi	a5,a5,7
2001d334:	8f5d                	or	a4,a4,a5
2001d336:	fec42783          	lw	a5,-20(s0)
2001d33a:	c398                	sw	a4,0(a5)
2001d33c:	fec42783          	lw	a5,-20(s0)
2001d340:	439c                	lw	a5,0(a5)
2001d342:	c0f7f713          	andi	a4,a5,-1009
2001d346:	fec42783          	lw	a5,-20(s0)
2001d34a:	c398                	sw	a4,0(a5)
2001d34c:	fec42783          	lw	a5,-20(s0)
2001d350:	4398                	lw	a4,0(a5)
2001d352:	fe442783          	lw	a5,-28(s0)
2001d356:	4bdc                	lw	a5,20(a5)
2001d358:	0792                	slli	a5,a5,0x4
2001d35a:	3f07f793          	andi	a5,a5,1008
2001d35e:	8f5d                	or	a4,a4,a5
2001d360:	fec42783          	lw	a5,-20(s0)
2001d364:	c398                	sw	a4,0(a5)
2001d366:	fec42783          	lw	a5,-20(s0)
2001d36a:	4398                	lw	a4,0(a5)
2001d36c:	77fd                	lui	a5,0xfffff
2001d36e:	3ff78793          	addi	a5,a5,1023 # fffff3ff <metal_segment_heap_target_end+0x7fffb3ff>
2001d372:	8f7d                	and	a4,a4,a5
2001d374:	fec42783          	lw	a5,-20(s0)
2001d378:	c398                	sw	a4,0(a5)
2001d37a:	fec42783          	lw	a5,-20(s0)
2001d37e:	4398                	lw	a4,0(a5)
2001d380:	fe442783          	lw	a5,-28(s0)
2001d384:	4f9c                	lw	a5,24(a5)
2001d386:	00a79693          	slli	a3,a5,0xa
2001d38a:	6785                	lui	a5,0x1
2001d38c:	c0078793          	addi	a5,a5,-1024 # c00 <__heap_size+0x800>
2001d390:	8ff5                	and	a5,a5,a3
2001d392:	8f5d                	or	a4,a4,a5
2001d394:	fec42783          	lw	a5,-20(s0)
2001d398:	c398                	sw	a4,0(a5)
2001d39a:	fe442783          	lw	a5,-28(s0)
2001d39e:	4fdc                	lw	a5,28(a5)
2001d3a0:	0207db63          	bgez	a5,2001d3d6 <configure_pll+0xd2>
2001d3a4:	fe842783          	lw	a5,-24(s0)
2001d3a8:	439c                	lw	a5,0(a5)
2001d3aa:	1007e713          	ori	a4,a5,256
2001d3ae:	fe842783          	lw	a5,-24(s0)
2001d3b2:	c398                	sw	a4,0(a5)
2001d3b4:	fe842783          	lw	a5,-24(s0)
2001d3b8:	439c                	lw	a5,0(a5)
2001d3ba:	fc07f713          	andi	a4,a5,-64
2001d3be:	fe842783          	lw	a5,-24(s0)
2001d3c2:	c398                	sw	a4,0(a5)
2001d3c4:	fe842783          	lw	a5,-24(s0)
2001d3c8:	439c                	lw	a5,0(a5)
2001d3ca:	0017e713          	ori	a4,a5,1
2001d3ce:	fe842783          	lw	a5,-24(s0)
2001d3d2:	c398                	sw	a4,0(a5)
2001d3d4:	a82d                	j	2001d40e <configure_pll+0x10a>
2001d3d6:	fe842783          	lw	a5,-24(s0)
2001d3da:	439c                	lw	a5,0(a5)
2001d3dc:	eff7f713          	andi	a4,a5,-257
2001d3e0:	fe842783          	lw	a5,-24(s0)
2001d3e4:	c398                	sw	a4,0(a5)
2001d3e6:	fe842783          	lw	a5,-24(s0)
2001d3ea:	439c                	lw	a5,0(a5)
2001d3ec:	fc07f713          	andi	a4,a5,-64
2001d3f0:	fe842783          	lw	a5,-24(s0)
2001d3f4:	c398                	sw	a4,0(a5)
2001d3f6:	fe842783          	lw	a5,-24(s0)
2001d3fa:	4398                	lw	a4,0(a5)
2001d3fc:	fe442783          	lw	a5,-28(s0)
2001d400:	4fdc                	lw	a5,28(a5)
2001d402:	03f7f793          	andi	a5,a5,63
2001d406:	8f5d                	or	a4,a4,a5
2001d408:	fe842783          	lw	a5,-24(s0)
2001d40c:	c398                	sw	a4,0(a5)
2001d40e:	fec42783          	lw	a5,-20(s0)
2001d412:	4398                	lw	a4,0(a5)
2001d414:	fffc07b7          	lui	a5,0xfffc0
2001d418:	17fd                	addi	a5,a5,-1
2001d41a:	8f7d                	and	a4,a4,a5
2001d41c:	fec42783          	lw	a5,-20(s0)
2001d420:	c398                	sw	a4,0(a5)
2001d422:	0001                	nop
2001d424:	fec42783          	lw	a5,-20(s0)
2001d428:	439c                	lw	a5,0(a5)
2001d42a:	fe07dde3          	bgez	a5,2001d424 <configure_pll+0x120>
2001d42e:	0001                	nop
2001d430:	4472                	lw	s0,28(sp)
2001d432:	6105                	addi	sp,sp,32
2001d434:	8082                	ret

2001d436 <__metal_driver_sifive_fe310_g000_pll_set_rate_hz>:
2001d436:	7139                	addi	sp,sp,-64
2001d438:	de06                	sw	ra,60(sp)
2001d43a:	dc22                	sw	s0,56(sp)
2001d43c:	0080                	addi	s0,sp,64
2001d43e:	fca42623          	sw	a0,-52(s0)
2001d442:	fcb42423          	sw	a1,-56(s0)
2001d446:	fcc42783          	lw	a5,-52(s0)
2001d44a:	fef42623          	sw	a5,-20(s0)
2001d44e:	fec42783          	lw	a5,-20(s0)
2001d452:	539c                	lw	a5,32(a5)
2001d454:	43d8                	lw	a4,4(a5)
2001d456:	fec42783          	lw	a5,-20(s0)
2001d45a:	53dc                	lw	a5,36(a5)
2001d45c:	97ba                	add	a5,a5,a4
2001d45e:	fef42423          	sw	a5,-24(s0)
2001d462:	fec42783          	lw	a5,-20(s0)
2001d466:	579c                	lw	a5,40(a5)
2001d468:	43d8                	lw	a4,4(a5)
2001d46a:	fec42783          	lw	a5,-20(s0)
2001d46e:	57dc                	lw	a5,44(a5)
2001d470:	97ba                	add	a5,a5,a4
2001d472:	fef42223          	sw	a5,-28(s0)
2001d476:	fe842783          	lw	a5,-24(s0)
2001d47a:	4398                	lw	a4,0(a5)
2001d47c:	67c1                	lui	a5,0x10
2001d47e:	8ff9                	and	a5,a5,a4
2001d480:	cb91                	beqz	a5,2001d494 <__metal_driver_sifive_fe310_g000_pll_set_rate_hz+0x5e>
2001d482:	fe842783          	lw	a5,-24(s0)
2001d486:	4398                	lw	a4,0(a5)
2001d488:	77c1                	lui	a5,0xffff0
2001d48a:	17fd                	addi	a5,a5,-1
2001d48c:	8f7d                	and	a4,a4,a5
2001d48e:	fe842783          	lw	a5,-24(s0)
2001d492:	c398                	sw	a4,0(a5)
2001d494:	fe842783          	lw	a5,-24(s0)
2001d498:	4398                	lw	a4,0(a5)
2001d49a:	000207b7          	lui	a5,0x20
2001d49e:	8ff9                	and	a5,a5,a4
2001d4a0:	c789                	beqz	a5,2001d4aa <__metal_driver_sifive_fe310_g000_pll_set_rate_hz+0x74>
2001d4a2:	fec42783          	lw	a5,-20(s0)
2001d4a6:	4fdc                	lw	a5,28(a5)
2001d4a8:	a021                	j	2001d4b0 <__metal_driver_sifive_fe310_g000_pll_set_rate_hz+0x7a>
2001d4aa:	fec42783          	lw	a5,-20(s0)
2001d4ae:	4f9c                	lw	a5,24(a5)
2001d4b0:	853e                	mv	a0,a5
2001d4b2:	2521                	jal	2001daba <metal_clock_get_rate_hz>
2001d4b4:	fea42023          	sw	a0,-32(s0)
2001d4b8:	fe042703          	lw	a4,-32(s0)
2001d4bc:	87ba                	mv	a5,a4
2001d4be:	0786                	slli	a5,a5,0x1
2001d4c0:	97ba                	add	a5,a5,a4
2001d4c2:	41f7d713          	srai	a4,a5,0x1f
2001d4c6:	8b0d                	andi	a4,a4,3
2001d4c8:	97ba                	add	a5,a5,a4
2001d4ca:	8789                	srai	a5,a5,0x2
2001d4cc:	873e                	mv	a4,a5
2001d4ce:	fc842783          	lw	a5,-56(s0)
2001d4d2:	02e7cb63          	blt	a5,a4,2001d508 <__metal_driver_sifive_fe310_g000_pll_set_rate_hz+0xd2>
2001d4d6:	fe042703          	lw	a4,-32(s0)
2001d4da:	87ba                	mv	a5,a4
2001d4dc:	078a                	slli	a5,a5,0x2
2001d4de:	97ba                	add	a5,a5,a4
2001d4e0:	41f7d713          	srai	a4,a5,0x1f
2001d4e4:	8b0d                	andi	a4,a4,3
2001d4e6:	97ba                	add	a5,a5,a4
2001d4e8:	8789                	srai	a5,a5,0x2
2001d4ea:	873e                	mv	a4,a5
2001d4ec:	fc842783          	lw	a5,-56(s0)
2001d4f0:	00f74c63          	blt	a4,a5,2001d508 <__metal_driver_sifive_fe310_g000_pll_set_rate_hz+0xd2>
2001d4f4:	fe842783          	lw	a5,-24(s0)
2001d4f8:	4398                	lw	a4,0(a5)
2001d4fa:	000407b7          	lui	a5,0x40
2001d4fe:	8f5d                	or	a4,a4,a5
2001d500:	fe842783          	lw	a5,-24(s0)
2001d504:	c398                	sw	a4,0(a5)
2001d506:	a881                	j	2001d556 <__metal_driver_sifive_fe310_g000_pll_set_rate_hz+0x120>
2001d508:	fc842583          	lw	a1,-56(s0)
2001d50c:	fe042503          	lw	a0,-32(s0)
2001d510:	d4bff0ef          	jal	ra,2001d25a <find_closest_config>
2001d514:	fca42e23          	sw	a0,-36(s0)
2001d518:	fdc42703          	lw	a4,-36(s0)
2001d51c:	57fd                	li	a5,-1
2001d51e:	02f70363          	beq	a4,a5,2001d544 <__metal_driver_sifive_fe310_g000_pll_set_rate_hz+0x10e>
2001d522:	fdc42783          	lw	a5,-36(s0)
2001d526:	00579713          	slli	a4,a5,0x5
2001d52a:	2001f7b7          	lui	a5,0x2001f
2001d52e:	b4878793          	addi	a5,a5,-1208 # 2001eb48 <pll_configs>
2001d532:	97ba                	add	a5,a5,a4
2001d534:	863e                	mv	a2,a5
2001d536:	fe442583          	lw	a1,-28(s0)
2001d53a:	fe842503          	lw	a0,-24(s0)
2001d53e:	dc7ff0ef          	jal	ra,2001d304 <configure_pll>
2001d542:	a811                	j	2001d556 <__metal_driver_sifive_fe310_g000_pll_set_rate_hz+0x120>
2001d544:	fe842783          	lw	a5,-24(s0)
2001d548:	4398                	lw	a4,0(a5)
2001d54a:	000407b7          	lui	a5,0x40
2001d54e:	8f5d                	or	a4,a4,a5
2001d550:	fe842783          	lw	a5,-24(s0)
2001d554:	c398                	sw	a4,0(a5)
2001d556:	fe842783          	lw	a5,-24(s0)
2001d55a:	4398                	lw	a4,0(a5)
2001d55c:	67c1                	lui	a5,0x10
2001d55e:	8f5d                	or	a4,a4,a5
2001d560:	fe842783          	lw	a5,-24(s0)
2001d564:	c398                	sw	a4,0(a5)
2001d566:	fcc42503          	lw	a0,-52(s0)
2001d56a:	b9bff0ef          	jal	ra,2001d104 <__metal_driver_sifive_fe310_g000_pll_get_rate_hz>
2001d56e:	87aa                	mv	a5,a0
2001d570:	853e                	mv	a0,a5
2001d572:	50f2                	lw	ra,60(sp)
2001d574:	5462                	lw	s0,56(sp)
2001d576:	6121                	addi	sp,sp,64
2001d578:	8082                	ret

2001d57a <use_hfxosc>:
2001d57a:	1141                	addi	sp,sp,-16
2001d57c:	c606                	sw	ra,12(sp)
2001d57e:	c422                	sw	s0,8(sp)
2001d580:	0800                	addi	s0,sp,16
2001d582:	800017b7          	lui	a5,0x80001
2001d586:	1b878793          	addi	a5,a5,440 # 800011b8 <metal_segment_heap_target_end+0xffffd1b8>
2001d58a:	5b9c                	lw	a5,48(a5)
2001d58c:	85be                	mv	a1,a5
2001d58e:	800017b7          	lui	a5,0x80001
2001d592:	1b878513          	addi	a0,a5,440 # 800011b8 <metal_segment_heap_target_end+0xffffd1b8>
2001d596:	23a9                	jal	2001dae0 <metal_clock_set_rate_hz>
2001d598:	0001                	nop
2001d59a:	40b2                	lw	ra,12(sp)
2001d59c:	4422                	lw	s0,8(sp)
2001d59e:	0141                	addi	sp,sp,16
2001d5a0:	8082                	ret

2001d5a2 <__metal_driver_sifive_fe310_g000_prci_get_reg>:
2001d5a2:	1101                	addi	sp,sp,-32
2001d5a4:	ce22                	sw	s0,28(sp)
2001d5a6:	1000                	addi	s0,sp,32
2001d5a8:	fea42623          	sw	a0,-20(s0)
2001d5ac:	feb42423          	sw	a1,-24(s0)
2001d5b0:	fec42783          	lw	a5,-20(s0)
2001d5b4:	43d8                	lw	a4,4(a5)
2001d5b6:	fe842783          	lw	a5,-24(s0)
2001d5ba:	97ba                	add	a5,a5,a4
2001d5bc:	439c                	lw	a5,0(a5)
2001d5be:	853e                	mv	a0,a5
2001d5c0:	4472                	lw	s0,28(sp)
2001d5c2:	6105                	addi	sp,sp,32
2001d5c4:	8082                	ret

2001d5c6 <__metal_driver_sifive_fe310_g000_prci_set_reg>:
2001d5c6:	1101                	addi	sp,sp,-32
2001d5c8:	ce22                	sw	s0,28(sp)
2001d5ca:	1000                	addi	s0,sp,32
2001d5cc:	fea42623          	sw	a0,-20(s0)
2001d5d0:	feb42423          	sw	a1,-24(s0)
2001d5d4:	fec42223          	sw	a2,-28(s0)
2001d5d8:	fec42783          	lw	a5,-20(s0)
2001d5dc:	43d8                	lw	a4,4(a5)
2001d5de:	fe842783          	lw	a5,-24(s0)
2001d5e2:	97ba                	add	a5,a5,a4
2001d5e4:	873e                	mv	a4,a5
2001d5e6:	fe442783          	lw	a5,-28(s0)
2001d5ea:	c31c                	sw	a5,0(a4)
2001d5ec:	853e                	mv	a0,a5
2001d5ee:	4472                	lw	s0,28(sp)
2001d5f0:	6105                	addi	sp,sp,32
2001d5f2:	8082                	ret

2001d5f4 <__metal_driver_sifive_gpio0_disable_input>:
2001d5f4:	7179                	addi	sp,sp,-48
2001d5f6:	d622                	sw	s0,44(sp)
2001d5f8:	1800                	addi	s0,sp,48
2001d5fa:	fca42e23          	sw	a0,-36(s0)
2001d5fe:	fcb42c23          	sw	a1,-40(s0)
2001d602:	fdc42783          	lw	a5,-36(s0)
2001d606:	fef42623          	sw	a5,-20(s0)
2001d60a:	fec42783          	lw	a5,-20(s0)
2001d60e:	479c                	lw	a5,8(a5)
2001d610:	0791                	addi	a5,a5,4
2001d612:	439c                	lw	a5,0(a5)
2001d614:	fd842703          	lw	a4,-40(s0)
2001d618:	fff74713          	not	a4,a4
2001d61c:	86ba                	mv	a3,a4
2001d61e:	fec42703          	lw	a4,-20(s0)
2001d622:	4718                	lw	a4,8(a4)
2001d624:	0711                	addi	a4,a4,4
2001d626:	8ff5                	and	a5,a5,a3
2001d628:	c31c                	sw	a5,0(a4)
2001d62a:	4781                	li	a5,0
2001d62c:	853e                	mv	a0,a5
2001d62e:	5432                	lw	s0,44(sp)
2001d630:	6145                	addi	sp,sp,48
2001d632:	8082                	ret

2001d634 <__metal_driver_sifive_gpio0_output>:
2001d634:	7179                	addi	sp,sp,-48
2001d636:	d622                	sw	s0,44(sp)
2001d638:	1800                	addi	s0,sp,48
2001d63a:	fca42e23          	sw	a0,-36(s0)
2001d63e:	fdc42783          	lw	a5,-36(s0)
2001d642:	fef42623          	sw	a5,-20(s0)
2001d646:	fec42783          	lw	a5,-20(s0)
2001d64a:	479c                	lw	a5,8(a5)
2001d64c:	07b1                	addi	a5,a5,12
2001d64e:	439c                	lw	a5,0(a5)
2001d650:	853e                	mv	a0,a5
2001d652:	5432                	lw	s0,44(sp)
2001d654:	6145                	addi	sp,sp,48
2001d656:	8082                	ret

2001d658 <__metal_driver_sifive_gpio0_enable_output>:
2001d658:	7179                	addi	sp,sp,-48
2001d65a:	d622                	sw	s0,44(sp)
2001d65c:	1800                	addi	s0,sp,48
2001d65e:	fca42e23          	sw	a0,-36(s0)
2001d662:	fcb42c23          	sw	a1,-40(s0)
2001d666:	fdc42783          	lw	a5,-36(s0)
2001d66a:	fef42623          	sw	a5,-20(s0)
2001d66e:	fec42783          	lw	a5,-20(s0)
2001d672:	479c                	lw	a5,8(a5)
2001d674:	07a1                	addi	a5,a5,8
2001d676:	4398                	lw	a4,0(a5)
2001d678:	fd842783          	lw	a5,-40(s0)
2001d67c:	fec42683          	lw	a3,-20(s0)
2001d680:	4694                	lw	a3,8(a3)
2001d682:	06a1                	addi	a3,a3,8
2001d684:	8fd9                	or	a5,a5,a4
2001d686:	c29c                	sw	a5,0(a3)
2001d688:	4781                	li	a5,0
2001d68a:	853e                	mv	a0,a5
2001d68c:	5432                	lw	s0,44(sp)
2001d68e:	6145                	addi	sp,sp,48
2001d690:	8082                	ret

2001d692 <__metal_driver_sifive_gpio0_output_set>:
2001d692:	7179                	addi	sp,sp,-48
2001d694:	d622                	sw	s0,44(sp)
2001d696:	1800                	addi	s0,sp,48
2001d698:	fca42e23          	sw	a0,-36(s0)
2001d69c:	fcb42c23          	sw	a1,-40(s0)
2001d6a0:	fdc42783          	lw	a5,-36(s0)
2001d6a4:	fef42623          	sw	a5,-20(s0)
2001d6a8:	fec42783          	lw	a5,-20(s0)
2001d6ac:	479c                	lw	a5,8(a5)
2001d6ae:	07b1                	addi	a5,a5,12
2001d6b0:	4398                	lw	a4,0(a5)
2001d6b2:	fd842783          	lw	a5,-40(s0)
2001d6b6:	fec42683          	lw	a3,-20(s0)
2001d6ba:	4694                	lw	a3,8(a3)
2001d6bc:	06b1                	addi	a3,a3,12
2001d6be:	8fd9                	or	a5,a5,a4
2001d6c0:	c29c                	sw	a5,0(a3)
2001d6c2:	4781                	li	a5,0
2001d6c4:	853e                	mv	a0,a5
2001d6c6:	5432                	lw	s0,44(sp)
2001d6c8:	6145                	addi	sp,sp,48
2001d6ca:	8082                	ret

2001d6cc <__metal_driver_sifive_gpio0_output_clear>:
2001d6cc:	7179                	addi	sp,sp,-48
2001d6ce:	d622                	sw	s0,44(sp)
2001d6d0:	1800                	addi	s0,sp,48
2001d6d2:	fca42e23          	sw	a0,-36(s0)
2001d6d6:	fcb42c23          	sw	a1,-40(s0)
2001d6da:	fdc42783          	lw	a5,-36(s0)
2001d6de:	fef42623          	sw	a5,-20(s0)
2001d6e2:	fec42783          	lw	a5,-20(s0)
2001d6e6:	479c                	lw	a5,8(a5)
2001d6e8:	07b1                	addi	a5,a5,12
2001d6ea:	439c                	lw	a5,0(a5)
2001d6ec:	fd842703          	lw	a4,-40(s0)
2001d6f0:	fff74713          	not	a4,a4
2001d6f4:	86ba                	mv	a3,a4
2001d6f6:	fec42703          	lw	a4,-20(s0)
2001d6fa:	4718                	lw	a4,8(a4)
2001d6fc:	0731                	addi	a4,a4,12
2001d6fe:	8ff5                	and	a5,a5,a3
2001d700:	c31c                	sw	a5,0(a4)
2001d702:	4781                	li	a5,0
2001d704:	853e                	mv	a0,a5
2001d706:	5432                	lw	s0,44(sp)
2001d708:	6145                	addi	sp,sp,48
2001d70a:	8082                	ret

2001d70c <__metal_driver_sifive_gpio0_output_toggle>:
2001d70c:	7179                	addi	sp,sp,-48
2001d70e:	d622                	sw	s0,44(sp)
2001d710:	1800                	addi	s0,sp,48
2001d712:	fca42e23          	sw	a0,-36(s0)
2001d716:	fcb42c23          	sw	a1,-40(s0)
2001d71a:	fdc42783          	lw	a5,-36(s0)
2001d71e:	fef42623          	sw	a5,-20(s0)
2001d722:	fec42783          	lw	a5,-20(s0)
2001d726:	479c                	lw	a5,8(a5)
2001d728:	07b1                	addi	a5,a5,12
2001d72a:	4398                	lw	a4,0(a5)
2001d72c:	fd842783          	lw	a5,-40(s0)
2001d730:	fec42683          	lw	a3,-20(s0)
2001d734:	4694                	lw	a3,8(a3)
2001d736:	06b1                	addi	a3,a3,12
2001d738:	8fb9                	xor	a5,a5,a4
2001d73a:	c29c                	sw	a5,0(a3)
2001d73c:	4781                	li	a5,0
2001d73e:	853e                	mv	a0,a5
2001d740:	5432                	lw	s0,44(sp)
2001d742:	6145                	addi	sp,sp,48
2001d744:	8082                	ret

2001d746 <__metal_driver_sifive_gpio0_enable_io>:
2001d746:	7179                	addi	sp,sp,-48
2001d748:	d622                	sw	s0,44(sp)
2001d74a:	1800                	addi	s0,sp,48
2001d74c:	fca42e23          	sw	a0,-36(s0)
2001d750:	fcb42c23          	sw	a1,-40(s0)
2001d754:	fcc42a23          	sw	a2,-44(s0)
2001d758:	fdc42783          	lw	a5,-36(s0)
2001d75c:	fef42623          	sw	a5,-20(s0)
2001d760:	fec42783          	lw	a5,-20(s0)
2001d764:	479c                	lw	a5,8(a5)
2001d766:	03c78793          	addi	a5,a5,60
2001d76a:	439c                	lw	a5,0(a5)
2001d76c:	fd842703          	lw	a4,-40(s0)
2001d770:	fff74713          	not	a4,a4
2001d774:	86ba                	mv	a3,a4
2001d776:	fec42703          	lw	a4,-20(s0)
2001d77a:	4718                	lw	a4,8(a4)
2001d77c:	03c70713          	addi	a4,a4,60
2001d780:	8ff5                	and	a5,a5,a3
2001d782:	c31c                	sw	a5,0(a4)
2001d784:	fec42783          	lw	a5,-20(s0)
2001d788:	479c                	lw	a5,8(a5)
2001d78a:	03878793          	addi	a5,a5,56
2001d78e:	4398                	lw	a4,0(a5)
2001d790:	fd442783          	lw	a5,-44(s0)
2001d794:	fec42683          	lw	a3,-20(s0)
2001d798:	4694                	lw	a3,8(a3)
2001d79a:	03868693          	addi	a3,a3,56
2001d79e:	8fd9                	or	a5,a5,a4
2001d7a0:	c29c                	sw	a5,0(a3)
2001d7a2:	4781                	li	a5,0
2001d7a4:	853e                	mv	a0,a5
2001d7a6:	5432                	lw	s0,44(sp)
2001d7a8:	6145                	addi	sp,sp,48
2001d7aa:	8082                	ret

2001d7ac <__metal_driver_sifive_uart0_interrupt_controller>:
2001d7ac:	7179                	addi	sp,sp,-48
2001d7ae:	d622                	sw	s0,44(sp)
2001d7b0:	1800                	addi	s0,sp,48
2001d7b2:	fca42e23          	sw	a0,-36(s0)
2001d7b6:	fdc42783          	lw	a5,-36(s0)
2001d7ba:	fef42623          	sw	a5,-20(s0)
2001d7be:	fec42783          	lw	a5,-20(s0)
2001d7c2:	53dc                	lw	a5,36(a5)
2001d7c4:	853e                	mv	a0,a5
2001d7c6:	5432                	lw	s0,44(sp)
2001d7c8:	6145                	addi	sp,sp,48
2001d7ca:	8082                	ret

2001d7cc <__metal_driver_sifive_uart0_get_interrupt_id>:
2001d7cc:	7179                	addi	sp,sp,-48
2001d7ce:	d622                	sw	s0,44(sp)
2001d7d0:	1800                	addi	s0,sp,48
2001d7d2:	fca42e23          	sw	a0,-36(s0)
2001d7d6:	fdc42783          	lw	a5,-36(s0)
2001d7da:	fef42623          	sw	a5,-20(s0)
2001d7de:	fec42783          	lw	a5,-20(s0)
2001d7e2:	57dc                	lw	a5,44(a5)
2001d7e4:	02078793          	addi	a5,a5,32
2001d7e8:	853e                	mv	a0,a5
2001d7ea:	5432                	lw	s0,44(sp)
2001d7ec:	6145                	addi	sp,sp,48
2001d7ee:	8082                	ret

2001d7f0 <__metal_driver_sifive_uart0_putc>:
2001d7f0:	1101                	addi	sp,sp,-32
2001d7f2:	ce22                	sw	s0,28(sp)
2001d7f4:	1000                	addi	s0,sp,32
2001d7f6:	fea42623          	sw	a0,-20(s0)
2001d7fa:	87ae                	mv	a5,a1
2001d7fc:	fef405a3          	sb	a5,-21(s0)
2001d800:	0001                	nop
2001d802:	fec42783          	lw	a5,-20(s0)
2001d806:	47dc                	lw	a5,12(a5)
2001d808:	439c                	lw	a5,0(a5)
2001d80a:	fe07cce3          	bltz	a5,2001d802 <__metal_driver_sifive_uart0_putc+0x12>
2001d80e:	fec42783          	lw	a5,-20(s0)
2001d812:	47dc                	lw	a5,12(a5)
2001d814:	873e                	mv	a4,a5
2001d816:	feb44783          	lbu	a5,-21(s0)
2001d81a:	c31c                	sw	a5,0(a4)
2001d81c:	4781                	li	a5,0
2001d81e:	853e                	mv	a0,a5
2001d820:	4472                	lw	s0,28(sp)
2001d822:	6105                	addi	sp,sp,32
2001d824:	8082                	ret

2001d826 <__metal_driver_sifive_uart0_getc>:
2001d826:	7179                	addi	sp,sp,-48
2001d828:	d622                	sw	s0,44(sp)
2001d82a:	1800                	addi	s0,sp,48
2001d82c:	fca42e23          	sw	a0,-36(s0)
2001d830:	fcb42c23          	sw	a1,-40(s0)
2001d834:	800007b7          	lui	a5,0x80000
2001d838:	fef42623          	sw	a5,-20(s0)
2001d83c:	a801                	j	2001d84c <__metal_driver_sifive_uart0_getc+0x26>
2001d83e:	fdc42783          	lw	a5,-36(s0)
2001d842:	47dc                	lw	a5,12(a5)
2001d844:	0791                	addi	a5,a5,4
2001d846:	439c                	lw	a5,0(a5)
2001d848:	fef42623          	sw	a5,-20(s0)
2001d84c:	fec42783          	lw	a5,-20(s0)
2001d850:	fe07c7e3          	bltz	a5,2001d83e <__metal_driver_sifive_uart0_getc+0x18>
2001d854:	fec42783          	lw	a5,-20(s0)
2001d858:	0ff7f713          	andi	a4,a5,255
2001d85c:	fd842783          	lw	a5,-40(s0)
2001d860:	00e78023          	sb	a4,0(a5) # 80000000 <metal_segment_heap_target_end+0xffffc000>
2001d864:	4781                	li	a5,0
2001d866:	853e                	mv	a0,a5
2001d868:	5432                	lw	s0,44(sp)
2001d86a:	6145                	addi	sp,sp,48
2001d86c:	8082                	ret

2001d86e <__metal_driver_sifive_uart0_get_baud_rate>:
2001d86e:	7179                	addi	sp,sp,-48
2001d870:	d622                	sw	s0,44(sp)
2001d872:	1800                	addi	s0,sp,48
2001d874:	fca42e23          	sw	a0,-36(s0)
2001d878:	fdc42783          	lw	a5,-36(s0)
2001d87c:	fef42623          	sw	a5,-20(s0)
2001d880:	fec42783          	lw	a5,-20(s0)
2001d884:	4bdc                	lw	a5,20(a5)
2001d886:	853e                	mv	a0,a5
2001d888:	5432                	lw	s0,44(sp)
2001d88a:	6145                	addi	sp,sp,48
2001d88c:	8082                	ret

2001d88e <__metal_driver_sifive_uart0_set_baud_rate>:
2001d88e:	7179                	addi	sp,sp,-48
2001d890:	d606                	sw	ra,44(sp)
2001d892:	d422                	sw	s0,40(sp)
2001d894:	1800                	addi	s0,sp,48
2001d896:	fca42e23          	sw	a0,-36(s0)
2001d89a:	fcb42c23          	sw	a1,-40(s0)
2001d89e:	fdc42783          	lw	a5,-36(s0)
2001d8a2:	fef42623          	sw	a5,-20(s0)
2001d8a6:	fd842703          	lw	a4,-40(s0)
2001d8aa:	fec42783          	lw	a5,-20(s0)
2001d8ae:	cbd8                	sw	a4,20(a5)
2001d8b0:	fec42783          	lw	a5,-20(s0)
2001d8b4:	479c                	lw	a5,8(a5)
2001d8b6:	c3b5                	beqz	a5,2001d91a <__metal_driver_sifive_uart0_set_baud_rate+0x8c>
2001d8b8:	fec42783          	lw	a5,-20(s0)
2001d8bc:	479c                	lw	a5,8(a5)
2001d8be:	439c                	lw	a5,0(a5)
2001d8c0:	4398                	lw	a4,0(a5)
2001d8c2:	fec42783          	lw	a5,-20(s0)
2001d8c6:	479c                	lw	a5,8(a5)
2001d8c8:	853e                	mv	a0,a5
2001d8ca:	9702                	jalr	a4
2001d8cc:	fea42423          	sw	a0,-24(s0)
2001d8d0:	fe842703          	lw	a4,-24(s0)
2001d8d4:	fd842783          	lw	a5,-40(s0)
2001d8d8:	02f747b3          	div	a5,a4,a5
2001d8dc:	fff78713          	addi	a4,a5,-1
2001d8e0:	fec42783          	lw	a5,-20(s0)
2001d8e4:	47dc                	lw	a5,12(a5)
2001d8e6:	07e1                	addi	a5,a5,24
2001d8e8:	c398                	sw	a4,0(a5)
2001d8ea:	fec42783          	lw	a5,-20(s0)
2001d8ee:	47dc                	lw	a5,12(a5)
2001d8f0:	07a1                	addi	a5,a5,8
2001d8f2:	439c                	lw	a5,0(a5)
2001d8f4:	fec42703          	lw	a4,-20(s0)
2001d8f8:	4758                	lw	a4,12(a4)
2001d8fa:	0721                	addi	a4,a4,8
2001d8fc:	0017e793          	ori	a5,a5,1
2001d900:	c31c                	sw	a5,0(a4)
2001d902:	fec42783          	lw	a5,-20(s0)
2001d906:	47dc                	lw	a5,12(a5)
2001d908:	07b1                	addi	a5,a5,12
2001d90a:	439c                	lw	a5,0(a5)
2001d90c:	fec42703          	lw	a4,-20(s0)
2001d910:	4758                	lw	a4,12(a4)
2001d912:	0731                	addi	a4,a4,12
2001d914:	0017e793          	ori	a5,a5,1
2001d918:	c31c                	sw	a5,0(a4)
2001d91a:	4781                	li	a5,0
2001d91c:	853e                	mv	a0,a5
2001d91e:	50b2                	lw	ra,44(sp)
2001d920:	5422                	lw	s0,40(sp)
2001d922:	6145                	addi	sp,sp,48
2001d924:	8082                	ret

2001d926 <pre_rate_change_callback>:
2001d926:	7139                	addi	sp,sp,-64
2001d928:	de06                	sw	ra,60(sp)
2001d92a:	dc22                	sw	s0,56(sp)
2001d92c:	0080                	addi	s0,sp,64
2001d92e:	fca42623          	sw	a0,-52(s0)
2001d932:	fcc42783          	lw	a5,-52(s0)
2001d936:	fef42623          	sw	a5,-20(s0)
2001d93a:	fec42783          	lw	a5,-20(s0)
2001d93e:	47dc                	lw	a5,12(a5)
2001d940:	07a1                	addi	a5,a5,8
2001d942:	4398                	lw	a4,0(a5)
2001d944:	fec42783          	lw	a5,-20(s0)
2001d948:	47dc                	lw	a5,12(a5)
2001d94a:	07a1                	addi	a5,a5,8
2001d94c:	86be                	mv	a3,a5
2001d94e:	fff907b7          	lui	a5,0xfff90
2001d952:	17fd                	addi	a5,a5,-1
2001d954:	8ff9                	and	a5,a5,a4
2001d956:	c29c                	sw	a5,0(a3)
2001d958:	fec42783          	lw	a5,-20(s0)
2001d95c:	47dc                	lw	a5,12(a5)
2001d95e:	07a1                	addi	a5,a5,8
2001d960:	4398                	lw	a4,0(a5)
2001d962:	fec42783          	lw	a5,-20(s0)
2001d966:	47dc                	lw	a5,12(a5)
2001d968:	07a1                	addi	a5,a5,8
2001d96a:	86be                	mv	a3,a5
2001d96c:	67c1                	lui	a5,0x10
2001d96e:	8fd9                	or	a5,a5,a4
2001d970:	c29c                	sw	a5,0(a3)
2001d972:	0001                	nop
2001d974:	fec42783          	lw	a5,-20(s0)
2001d978:	47dc                	lw	a5,12(a5)
2001d97a:	07d1                	addi	a5,a5,20
2001d97c:	439c                	lw	a5,0(a5)
2001d97e:	8b85                	andi	a5,a5,1
2001d980:	dbf5                	beqz	a5,2001d974 <pre_rate_change_callback+0x4e>
2001d982:	fec42783          	lw	a5,-20(s0)
2001d986:	47dc                	lw	a5,12(a5)
2001d988:	07a1                	addi	a5,a5,8
2001d98a:	439c                	lw	a5,0(a5)
2001d98c:	8b89                	andi	a5,a5,2
2001d98e:	c399                	beqz	a5,2001d994 <pre_rate_change_callback+0x6e>
2001d990:	47a5                	li	a5,9
2001d992:	a011                	j	2001d996 <pre_rate_change_callback+0x70>
2001d994:	47a9                	li	a5,10
2001d996:	fef42423          	sw	a5,-24(s0)
2001d99a:	fec42783          	lw	a5,-20(s0)
2001d99e:	479c                	lw	a5,8(a5)
2001d9a0:	439c                	lw	a5,0(a5)
2001d9a2:	4398                	lw	a4,0(a5)
2001d9a4:	fec42783          	lw	a5,-20(s0)
2001d9a8:	479c                	lw	a5,8(a5)
2001d9aa:	853e                	mv	a0,a5
2001d9ac:	9702                	jalr	a4
2001d9ae:	fea42223          	sw	a0,-28(s0)
2001d9b2:	fe842703          	lw	a4,-24(s0)
2001d9b6:	fe442783          	lw	a5,-28(s0)
2001d9ba:	02f707b3          	mul	a5,a4,a5
2001d9be:	873e                	mv	a4,a5
2001d9c0:	fec42783          	lw	a5,-20(s0)
2001d9c4:	4bdc                	lw	a5,20(a5)
2001d9c6:	02f757b3          	divu	a5,a4,a5
2001d9ca:	fef42023          	sw	a5,-32(s0)
2001d9ce:	fc042e23          	sw	zero,-36(s0)
2001d9d2:	a039                	j	2001d9e0 <pre_rate_change_callback+0xba>
2001d9d4:	0001                	nop
2001d9d6:	fdc42783          	lw	a5,-36(s0)
2001d9da:	0785                	addi	a5,a5,1
2001d9dc:	fcf42e23          	sw	a5,-36(s0)
2001d9e0:	fdc42783          	lw	a5,-36(s0)
2001d9e4:	fe042703          	lw	a4,-32(s0)
2001d9e8:	fee7c6e3          	blt	a5,a4,2001d9d4 <pre_rate_change_callback+0xae>
2001d9ec:	0001                	nop
2001d9ee:	50f2                	lw	ra,60(sp)
2001d9f0:	5462                	lw	s0,56(sp)
2001d9f2:	6121                	addi	sp,sp,64
2001d9f4:	8082                	ret

2001d9f6 <post_rate_change_callback>:
2001d9f6:	7179                	addi	sp,sp,-48
2001d9f8:	d606                	sw	ra,44(sp)
2001d9fa:	d422                	sw	s0,40(sp)
2001d9fc:	1800                	addi	s0,sp,48
2001d9fe:	fca42e23          	sw	a0,-36(s0)
2001da02:	fdc42783          	lw	a5,-36(s0)
2001da06:	fef42623          	sw	a5,-20(s0)
2001da0a:	fec42703          	lw	a4,-20(s0)
2001da0e:	fec42783          	lw	a5,-20(s0)
2001da12:	4bdc                	lw	a5,20(a5)
2001da14:	85be                	mv	a1,a5
2001da16:	853a                	mv	a0,a4
2001da18:	f5bfd0ef          	jal	ra,2001b972 <metal_uart_set_baud_rate>
2001da1c:	0001                	nop
2001da1e:	50b2                	lw	ra,44(sp)
2001da20:	5422                	lw	s0,40(sp)
2001da22:	6145                	addi	sp,sp,48
2001da24:	8082                	ret

2001da26 <__metal_driver_sifive_uart0_init>:
2001da26:	7179                	addi	sp,sp,-48
2001da28:	d606                	sw	ra,44(sp)
2001da2a:	d422                	sw	s0,40(sp)
2001da2c:	1800                	addi	s0,sp,48
2001da2e:	fca42e23          	sw	a0,-36(s0)
2001da32:	fcb42c23          	sw	a1,-40(s0)
2001da36:	fdc42783          	lw	a5,-36(s0)
2001da3a:	fef42623          	sw	a5,-20(s0)
2001da3e:	fec42783          	lw	a5,-20(s0)
2001da42:	479c                	lw	a5,8(a5)
2001da44:	c79d                	beqz	a5,2001da72 <__metal_driver_sifive_uart0_init+0x4c>
2001da46:	fec42783          	lw	a5,-20(s0)
2001da4a:	4798                	lw	a4,8(a5)
2001da4c:	fec42603          	lw	a2,-20(s0)
2001da50:	2001e7b7          	lui	a5,0x2001e
2001da54:	92678593          	addi	a1,a5,-1754 # 2001d926 <pre_rate_change_callback>
2001da58:	853a                	mv	a0,a4
2001da5a:	20ed                	jal	2001db44 <metal_clock_register_pre_rate_change_callback>
2001da5c:	fec42783          	lw	a5,-20(s0)
2001da60:	4798                	lw	a4,8(a5)
2001da62:	fec42603          	lw	a2,-20(s0)
2001da66:	2001e7b7          	lui	a5,0x2001e
2001da6a:	9f678593          	addi	a1,a5,-1546 # 2001d9f6 <post_rate_change_callback>
2001da6e:	853a                	mv	a0,a4
2001da70:	2209                	jal	2001db72 <metal_clock_register_post_rate_change_callback>
2001da72:	fec42783          	lw	a5,-20(s0)
2001da76:	fd842583          	lw	a1,-40(s0)
2001da7a:	853e                	mv	a0,a5
2001da7c:	ef7fd0ef          	jal	ra,2001b972 <metal_uart_set_baud_rate>
2001da80:	fec42783          	lw	a5,-20(s0)
2001da84:	4f9c                	lw	a5,24(a5)
2001da86:	c78d                	beqz	a5,2001dab0 <__metal_driver_sifive_uart0_init+0x8a>
2001da88:	fec42783          	lw	a5,-20(s0)
2001da8c:	4f9c                	lw	a5,24(a5)
2001da8e:	43dc                	lw	a5,4(a5)
2001da90:	0187a803          	lw	a6,24(a5)
2001da94:	fec42783          	lw	a5,-20(s0)
2001da98:	4f98                	lw	a4,24(a5)
2001da9a:	fec42783          	lw	a5,-20(s0)
2001da9e:	4fdc                	lw	a5,28(a5)
2001daa0:	86be                	mv	a3,a5
2001daa2:	fec42783          	lw	a5,-20(s0)
2001daa6:	539c                	lw	a5,32(a5)
2001daa8:	863e                	mv	a2,a5
2001daaa:	85b6                	mv	a1,a3
2001daac:	853a                	mv	a0,a4
2001daae:	9802                	jalr	a6
2001dab0:	0001                	nop
2001dab2:	50b2                	lw	ra,44(sp)
2001dab4:	5422                	lw	s0,40(sp)
2001dab6:	6145                	addi	sp,sp,48
2001dab8:	8082                	ret

2001daba <metal_clock_get_rate_hz>:
2001daba:	1101                	addi	sp,sp,-32
2001dabc:	ce06                	sw	ra,28(sp)
2001dabe:	cc22                	sw	s0,24(sp)
2001dac0:	1000                	addi	s0,sp,32
2001dac2:	fea42623          	sw	a0,-20(s0)
2001dac6:	fec42783          	lw	a5,-20(s0)
2001daca:	439c                	lw	a5,0(a5)
2001dacc:	439c                	lw	a5,0(a5)
2001dace:	fec42503          	lw	a0,-20(s0)
2001dad2:	9782                	jalr	a5
2001dad4:	87aa                	mv	a5,a0
2001dad6:	853e                	mv	a0,a5
2001dad8:	40f2                	lw	ra,28(sp)
2001dada:	4462                	lw	s0,24(sp)
2001dadc:	6105                	addi	sp,sp,32
2001dade:	8082                	ret

2001dae0 <metal_clock_set_rate_hz>:
2001dae0:	7179                	addi	sp,sp,-48
2001dae2:	d606                	sw	ra,44(sp)
2001dae4:	d422                	sw	s0,40(sp)
2001dae6:	1800                	addi	s0,sp,48
2001dae8:	fca42e23          	sw	a0,-36(s0)
2001daec:	fcb42c23          	sw	a1,-40(s0)
2001daf0:	fdc42783          	lw	a5,-36(s0)
2001daf4:	43dc                	lw	a5,4(a5)
2001daf6:	cb89                	beqz	a5,2001db08 <metal_clock_set_rate_hz+0x28>
2001daf8:	fdc42783          	lw	a5,-36(s0)
2001dafc:	43d8                	lw	a4,4(a5)
2001dafe:	fdc42783          	lw	a5,-36(s0)
2001db02:	479c                	lw	a5,8(a5)
2001db04:	853e                	mv	a0,a5
2001db06:	9702                	jalr	a4
2001db08:	fdc42783          	lw	a5,-36(s0)
2001db0c:	439c                	lw	a5,0(a5)
2001db0e:	43dc                	lw	a5,4(a5)
2001db10:	fd842583          	lw	a1,-40(s0)
2001db14:	fdc42503          	lw	a0,-36(s0)
2001db18:	9782                	jalr	a5
2001db1a:	fea42623          	sw	a0,-20(s0)
2001db1e:	fdc42783          	lw	a5,-36(s0)
2001db22:	47dc                	lw	a5,12(a5)
2001db24:	cb89                	beqz	a5,2001db36 <metal_clock_set_rate_hz+0x56>
2001db26:	fdc42783          	lw	a5,-36(s0)
2001db2a:	47d8                	lw	a4,12(a5)
2001db2c:	fdc42783          	lw	a5,-36(s0)
2001db30:	4b9c                	lw	a5,16(a5)
2001db32:	853e                	mv	a0,a5
2001db34:	9702                	jalr	a4
2001db36:	fec42783          	lw	a5,-20(s0)
2001db3a:	853e                	mv	a0,a5
2001db3c:	50b2                	lw	ra,44(sp)
2001db3e:	5422                	lw	s0,40(sp)
2001db40:	6145                	addi	sp,sp,48
2001db42:	8082                	ret

2001db44 <metal_clock_register_pre_rate_change_callback>:
2001db44:	1101                	addi	sp,sp,-32
2001db46:	ce22                	sw	s0,28(sp)
2001db48:	1000                	addi	s0,sp,32
2001db4a:	fea42623          	sw	a0,-20(s0)
2001db4e:	feb42423          	sw	a1,-24(s0)
2001db52:	fec42223          	sw	a2,-28(s0)
2001db56:	fec42783          	lw	a5,-20(s0)
2001db5a:	fe842703          	lw	a4,-24(s0)
2001db5e:	c3d8                	sw	a4,4(a5)
2001db60:	fec42783          	lw	a5,-20(s0)
2001db64:	fe442703          	lw	a4,-28(s0)
2001db68:	c798                	sw	a4,8(a5)
2001db6a:	0001                	nop
2001db6c:	4472                	lw	s0,28(sp)
2001db6e:	6105                	addi	sp,sp,32
2001db70:	8082                	ret

2001db72 <metal_clock_register_post_rate_change_callback>:
2001db72:	1101                	addi	sp,sp,-32
2001db74:	ce22                	sw	s0,28(sp)
2001db76:	1000                	addi	s0,sp,32
2001db78:	fea42623          	sw	a0,-20(s0)
2001db7c:	feb42423          	sw	a1,-24(s0)
2001db80:	fec42223          	sw	a2,-28(s0)
2001db84:	fec42783          	lw	a5,-20(s0)
2001db88:	fe842703          	lw	a4,-24(s0)
2001db8c:	c7d8                	sw	a4,12(a5)
2001db8e:	fec42783          	lw	a5,-20(s0)
2001db92:	fe442703          	lw	a4,-28(s0)
2001db96:	cb98                	sw	a4,16(a5)
2001db98:	0001                	nop
2001db9a:	4472                	lw	s0,28(sp)
2001db9c:	6105                	addi	sp,sp,32
2001db9e:	8082                	ret

2001dba0 <metal_shutdown>:
2001dba0:	1101                	addi	sp,sp,-32
2001dba2:	ce22                	sw	s0,28(sp)
2001dba4:	1000                	addi	s0,sp,32
2001dba6:	fea42623          	sw	a0,-20(s0)
2001dbaa:	0001                	nop
2001dbac:	bffd                	j	2001dbaa <metal_shutdown+0xa>

2001dbae <_exit>:
2001dbae:	1101                	addi	sp,sp,-32
2001dbb0:	ce06                	sw	ra,28(sp)
2001dbb2:	cc22                	sw	s0,24(sp)
2001dbb4:	1000                	addi	s0,sp,32
2001dbb6:	fea42623          	sw	a0,-20(s0)
2001dbba:	fec42503          	lw	a0,-20(s0)
2001dbbe:	fe3ff0ef          	jal	ra,2001dba0 <metal_shutdown>
