
test.o:     file format elf32-littleriscv

SYMBOL TABLE:
00000000 l    df *ABS*	00000000 test.c
00000000 l     O .rodata.str1.1	00000017 .L.str
00000017 l     O .rodata.str1.1	00000022 .L.str.1
00000000         *UND*	00000000 getcycles
00000000 g     F .text	00000104 main
00000000         *UND*	00000000 printf
00000000         *UND*	00000000 securemul



Disassembly of section .text:

00000000 <main>:
   0:	fe010113          	addi	sp,sp,-32
   4:	00112e23          	sw	ra,28(sp)
   8:	00912c23          	sw	s1,24(sp)
   c:	01212a23          	sw	s2,20(sp)
  10:	01312823          	sw	s3,16(sp)
  14:	01412623          	sw	s4,12(sp)
  18:	01512423          	sw	s5,8(sp)
  1c:	00a00993          	li	s3,10
  20:	03200913          	li	s2,50
  24:	00098513          	mv	a0,s3
  28:	00090593          	mv	a1,s2
  2c:	00000097          	auipc	ra,0x0
  30:	000080e7          	jalr	ra # 2c <main+0x2c>
  34:	00098513          	mv	a0,s3
  38:	00090593          	mv	a1,s2
  3c:	00000097          	auipc	ra,0x0
  40:	000080e7          	jalr	ra # 3c <main+0x3c>
  44:	00000097          	auipc	ra,0x0
  48:	000080e7          	jalr	ra # 44 <main+0x44>
  4c:	00098513          	mv	a0,s3
  50:	00090593          	mv	a1,s2
  54:	00000097          	auipc	ra,0x0
  58:	000080e7          	jalr	ra # 54 <main+0x54>
  5c:	00000097          	auipc	ra,0x0
  60:	000080e7          	jalr	ra # 5c <main+0x5c>
  64:	00098513          	mv	a0,s3
  68:	00090593          	mv	a1,s2
  6c:	00000097          	auipc	ra,0x0
  70:	000080e7          	jalr	ra # 6c <main+0x6c>
  74:	00000097          	auipc	ra,0x0
  78:	000080e7          	jalr	ra # 74 <main+0x74>
  7c:	00050493          	mv	s1,a0
  80:	00058a13          	mv	s4,a1
  84:	00098513          	mv	a0,s3
  88:	00090593          	mv	a1,s2
  8c:	00000097          	auipc	ra,0x0
  90:	000080e7          	jalr	ra # 8c <main+0x8c>
  94:	00050a93          	mv	s5,a0
  98:	00000097          	auipc	ra,0x0
  9c:	000080e7          	jalr	ra # 98 <main+0x98>
  a0:	00953633          	sltu	a2,a0,s1
  a4:	414585b3          	sub	a1,a1,s4
  a8:	40c586b3          	sub	a3,a1,a2
  ac:	40950633          	sub	a2,a0,s1
  b0:	00000537          	lui	a0,0x0
  b4:	00050513          	mv	a0,a0
  b8:	00000097          	auipc	ra,0x0
  bc:	000080e7          	jalr	ra # b8 <main+0xb8>
  c0:	00000537          	lui	a0,0x0
  c4:	00050513          	mv	a0,a0
  c8:	00098593          	mv	a1,s3
  cc:	00090613          	mv	a2,s2
  d0:	000a8693          	mv	a3,s5
  d4:	000a8713          	mv	a4,s5
  d8:	00000097          	auipc	ra,0x0
  dc:	000080e7          	jalr	ra # d8 <main+0xd8>
  e0:	00000513          	li	a0,0
  e4:	00812a83          	lw	s5,8(sp)
  e8:	00c12a03          	lw	s4,12(sp)
  ec:	01012983          	lw	s3,16(sp)
  f0:	01412903          	lw	s2,20(sp)
  f4:	01812483          	lw	s1,24(sp)
  f8:	01c12083          	lw	ra,28(sp)
  fc:	02010113          	addi	sp,sp,32
 100:	00008067          	ret
